	.section __DWARF,__debug_frame,regular,debug
Lsection__debug_frame:
	.section __DWARF,__debug_info,regular,debug
Lsection__debug_info:
	.section __DWARF,__debug_abbrev,regular,debug
Lsection__debug_abbrev:
	.section __DWARF,__debug_aranges,regular,debug
Lsection__debug_aranges:
	.section __DWARF,__debug_macinfo,regular,debug
Lsection__debug_macinfo:
	.section __DWARF,__debug_line,regular,debug
Lsection__debug_line:
	.section __DWARF,__debug_loc,regular,debug
Lsection__debug_loc:
	.section __DWARF,__debug_pubnames,regular,debug
Lsection__debug_pubnames:
	.section __DWARF,__debug_pubtypes,regular,debug
Lsection__debug_pubtypes:
	.section __DWARF,__debug_inlined,regular,debug
Lsection__debug_inlined:
	.section __DWARF,__debug_str,regular,debug
Lsection__debug_str:
	.section __DWARF,__debug_ranges,regular,debug
Lsection__debug_ranges:
	.section __DWARF,__debug_abbrev,regular,debug
Ldebug_abbrev0:
	.section __DWARF,__debug_info,regular,debug
Ldebug_info0:
	.section __DWARF,__debug_line,regular,debug
Ldebug_line0:
	.text
Ltext0:
	.mod_init_func
	.align 2
	.long	__GLOBAL__I__Z20Afficher_case_centreRN2sf12RenderWindowE
	.section __TEXT,__textcoal_nt,coalesced,pure_instructions
.globl __ZSt3minImERKT_S2_S2_
	.weak_definition __ZSt3minImERKT_S2_S2_
__ZSt3minImERKT_S2_S2_:
LFB2263:
	.file 1 "/usr/include/c++/4.2.1/bits/stl_algobase.h"
	.loc 1 182 0
	nop
	nop
	nop
	nop
	nop
	nop
	pushl	%ebp
LCFI0:
	movl	%esp, %ebp
LCFI1:
	subl	$24, %esp
LCFI2:
	.loc 1 187 0
	movl	12(%ebp), %eax
	movl	(%eax), %edx
	movl	8(%ebp), %eax
	movl	(%eax), %eax
	cmpl	%eax, %edx
	jae	L2
	.loc 1 188 0
	movl	12(%ebp), %eax
	movl	%eax, -12(%ebp)
	jmp	L4
L2:
	.loc 1 189 0
	movl	8(%ebp), %eax
	movl	%eax, -12(%ebp)
L4:
	movl	-12(%ebp), %eax
	leave
	ret
LFE2263:
	.text
__ZStL17__verify_groupingPKcmRKSs:
LFB1410:
	.file 2 "/usr/include/c++/4.2.1/bits/locale_facets.tcc"
	.loc 2 2558 0
	nop
	nop
	nop
	nop
	nop
	nop
	pushl	%ebp
LCFI3:
	movl	%esp, %ebp
LCFI4:
	pushl	%esi
LCFI5:
	subl	$52, %esp
LCFI6:
LBB2:
	.loc 2 2560 0
	movl	16(%ebp), %eax
	movl	%eax, (%esp)
	call	__ZNKSs4sizeEv
	decl	%eax
	movl	%eax, -16(%ebp)
	.loc 2 2561 0
	movl	12(%ebp), %eax
	decl	%eax
	movl	%eax, -24(%ebp)
	leal	-24(%ebp), %eax
	movl	%eax, 4(%esp)
	leal	-16(%ebp), %eax
	movl	%eax, (%esp)
	call	__ZSt3minImERKT_S2_S2_
	movl	(%eax), %eax
	movl	%eax, -20(%ebp)
	.loc 2 2562 0
	movl	-16(%ebp), %eax
	movl	%eax, -28(%ebp)
	.loc 2 2563 0
	movb	$1, -9(%ebp)
LBB3:
	.loc 2 2568 0
	movl	$0, -32(%ebp)
	jmp	L7
L8:
	.loc 2 2569 0
	movl	-28(%ebp), %eax
	movl	%eax, 4(%esp)
	movl	16(%ebp), %eax
	movl	%eax, (%esp)
	call	__ZNKSsixEm
	movzbl	(%eax), %edx
	movl	-32(%ebp), %eax
	addl	8(%ebp), %eax
	movzbl	(%eax), %eax
	cmpb	%al, %dl
	sete	%al
	movb	%al, -9(%ebp)
	.loc 2 2568 0
	decl	-28(%ebp)
	incl	-32(%ebp)
L7:
	movl	-32(%ebp), %eax
	cmpl	-20(%ebp), %eax
	jae	L11
	cmpb	$0, -9(%ebp)
	jne	L8
	.loc 2 2570 0
	jmp	L11
L12:
LBE3:
	.loc 2 2571 0
	movl	-28(%ebp), %eax
	movl	%eax, 4(%esp)
	movl	16(%ebp), %eax
	movl	%eax, (%esp)
	call	__ZNKSsixEm
	movzbl	(%eax), %edx
	movl	-20(%ebp), %eax
	addl	8(%ebp), %eax
	movzbl	(%eax), %eax
	cmpb	%al, %dl
	sete	%al
	movb	%al, -9(%ebp)
	.loc 2 2570 0
	decl	-28(%ebp)
L11:
	cmpl	$0, -28(%ebp)
	je	L13
	cmpb	$0, -9(%ebp)
	jne	L12
L13:
	.loc 2 2575 0
	movl	-20(%ebp), %eax
	addl	8(%ebp), %eax
	movzbl	(%eax), %eax
	testb	%al, %al
	jle	L15
	.loc 2 2576 0
	movzbl	-9(%ebp), %esi
	movl	$0, 4(%esp)
	movl	16(%ebp), %eax
	movl	%eax, (%esp)
	call	__ZNKSsixEm
	movzbl	(%eax), %edx
	movl	-20(%ebp), %eax
	addl	8(%ebp), %eax
	movzbl	(%eax), %eax
	cmpb	%al, %dl
	setle	%al
	movzbl	%al, %eax
	andl	%esi, %eax
	testl	%eax, %eax
	setne	%al
	movb	%al, -9(%ebp)
L15:
	.loc 2 2577 0
	movzbl	-9(%ebp), %eax
LBE2:
	.loc 2 2578 0
	addl	$52, %esp
	popl	%esi
	leave
	ret
LFE1410:
	.section __TEXT,__textcoal_nt,coalesced,pure_instructions
	.align 1
.globl __ZNKSt8_Rb_treeIPN2sf11ResourcePtrINS0_5ImageEEES4_St9_IdentityIS4_ESt4lessIS4_ESaIS4_EE4sizeEv
	.weak_definition __ZNKSt8_Rb_treeIPN2sf11ResourcePtrINS0_5ImageEEES4_St9_IdentityIS4_ESt4lessIS4_ESaIS4_EE4sizeEv
	.private_extern __ZNKSt8_Rb_treeIPN2sf11ResourcePtrINS0_5ImageEEES4_St9_IdentityIS4_ESt4lessIS4_ESaIS4_EE4sizeEv
__ZNKSt8_Rb_treeIPN2sf11ResourcePtrINS0_5ImageEEES4_St9_IdentityIS4_ESt4lessIS4_ESaIS4_EE4sizeEv:
LFB2326:
	.file 3 "/usr/include/c++/4.2.1/bits/stl_tree.h"
	.loc 3 650 0
	nop
	nop
	nop
	nop
	nop
	nop
	pushl	%ebp
LCFI7:
	movl	%esp, %ebp
LCFI8:
	subl	$8, %esp
LCFI9:
	.loc 3 651 0
	movl	8(%ebp), %eax
	movl	20(%eax), %eax
	leave
	ret
LFE2326:
	.align 1
.globl __ZNSt4pairISt17_Rb_tree_iteratorIPN2sf11ResourcePtrINS1_5ImageEEEES6_EC1ERKS6_S9_
	.weak_definition __ZNSt4pairISt17_Rb_tree_iteratorIPN2sf11ResourcePtrINS1_5ImageEEEES6_EC1ERKS6_S9_
	.private_extern __ZNSt4pairISt17_Rb_tree_iteratorIPN2sf11ResourcePtrINS1_5ImageEEEES6_EC1ERKS6_S9_
__ZNSt4pairISt17_Rb_tree_iteratorIPN2sf11ResourcePtrINS1_5ImageEEEES6_EC1ERKS6_S9_:
LFB2332:
	.file 4 "/usr/include/c++/4.2.1/bits/stl_pair.h"
	.loc 4 84 0
	nop
	nop
	nop
	nop
	nop
	nop
	pushl	%ebp
LCFI10:
	movl	%esp, %ebp
LCFI11:
	subl	$8, %esp
LCFI12:
LBB4:
	.loc 4 85 0
	movl	12(%ebp), %eax
	movl	(%eax), %edx
	movl	8(%ebp), %eax
	movl	%edx, (%eax)
	movl	16(%ebp), %eax
	movl	(%eax), %edx
	movl	8(%ebp), %eax
	movl	%edx, 4(%eax)
LBE4:
	leave
	ret
LFE2332:
	.align 1
.globl __ZNKSt17_Rb_tree_iteratorIPN2sf11ResourcePtrINS0_5ImageEEEEeqERKS5_
	.weak_definition __ZNKSt17_Rb_tree_iteratorIPN2sf11ResourcePtrINS0_5ImageEEEEeqERKS5_
	.private_extern __ZNKSt17_Rb_tree_iteratorIPN2sf11ResourcePtrINS0_5ImageEEEEeqERKS5_
__ZNKSt17_Rb_tree_iteratorIPN2sf11ResourcePtrINS0_5ImageEEEEeqERKS5_:
LFB2334:
	.loc 3 213 0
	nop
	nop
	nop
	nop
	nop
	nop
	pushl	%ebp
LCFI13:
	movl	%esp, %ebp
LCFI14:
	subl	$8, %esp
LCFI15:
	.loc 3 214 0
	movl	8(%ebp), %eax
	movl	(%eax), %edx
	movl	12(%ebp), %eax
	movl	(%eax), %eax
	cmpl	%eax, %edx
	sete	%al
	movzbl	%al, %eax
	leave
	ret
LFE2334:
	.align 1
.globl __ZNKSt17_Rb_tree_iteratorIPN2sf11ResourcePtrINS0_5ImageEEEEneERKS5_
	.weak_definition __ZNKSt17_Rb_tree_iteratorIPN2sf11ResourcePtrINS0_5ImageEEEEneERKS5_
	.private_extern __ZNKSt17_Rb_tree_iteratorIPN2sf11ResourcePtrINS0_5ImageEEEEneERKS5_
__ZNKSt17_Rb_tree_iteratorIPN2sf11ResourcePtrINS0_5ImageEEEEneERKS5_:
LFB2337:
	.loc 3 217 0
	nop
	nop
	nop
	nop
	nop
	nop
	pushl	%ebp
LCFI16:
	movl	%esp, %ebp
LCFI17:
	subl	$8, %esp
LCFI18:
	.loc 3 218 0
	movl	8(%ebp), %eax
	movl	(%eax), %edx
	movl	12(%ebp), %eax
	movl	(%eax), %eax
	cmpl	%eax, %edx
	setne	%al
	movzbl	%al, %eax
	leave
	ret
LFE2337:
	.align 1
.globl __ZNSt8_Rb_treeIPN2sf11ResourcePtrINS0_5ImageEEES4_St9_IdentityIS4_ESt4lessIS4_ESaIS4_EE8_M_beginEv
	.weak_definition __ZNSt8_Rb_treeIPN2sf11ResourcePtrINS0_5ImageEEES4_St9_IdentityIS4_ESt4lessIS4_ESaIS4_EE8_M_beginEv
	.private_extern __ZNSt8_Rb_treeIPN2sf11ResourcePtrINS0_5ImageEEES4_St9_IdentityIS4_ESt4lessIS4_ESaIS4_EE8_M_beginEv
__ZNSt8_Rb_treeIPN2sf11ResourcePtrINS0_5ImageEEES4_St9_IdentityIS4_ESt4lessIS4_ESaIS4_EE8_M_beginEv:
LFB2340:
	.loc 3 476 0
	nop
	nop
	nop
	nop
	nop
	nop
	pushl	%ebp
LCFI19:
	movl	%esp, %ebp
LCFI20:
	subl	$8, %esp
LCFI21:
	.loc 3 477 0
	movl	8(%ebp), %eax
	movl	8(%eax), %eax
	leave
	ret
LFE2340:
	.align 1
.globl __ZNSt8_Rb_treeIPN2sf11ResourcePtrINS0_5ImageEEES4_St9_IdentityIS4_ESt4lessIS4_ESaIS4_EE6_M_endEv
	.weak_definition __ZNSt8_Rb_treeIPN2sf11ResourcePtrINS0_5ImageEEES4_St9_IdentityIS4_ESt4lessIS4_ESaIS4_EE6_M_endEv
	.private_extern __ZNSt8_Rb_treeIPN2sf11ResourcePtrINS0_5ImageEEES4_St9_IdentityIS4_ESt4lessIS4_ESaIS4_EE6_M_endEv
__ZNSt8_Rb_treeIPN2sf11ResourcePtrINS0_5ImageEEES4_St9_IdentityIS4_ESt4lessIS4_ESaIS4_EE6_M_endEv:
LFB2341:
	.loc 3 487 0
	nop
	nop
	nop
	nop
	nop
	nop
	pushl	%ebp
LCFI22:
	movl	%esp, %ebp
LCFI23:
	subl	$8, %esp
LCFI24:
	.loc 3 488 0
	movl	8(%ebp), %eax
	addl	$4, %eax
	leave
	ret
LFE2341:
	.align 1
.globl __ZNSt14unary_functionIPN2sf11ResourcePtrINS0_5ImageEEES4_EC2Ev
	.weak_definition __ZNSt14unary_functionIPN2sf11ResourcePtrINS0_5ImageEEES4_EC2Ev
	.private_extern __ZNSt14unary_functionIPN2sf11ResourcePtrINS0_5ImageEEES4_EC2Ev
__ZNSt14unary_functionIPN2sf11ResourcePtrINS0_5ImageEEES4_EC2Ev:
LFB2345:
	.file 5 "/usr/include/c++/4.2.1/bits/stl_function.h"
	.loc 5 103 0
	nop
	nop
	nop
	nop
	nop
	nop
	pushl	%ebp
LCFI25:
	movl	%esp, %ebp
LCFI26:
	subl	$8, %esp
LCFI27:
	.loc 5 103 0
	leave
	ret
LFE2345:
	.align 1
.globl __ZNSt9_IdentityIPN2sf11ResourcePtrINS0_5ImageEEEEC1Ev
	.weak_definition __ZNSt9_IdentityIPN2sf11ResourcePtrINS0_5ImageEEEEC1Ev
	.private_extern __ZNSt9_IdentityIPN2sf11ResourcePtrINS0_5ImageEEEEC1Ev
__ZNSt9_IdentityIPN2sf11ResourcePtrINS0_5ImageEEEEC1Ev:
LFB2348:
	.loc 5 531 0
	nop
	nop
	nop
	nop
	nop
	nop
	pushl	%ebp
LCFI28:
	movl	%esp, %ebp
LCFI29:
	subl	$24, %esp
LCFI30:
LBB5:
	.loc 5 531 0
	movl	8(%ebp), %eax
	movl	%eax, (%esp)
	call	__ZNSt14unary_functionIPN2sf11ResourcePtrINS0_5ImageEEES4_EC2Ev
LBE5:
	leave
	ret
LFE2348:
	.align 1
.globl __ZNKSt4lessIPN2sf11ResourcePtrINS0_5ImageEEEEclERKS4_S7_
	.weak_definition __ZNKSt4lessIPN2sf11ResourcePtrINS0_5ImageEEEEclERKS4_S7_
	.private_extern __ZNKSt4lessIPN2sf11ResourcePtrINS0_5ImageEEEEclERKS4_S7_
__ZNKSt4lessIPN2sf11ResourcePtrINS0_5ImageEEEEclERKS4_S7_:
LFB2349:
	.loc 5 226 0
	nop
	nop
	nop
	nop
	nop
	nop
	pushl	%ebp
LCFI31:
	movl	%esp, %ebp
LCFI32:
	subl	$8, %esp
LCFI33:
	.loc 5 227 0
	movl	12(%ebp), %eax
	movl	(%eax), %edx
	movl	16(%ebp), %eax
	movl	(%eax), %eax
	cmpl	%eax, %edx
	setb	%al
	movzbl	%al, %eax
	leave
	ret
LFE2349:
.globl __ZNSt8_Rb_treeIPN2sf11ResourcePtrINS0_5ImageEEES4_St9_IdentityIS4_ESt4lessIS4_ESaIS4_EE7_S_leftEPSt18_Rb_tree_node_base
	.weak_definition __ZNSt8_Rb_treeIPN2sf11ResourcePtrINS0_5ImageEEES4_St9_IdentityIS4_ESt4lessIS4_ESaIS4_EE7_S_leftEPSt18_Rb_tree_node_base
	.private_extern __ZNSt8_Rb_treeIPN2sf11ResourcePtrINS0_5ImageEEES4_St9_IdentityIS4_ESt4lessIS4_ESaIS4_EE7_S_leftEPSt18_Rb_tree_node_base
__ZNSt8_Rb_treeIPN2sf11ResourcePtrINS0_5ImageEEES4_St9_IdentityIS4_ESt4lessIS4_ESaIS4_EE7_S_leftEPSt18_Rb_tree_node_base:
LFB2350:
	.loc 3 503 0
	nop
	nop
	nop
	nop
	nop
	nop
	pushl	%ebp
LCFI34:
	movl	%esp, %ebp
LCFI35:
	subl	$8, %esp
LCFI36:
	.loc 3 504 0
	movl	8(%ebp), %eax
	movl	8(%eax), %eax
	leave
	ret
LFE2350:
.globl __ZNSt8_Rb_treeIPN2sf11ResourcePtrINS0_5ImageEEES4_St9_IdentityIS4_ESt4lessIS4_ESaIS4_EE8_S_rightEPSt18_Rb_tree_node_base
	.weak_definition __ZNSt8_Rb_treeIPN2sf11ResourcePtrINS0_5ImageEEES4_St9_IdentityIS4_ESt4lessIS4_ESaIS4_EE8_S_rightEPSt18_Rb_tree_node_base
	.private_extern __ZNSt8_Rb_treeIPN2sf11ResourcePtrINS0_5ImageEEES4_St9_IdentityIS4_ESt4lessIS4_ESaIS4_EE8_S_rightEPSt18_Rb_tree_node_base
__ZNSt8_Rb_treeIPN2sf11ResourcePtrINS0_5ImageEEES4_St9_IdentityIS4_ESt4lessIS4_ESaIS4_EE8_S_rightEPSt18_Rb_tree_node_base:
LFB2351:
	.loc 3 511 0
	nop
	nop
	nop
	nop
	nop
	nop
	pushl	%ebp
LCFI37:
	movl	%esp, %ebp
LCFI38:
	subl	$8, %esp
LCFI39:
	.loc 3 512 0
	movl	8(%ebp), %eax
	movl	12(%eax), %eax
	leave
	ret
LFE2351:
	.align 1
.globl __ZNSt17_Rb_tree_iteratorIPN2sf11ResourcePtrINS0_5ImageEEEEC1EPSt13_Rb_tree_nodeIS4_E
	.weak_definition __ZNSt17_Rb_tree_iteratorIPN2sf11ResourcePtrINS0_5ImageEEEEC1EPSt13_Rb_tree_nodeIS4_E
	.private_extern __ZNSt17_Rb_tree_iteratorIPN2sf11ResourcePtrINS0_5ImageEEEEC1EPSt13_Rb_tree_nodeIS4_E
__ZNSt17_Rb_tree_iteratorIPN2sf11ResourcePtrINS0_5ImageEEEEC1EPSt13_Rb_tree_nodeIS4_E:
LFB2354:
	.loc 3 171 0
	nop
	nop
	nop
	nop
	nop
	nop
	pushl	%ebp
LCFI40:
	movl	%esp, %ebp
LCFI41:
	subl	$8, %esp
LCFI42:
LBB6:
	.loc 3 172 0
	movl	12(%ebp), %edx
	movl	8(%ebp), %eax
	movl	%edx, (%eax)
LBE6:
	leave
	ret
LFE2354:
	.align 1
.globl __ZNSt8_Rb_treeIPN2sf11ResourcePtrINS0_5ImageEEES4_St9_IdentityIS4_ESt4lessIS4_ESaIS4_EE5beginEv
	.weak_definition __ZNSt8_Rb_treeIPN2sf11ResourcePtrINS0_5ImageEEES4_St9_IdentityIS4_ESt4lessIS4_ESaIS4_EE5beginEv
	.private_extern __ZNSt8_Rb_treeIPN2sf11ResourcePtrINS0_5ImageEEES4_St9_IdentityIS4_ESt4lessIS4_ESaIS4_EE5beginEv
__ZNSt8_Rb_treeIPN2sf11ResourcePtrINS0_5ImageEEES4_St9_IdentityIS4_ESt4lessIS4_ESaIS4_EE5beginEv:
LFB2335:
	.loc 3 605 0
	nop
	nop
	nop
	nop
	nop
	nop
	pushl	%ebp
LCFI43:
	movl	%esp, %ebp
LCFI44:
	subl	$40, %esp
LCFI45:
	.loc 3 608 0
	movl	8(%ebp), %eax
	movl	12(%eax), %eax
	movl	%eax, 4(%esp)
	leal	-12(%ebp), %eax
	movl	%eax, (%esp)
	call	__ZNSt17_Rb_tree_iteratorIPN2sf11ResourcePtrINS0_5ImageEEEEC1EPSt13_Rb_tree_nodeIS4_E
	movl	-12(%ebp), %eax
	leave
	ret
LFE2335:
	.align 1
.globl __ZNSt8_Rb_treeIPN2sf11ResourcePtrINS0_5ImageEEES4_St9_IdentityIS4_ESt4lessIS4_ESaIS4_EE3endEv
	.weak_definition __ZNSt8_Rb_treeIPN2sf11ResourcePtrINS0_5ImageEEES4_St9_IdentityIS4_ESt4lessIS4_ESaIS4_EE3endEv
	.private_extern __ZNSt8_Rb_treeIPN2sf11ResourcePtrINS0_5ImageEEES4_St9_IdentityIS4_ESt4lessIS4_ESaIS4_EE3endEv
__ZNSt8_Rb_treeIPN2sf11ResourcePtrINS0_5ImageEEES4_St9_IdentityIS4_ESt4lessIS4_ESaIS4_EE3endEv:
LFB2333:
	.loc 3 619 0
	nop
	nop
	nop
	nop
	nop
	nop
	pushl	%ebp
LCFI46:
	movl	%esp, %ebp
LCFI47:
	subl	$40, %esp
LCFI48:
	.loc 3 620 0
	movl	8(%ebp), %eax
	addl	$4, %eax
	movl	%eax, 4(%esp)
	leal	-12(%ebp), %eax
	movl	%eax, (%esp)
	call	__ZNSt17_Rb_tree_iteratorIPN2sf11ResourcePtrINS0_5ImageEEEEC1EPSt13_Rb_tree_nodeIS4_E
	movl	-12(%ebp), %eax
	leave
	ret
LFE2333:
	.align 1
.globl __ZNSt8_Rb_treeIPN2sf11ResourcePtrINS0_5ImageEEES4_St9_IdentityIS4_ESt4lessIS4_ESaIS4_EE11_M_leftmostEv
	.weak_definition __ZNSt8_Rb_treeIPN2sf11ResourcePtrINS0_5ImageEEES4_St9_IdentityIS4_ESt4lessIS4_ESaIS4_EE11_M_leftmostEv
	.private_extern __ZNSt8_Rb_treeIPN2sf11ResourcePtrINS0_5ImageEEES4_St9_IdentityIS4_ESt4lessIS4_ESaIS4_EE11_M_leftmostEv
__ZNSt8_Rb_treeIPN2sf11ResourcePtrINS0_5ImageEEES4_St9_IdentityIS4_ESt4lessIS4_ESaIS4_EE11_M_leftmostEv:
LFB2356:
	.loc 3 460 0
	nop
	nop
	nop
	nop
	nop
	nop
	pushl	%ebp
LCFI49:
	movl	%esp, %ebp
LCFI50:
	subl	$8, %esp
LCFI51:
	.loc 3 461 0
	movl	8(%ebp), %eax
	addl	$12, %eax
	leave
	ret
LFE2356:
	.align 1
.globl __ZNSt8_Rb_treeIPN2sf11ResourcePtrINS0_5ImageEEES4_St9_IdentityIS4_ESt4lessIS4_ESaIS4_EE7_M_rootEv
	.weak_definition __ZNSt8_Rb_treeIPN2sf11ResourcePtrINS0_5ImageEEES4_St9_IdentityIS4_ESt4lessIS4_ESaIS4_EE7_M_rootEv
	.private_extern __ZNSt8_Rb_treeIPN2sf11ResourcePtrINS0_5ImageEEES4_St9_IdentityIS4_ESt4lessIS4_ESaIS4_EE7_M_rootEv
__ZNSt8_Rb_treeIPN2sf11ResourcePtrINS0_5ImageEEES4_St9_IdentityIS4_ESt4lessIS4_ESaIS4_EE7_M_rootEv:
LFB2357:
	.loc 3 452 0
	nop
	nop
	nop
	nop
	nop
	nop
	pushl	%ebp
LCFI52:
	movl	%esp, %ebp
LCFI53:
	subl	$8, %esp
LCFI54:
	.loc 3 453 0
	movl	8(%ebp), %eax
	addl	$8, %eax
	leave
	ret
LFE2357:
	.align 1
.globl __ZNSt8_Rb_treeIPN2sf11ResourcePtrINS0_5ImageEEES4_St9_IdentityIS4_ESt4lessIS4_ESaIS4_EE12_M_rightmostEv
	.weak_definition __ZNSt8_Rb_treeIPN2sf11ResourcePtrINS0_5ImageEEES4_St9_IdentityIS4_ESt4lessIS4_ESaIS4_EE12_M_rightmostEv
	.private_extern __ZNSt8_Rb_treeIPN2sf11ResourcePtrINS0_5ImageEEES4_St9_IdentityIS4_ESt4lessIS4_ESaIS4_EE12_M_rightmostEv
__ZNSt8_Rb_treeIPN2sf11ResourcePtrINS0_5ImageEEES4_St9_IdentityIS4_ESt4lessIS4_ESaIS4_EE12_M_rightmostEv:
LFB2358:
	.loc 3 468 0
	nop
	nop
	nop
	nop
	nop
	nop
	pushl	%ebp
LCFI55:
	movl	%esp, %ebp
LCFI56:
	subl	$8, %esp
LCFI57:
	.loc 3 469 0
	movl	8(%ebp), %eax
	addl	$16, %eax
	leave
	ret
LFE2358:
.globl __ZNSt8_Rb_treeIPN2sf11ResourcePtrINS0_5ImageEEES4_St9_IdentityIS4_ESt4lessIS4_ESaIS4_EE8_S_valueEPKSt13_Rb_tree_nodeIS4_E
	.weak_definition __ZNSt8_Rb_treeIPN2sf11ResourcePtrINS0_5ImageEEES4_St9_IdentityIS4_ESt4lessIS4_ESaIS4_EE8_S_valueEPKSt13_Rb_tree_nodeIS4_E
	.private_extern __ZNSt8_Rb_treeIPN2sf11ResourcePtrINS0_5ImageEEES4_St9_IdentityIS4_ESt4lessIS4_ESaIS4_EE8_S_valueEPKSt13_Rb_tree_nodeIS4_E
__ZNSt8_Rb_treeIPN2sf11ResourcePtrINS0_5ImageEEES4_St9_IdentityIS4_ESt4lessIS4_ESaIS4_EE8_S_valueEPKSt13_Rb_tree_nodeIS4_E:
LFB2360:
	.loc 3 495 0
	nop
	nop
	nop
	nop
	nop
	nop
	pushl	%ebp
LCFI58:
	movl	%esp, %ebp
LCFI59:
	subl	$8, %esp
LCFI60:
	.loc 3 496 0
	movl	8(%ebp), %eax
	addl	$16, %eax
	leave
	ret
LFE2360:
	.align 1
.globl __ZNKSt9_IdentityIPN2sf11ResourcePtrINS0_5ImageEEEEclERKS4_
	.weak_definition __ZNKSt9_IdentityIPN2sf11ResourcePtrINS0_5ImageEEEEclERKS4_
	.private_extern __ZNKSt9_IdentityIPN2sf11ResourcePtrINS0_5ImageEEEEclERKS4_
__ZNKSt9_IdentityIPN2sf11ResourcePtrINS0_5ImageEEEEclERKS4_:
LFB2361:
	.loc 5 537 0
	nop
	nop
	nop
	nop
	nop
	nop
	pushl	%ebp
LCFI61:
	movl	%esp, %ebp
LCFI62:
	subl	$8, %esp
LCFI63:
	.loc 5 538 0
	movl	12(%ebp), %eax
	leave
	ret
LFE2361:
.globl __ZNSt8_Rb_treeIPN2sf11ResourcePtrINS0_5ImageEEES4_St9_IdentityIS4_ESt4lessIS4_ESaIS4_EE6_S_keyEPKSt13_Rb_tree_nodeIS4_E
	.weak_definition __ZNSt8_Rb_treeIPN2sf11ResourcePtrINS0_5ImageEEES4_St9_IdentityIS4_ESt4lessIS4_ESaIS4_EE6_S_keyEPKSt13_Rb_tree_nodeIS4_E
	.private_extern __ZNSt8_Rb_treeIPN2sf11ResourcePtrINS0_5ImageEEES4_St9_IdentityIS4_ESt4lessIS4_ESaIS4_EE6_S_keyEPKSt13_Rb_tree_nodeIS4_E
__ZNSt8_Rb_treeIPN2sf11ResourcePtrINS0_5ImageEEES4_St9_IdentityIS4_ESt4lessIS4_ESaIS4_EE6_S_keyEPKSt13_Rb_tree_nodeIS4_E:
LFB2342:
	.loc 3 499 0
	nop
	nop
	nop
	nop
	nop
	nop
	pushl	%ebp
LCFI64:
	movl	%esp, %ebp
LCFI65:
	pushl	%esi
LCFI66:
	subl	$36, %esp
LCFI67:
	.loc 3 500 0
	movl	8(%ebp), %eax
	movl	%eax, (%esp)
	call	__ZNSt8_Rb_treeIPN2sf11ResourcePtrINS0_5ImageEEES4_St9_IdentityIS4_ESt4lessIS4_ESaIS4_EE8_S_valueEPKSt13_Rb_tree_nodeIS4_E
	movl	%eax, %esi
	leal	-9(%ebp), %eax
	movl	%eax, (%esp)
	call	__ZNSt9_IdentityIPN2sf11ResourcePtrINS0_5ImageEEEEC1Ev
	movl	%esi, 4(%esp)
	leal	-9(%ebp), %eax
	movl	%eax, (%esp)
	call	__ZNKSt9_IdentityIPN2sf11ResourcePtrINS0_5ImageEEEEclERKS4_
	addl	$36, %esp
	popl	%esi
	leave
	ret
LFE2342:
	.align 1
.globl __ZNSt8_Rb_treeIPN2sf11ResourcePtrINS0_5ImageEEES4_St9_IdentityIS4_ESt4lessIS4_ESaIS4_EE11upper_boundERKS4_
	.weak_definition __ZNSt8_Rb_treeIPN2sf11ResourcePtrINS0_5ImageEEES4_St9_IdentityIS4_ESt4lessIS4_ESaIS4_EE11upper_boundERKS4_
__ZNSt8_Rb_treeIPN2sf11ResourcePtrINS0_5ImageEEES4_St9_IdentityIS4_ESt4lessIS4_ESaIS4_EE11upper_boundERKS4_:
LFB2329:
	.loc 3 1462 0
	nop
	nop
	nop
	nop
	nop
	nop
	pushl	%ebp
LCFI68:
	movl	%esp, %ebp
LCFI69:
	subl	$40, %esp
LCFI70:
LBB7:
	.loc 3 1464 0
	movl	8(%ebp), %eax
	movl	%eax, (%esp)
	call	__ZNSt8_Rb_treeIPN2sf11ResourcePtrINS0_5ImageEEES4_St9_IdentityIS4_ESt4lessIS4_ESaIS4_EE8_M_beginEv
	movl	%eax, -12(%ebp)
	.loc 3 1465 0
	movl	8(%ebp), %eax
	movl	%eax, (%esp)
	call	__ZNSt8_Rb_treeIPN2sf11ResourcePtrINS0_5ImageEEES4_St9_IdentityIS4_ESt4lessIS4_ESaIS4_EE6_M_endEv
	movl	%eax, -16(%ebp)
	.loc 3 1467 0
	jmp	L59
L60:
	.loc 3 1468 0
	movl	-12(%ebp), %eax
	movl	%eax, (%esp)
	call	__ZNSt8_Rb_treeIPN2sf11ResourcePtrINS0_5ImageEEES4_St9_IdentityIS4_ESt4lessIS4_ESaIS4_EE6_S_keyEPKSt13_Rb_tree_nodeIS4_E
	movl	8(%ebp), %edx
	movl	%eax, 8(%esp)
	movl	12(%ebp), %eax
	movl	%eax, 4(%esp)
	movl	%edx, (%esp)
	call	__ZNKSt4lessIPN2sf11ResourcePtrINS0_5ImageEEEEclERKS4_S7_
	testb	%al, %al
	je	L61
	.loc 3 1469 0
	movl	-12(%ebp), %eax
	movl	%eax, -16(%ebp)
	movl	-12(%ebp), %eax
	movl	%eax, (%esp)
	call	__ZNSt8_Rb_treeIPN2sf11ResourcePtrINS0_5ImageEEES4_St9_IdentityIS4_ESt4lessIS4_ESaIS4_EE7_S_leftEPSt18_Rb_tree_node_base
	movl	%eax, -12(%ebp)
	jmp	L59
L61:
	.loc 3 1471 0
	movl	-12(%ebp), %eax
	movl	%eax, (%esp)
	call	__ZNSt8_Rb_treeIPN2sf11ResourcePtrINS0_5ImageEEES4_St9_IdentityIS4_ESt4lessIS4_ESaIS4_EE8_S_rightEPSt18_Rb_tree_node_base
	movl	%eax, -12(%ebp)
L59:
	.loc 3 1467 0
	cmpl	$0, -12(%ebp)
	jne	L60
	.loc 3 1473 0
	movl	-16(%ebp), %eax
	movl	%eax, 4(%esp)
	leal	-20(%ebp), %eax
	movl	%eax, (%esp)
	call	__ZNSt17_Rb_tree_iteratorIPN2sf11ResourcePtrINS0_5ImageEEEEC1EPSt13_Rb_tree_nodeIS4_E
	movl	-20(%ebp), %eax
LBE7:
	leave
	ret
LFE2329:
	.align 1
.globl __ZNSt8_Rb_treeIPN2sf11ResourcePtrINS0_5ImageEEES4_St9_IdentityIS4_ESt4lessIS4_ESaIS4_EE11lower_boundERKS4_
	.weak_definition __ZNSt8_Rb_treeIPN2sf11ResourcePtrINS0_5ImageEEES4_St9_IdentityIS4_ESt4lessIS4_ESaIS4_EE11lower_boundERKS4_
__ZNSt8_Rb_treeIPN2sf11ResourcePtrINS0_5ImageEEES4_St9_IdentityIS4_ESt4lessIS4_ESaIS4_EE11lower_boundERKS4_:
LFB2328:
	.loc 3 1426 0
	nop
	nop
	nop
	nop
	nop
	nop
	pushl	%ebp
LCFI71:
	movl	%esp, %ebp
LCFI72:
	subl	$40, %esp
LCFI73:
LBB8:
	.loc 3 1428 0
	movl	8(%ebp), %eax
	movl	%eax, (%esp)
	call	__ZNSt8_Rb_treeIPN2sf11ResourcePtrINS0_5ImageEEES4_St9_IdentityIS4_ESt4lessIS4_ESaIS4_EE8_M_beginEv
	movl	%eax, -12(%ebp)
	.loc 3 1429 0
	movl	8(%ebp), %eax
	movl	%eax, (%esp)
	call	__ZNSt8_Rb_treeIPN2sf11ResourcePtrINS0_5ImageEEES4_St9_IdentityIS4_ESt4lessIS4_ESaIS4_EE6_M_endEv
	movl	%eax, -16(%ebp)
	.loc 3 1431 0
	jmp	L66
L67:
	.loc 3 1432 0
	movl	-12(%ebp), %eax
	movl	%eax, (%esp)
	call	__ZNSt8_Rb_treeIPN2sf11ResourcePtrINS0_5ImageEEES4_St9_IdentityIS4_ESt4lessIS4_ESaIS4_EE6_S_keyEPKSt13_Rb_tree_nodeIS4_E
	movl	%eax, %edx
	movl	8(%ebp), %ecx
	movl	12(%ebp), %eax
	movl	%eax, 8(%esp)
	movl	%edx, 4(%esp)
	movl	%ecx, (%esp)
	call	__ZNKSt4lessIPN2sf11ResourcePtrINS0_5ImageEEEEclERKS4_S7_
	xorl	$1, %eax
	testb	%al, %al
	je	L68
	.loc 3 1433 0
	movl	-12(%ebp), %eax
	movl	%eax, -16(%ebp)
	movl	-12(%ebp), %eax
	movl	%eax, (%esp)
	call	__ZNSt8_Rb_treeIPN2sf11ResourcePtrINS0_5ImageEEES4_St9_IdentityIS4_ESt4lessIS4_ESaIS4_EE7_S_leftEPSt18_Rb_tree_node_base
	movl	%eax, -12(%ebp)
	jmp	L66
L68:
	.loc 3 1435 0
	movl	-12(%ebp), %eax
	movl	%eax, (%esp)
	call	__ZNSt8_Rb_treeIPN2sf11ResourcePtrINS0_5ImageEEES4_St9_IdentityIS4_ESt4lessIS4_ESaIS4_EE8_S_rightEPSt18_Rb_tree_node_base
	movl	%eax, -12(%ebp)
L66:
	.loc 3 1431 0
	cmpl	$0, -12(%ebp)
	jne	L67
	.loc 3 1437 0
	movl	-16(%ebp), %eax
	movl	%eax, 4(%esp)
	leal	-20(%ebp), %eax
	movl	%eax, (%esp)
	call	__ZNSt17_Rb_tree_iteratorIPN2sf11ResourcePtrINS0_5ImageEEEEC1EPSt13_Rb_tree_nodeIS4_E
	movl	-20(%ebp), %eax
LBE8:
	leave
	ret
LFE2328:
	.align 1
.globl __ZNSt8_Rb_treeIPN2sf11ResourcePtrINS0_5ImageEEES4_St9_IdentityIS4_ESt4lessIS4_ESaIS4_EE11equal_rangeERKS4_
	.weak_definition __ZNSt8_Rb_treeIPN2sf11ResourcePtrINS0_5ImageEEES4_St9_IdentityIS4_ESt4lessIS4_ESaIS4_EE11equal_rangeERKS4_
	.private_extern __ZNSt8_Rb_treeIPN2sf11ResourcePtrINS0_5ImageEEES4_St9_IdentityIS4_ESt4lessIS4_ESaIS4_EE11equal_rangeERKS4_
__ZNSt8_Rb_treeIPN2sf11ResourcePtrINS0_5ImageEEES4_St9_IdentityIS4_ESt4lessIS4_ESaIS4_EE11equal_rangeERKS4_:
LFB2325:
	.loc 3 1501 0
	nop
	nop
	nop
	nop
	nop
	nop
	pushl	%ebp
LCFI74:
	movl	%esp, %ebp
LCFI75:
	subl	$40, %esp
LCFI76:
	.loc 3 1502 0
	movl	12(%ebp), %eax
	movl	%eax, 4(%esp)
	movl	8(%ebp), %eax
	movl	%eax, (%esp)
	call	__ZNSt8_Rb_treeIPN2sf11ResourcePtrINS0_5ImageEEES4_St9_IdentityIS4_ESt4lessIS4_ESaIS4_EE11upper_boundERKS4_
	movl	%eax, -16(%ebp)
	movl	12(%ebp), %eax
	movl	%eax, 4(%esp)
	movl	8(%ebp), %eax
	movl	%eax, (%esp)
	call	__ZNSt8_Rb_treeIPN2sf11ResourcePtrINS0_5ImageEEES4_St9_IdentityIS4_ESt4lessIS4_ESaIS4_EE11lower_boundERKS4_
	movl	%eax, -12(%ebp)
	leal	-16(%ebp), %eax
	movl	%eax, 8(%esp)
	leal	-12(%ebp), %eax
	movl	%eax, 4(%esp)
	leal	-24(%ebp), %eax
	movl	%eax, (%esp)
	call	__ZNSt4pairISt17_Rb_tree_iteratorIPN2sf11ResourcePtrINS1_5ImageEEEES6_EC1ERKS6_S9_
	movl	-24(%ebp), %eax
	movl	-20(%ebp), %edx
	leave
	ret
LFE2325:
	.align 1
.globl __ZN9__gnu_cxx13new_allocatorIPN2sf11ResourcePtrINS1_5ImageEEEE7destroyEPS5_
	.weak_definition __ZN9__gnu_cxx13new_allocatorIPN2sf11ResourcePtrINS1_5ImageEEEE7destroyEPS5_
	.private_extern __ZN9__gnu_cxx13new_allocatorIPN2sf11ResourcePtrINS1_5ImageEEEE7destroyEPS5_
__ZN9__gnu_cxx13new_allocatorIPN2sf11ResourcePtrINS1_5ImageEEEE7destroyEPS5_:
LFB2366:
	.file 6 "/usr/include/c++/4.2.1/ext/new_allocator.h"
	.loc 6 110 0
	nop
	nop
	nop
	nop
	nop
	nop
	pushl	%ebp
LCFI77:
	movl	%esp, %ebp
LCFI78:
	subl	$8, %esp
LCFI79:
	.loc 6 110 0
	leave
	ret
LFE2366:
	.align 1
.globl __ZNKSt8_Rb_treeIPN2sf11ResourcePtrINS0_5ImageEEES4_St9_IdentityIS4_ESt4lessIS4_ESaIS4_EE21_M_get_Node_allocatorEv
	.weak_definition __ZNKSt8_Rb_treeIPN2sf11ResourcePtrINS0_5ImageEEES4_St9_IdentityIS4_ESt4lessIS4_ESaIS4_EE21_M_get_Node_allocatorEv
	.private_extern __ZNKSt8_Rb_treeIPN2sf11ResourcePtrINS0_5ImageEEES4_St9_IdentityIS4_ESt4lessIS4_ESaIS4_EE21_M_get_Node_allocatorEv
__ZNKSt8_Rb_treeIPN2sf11ResourcePtrINS0_5ImageEEES4_St9_IdentityIS4_ESt4lessIS4_ESaIS4_EE21_M_get_Node_allocatorEv:
LFB2368:
	.loc 3 359 0
	nop
	nop
	nop
	nop
	nop
	nop
	pushl	%ebp
LCFI80:
	movl	%esp, %ebp
LCFI81:
	subl	$8, %esp
LCFI82:
	.loc 3 360 0
	movl	8(%ebp), %eax
	leave
	ret
LFE2368:
	.align 1
.globl __ZN9__gnu_cxx13new_allocatorIPN2sf11ResourcePtrINS1_5ImageEEEED2Ev
	.weak_definition __ZN9__gnu_cxx13new_allocatorIPN2sf11ResourcePtrINS1_5ImageEEEED2Ev
	.private_extern __ZN9__gnu_cxx13new_allocatorIPN2sf11ResourcePtrINS1_5ImageEEEED2Ev
__ZN9__gnu_cxx13new_allocatorIPN2sf11ResourcePtrINS1_5ImageEEEED2Ev:
LFB2376:
	.loc 6 75 0
	nop
	nop
	nop
	nop
	nop
	nop
	pushl	%ebp
LCFI83:
	movl	%esp, %ebp
LCFI84:
	subl	$8, %esp
LCFI85:
	.loc 6 75 0
	leave
	ret
LFE2376:
	.align 1
.globl __ZNSaIPN2sf11ResourcePtrINS_5ImageEEEED1Ev
	.weak_definition __ZNSaIPN2sf11ResourcePtrINS_5ImageEEEED1Ev
	.private_extern __ZNSaIPN2sf11ResourcePtrINS_5ImageEEEED1Ev
__ZNSaIPN2sf11ResourcePtrINS_5ImageEEEED1Ev:
LFB2365:
	.file 7 "/usr/include/c++/4.2.1/bits/allocator.h"
	.loc 7 108 0
	nop
	nop
	nop
	nop
	nop
	nop
	pushl	%ebp
LCFI86:
	movl	%esp, %ebp
LCFI87:
	subl	$24, %esp
LCFI88:
	.loc 7 108 0
	movl	8(%ebp), %eax
	movl	%eax, (%esp)
	call	__ZN9__gnu_cxx13new_allocatorIPN2sf11ResourcePtrINS1_5ImageEEEED2Ev
	leave
	ret
LFE2365:
	.align 1
.globl __ZN9__gnu_cxx13new_allocatorIPN2sf11ResourcePtrINS1_5ImageEEEEC2Ev
	.weak_definition __ZN9__gnu_cxx13new_allocatorIPN2sf11ResourcePtrINS1_5ImageEEEEC2Ev
	.private_extern __ZN9__gnu_cxx13new_allocatorIPN2sf11ResourcePtrINS1_5ImageEEEEC2Ev
__ZN9__gnu_cxx13new_allocatorIPN2sf11ResourcePtrINS1_5ImageEEEEC2Ev:
LFB2380:
	.loc 6 68 0
	nop
	nop
	nop
	nop
	nop
	nop
	pushl	%ebp
LCFI89:
	movl	%esp, %ebp
LCFI90:
	subl	$8, %esp
LCFI91:
	.loc 6 68 0
	leave
	ret
LFE2380:
	.align 1
.globl __ZNSaIPN2sf11ResourcePtrINS_5ImageEEEEC1ISt13_Rb_tree_nodeIS3_EEERKSaIT_E
	.weak_definition __ZNSaIPN2sf11ResourcePtrINS_5ImageEEEEC1ISt13_Rb_tree_nodeIS3_EEERKSaIT_E
	.private_extern __ZNSaIPN2sf11ResourcePtrINS_5ImageEEEEC1ISt13_Rb_tree_nodeIS3_EEERKSaIT_E
__ZNSaIPN2sf11ResourcePtrINS_5ImageEEEEC1ISt13_Rb_tree_nodeIS3_EEERKSaIT_E:
LFB2371:
	.loc 7 106 0
	nop
	nop
	nop
	nop
	nop
	nop
	pushl	%ebp
LCFI92:
	movl	%esp, %ebp
LCFI93:
	subl	$24, %esp
LCFI94:
	.loc 7 106 0
	movl	8(%ebp), %eax
	movl	%eax, (%esp)
	call	__ZN9__gnu_cxx13new_allocatorIPN2sf11ResourcePtrINS1_5ImageEEEEC2Ev
	leave
	ret
LFE2371:
	.align 1
.globl __ZNKSt8_Rb_treeIPN2sf11ResourcePtrINS0_5ImageEEES4_St9_IdentityIS4_ESt4lessIS4_ESaIS4_EE13get_allocatorEv
	.weak_definition __ZNKSt8_Rb_treeIPN2sf11ResourcePtrINS0_5ImageEEES4_St9_IdentityIS4_ESt4lessIS4_ESaIS4_EE13get_allocatorEv
	.private_extern __ZNKSt8_Rb_treeIPN2sf11ResourcePtrINS0_5ImageEEES4_St9_IdentityIS4_ESt4lessIS4_ESaIS4_EE13get_allocatorEv
__ZNKSt8_Rb_treeIPN2sf11ResourcePtrINS0_5ImageEEES4_St9_IdentityIS4_ESt4lessIS4_ESaIS4_EE13get_allocatorEv:
LFB2362:
	.loc 3 363 0
	nop
	nop
	nop
	nop
	nop
	nop
	pushl	%ebp
LCFI95:
	movl	%esp, %ebp
LCFI96:
	pushl	%edi
LCFI97:
	pushl	%esi
LCFI98:
	subl	$16, %esp
LCFI99:
	movl	8(%ebp), %esi
	.loc 3 364 0
	movl	%esi, %edi
	movl	12(%ebp), %eax
	movl	%eax, (%esp)
	call	__ZNKSt8_Rb_treeIPN2sf11ResourcePtrINS0_5ImageEEES4_St9_IdentityIS4_ESt4lessIS4_ESaIS4_EE21_M_get_Node_allocatorEv
	movl	%eax, 4(%esp)
	movl	%edi, (%esp)
	call	__ZNSaIPN2sf11ResourcePtrINS_5ImageEEEEC1ISt13_Rb_tree_nodeIS3_EEERKSaIT_E
	movl	%esi, %eax
	addl	$16, %esp
	popl	%esi
	popl	%edi
	leave
	ret	$4
LFE2362:
	.section __TEXT,__StaticInit,regular,pure_instructions
__Z41__static_initialization_and_destruction_0ii:
LFB2385:
	.file 8 "/Users/adrien/Programmation/C++/Untitled/fonctions.cpp"
	.loc 8 63 0
	nop
	nop
	nop
	nop
	nop
	nop
	pushl	%ebp
LCFI100:
	movl	%esp, %ebp
LCFI101:
	pushl	%ebx
LCFI102:
	subl	$20, %esp
LCFI103:
	call	L95
"L00000000001$pb":
L95:
	popl	%ebx
	.loc 8 63 0
	cmpl	$1, 8(%ebp)
	jne	L94
	cmpl	$65535, 12(%ebp)
	jne	L94
	.file 9 "/usr/include/c++/4.2.1/iostream"
	.loc 9 77 0
	leal	L__ZStL8__ioinit$non_lazy_ptr-"L00000000001$pb"(%ebx), %eax
	movl	(%eax), %eax
	movl	%eax, (%esp)
	call	__ZNSt8ios_base4InitC1Ev
	leal	L___dso_handle$non_lazy_ptr-"L00000000001$pb"(%ebx), %eax
	movl	(%eax), %eax
	movl	%eax, 8(%esp)
	movl	$0, 4(%esp)
	leal	L___tcf_0$non_lazy_ptr-"L00000000001$pb"(%ebx), %eax
	movl	(%eax), %eax
	movl	%eax, (%esp)
	call	___cxa_atexit
L94:
	.loc 8 63 0
	addl	$20, %esp
	popl	%ebx
	leave
	ret
LFE2385:
__GLOBAL__I__Z20Afficher_case_centreRN2sf12RenderWindowE:
LFB2387:
	.loc 8 64 0
	nop
	nop
	nop
	nop
	nop
	nop
	pushl	%ebp
LCFI104:
	movl	%esp, %ebp
LCFI105:
	subl	$24, %esp
LCFI106:
	.loc 8 64 0
	movl	$65535, 4(%esp)
	movl	$1, (%esp)
	call	__Z41__static_initialization_and_destruction_0ii
	leave
	ret
LFE2387:
	.text
___tcf_0:
LFB2386:
	.loc 9 77 0
	nop
	nop
	nop
	nop
	nop
	nop
	pushl	%ebp
LCFI107:
	movl	%esp, %ebp
LCFI108:
	pushl	%ebx
LCFI109:
	subl	$20, %esp
LCFI110:
	call	L100
"L00000000002$pb":
L100:
	popl	%ebx
	.loc 9 77 0
	leal	L__ZStL8__ioinit$non_lazy_ptr-"L00000000002$pb"(%ebx), %eax
	movl	(%eax), %eax
	movl	%eax, (%esp)
	call	__ZNSt8ios_base4InitD1Ev
	addl	$20, %esp
	popl	%ebx
	leave
	ret
LFE2386:
	.section __TEXT,__textcoal_nt,coalesced,pure_instructions
	.align 1
.globl __ZN9__gnu_cxx13new_allocatorISt13_Rb_tree_nodeIPN2sf11ResourcePtrINS2_5ImageEEEEE10deallocateEPS7_m
	.weak_definition __ZN9__gnu_cxx13new_allocatorISt13_Rb_tree_nodeIPN2sf11ResourcePtrINS2_5ImageEEEEE10deallocateEPS7_m
	.private_extern __ZN9__gnu_cxx13new_allocatorISt13_Rb_tree_nodeIPN2sf11ResourcePtrINS2_5ImageEEEEE10deallocateEPS7_m
__ZN9__gnu_cxx13new_allocatorISt13_Rb_tree_nodeIPN2sf11ResourcePtrINS2_5ImageEEEEE10deallocateEPS7_m:
LFB2378:
	.loc 6 96 0
	nop
	nop
	nop
	nop
	nop
	nop
	pushl	%ebp
LCFI111:
	movl	%esp, %ebp
LCFI112:
	subl	$24, %esp
LCFI113:
	.loc 6 97 0
	movl	12(%ebp), %eax
	movl	%eax, (%esp)
	call	__ZdlPv
	leave
	ret
LFE2378:
	.align 1
.globl __ZNSt8_Rb_treeIPN2sf11ResourcePtrINS0_5ImageEEES4_St9_IdentityIS4_ESt4lessIS4_ESaIS4_EE11_M_put_nodeEPSt13_Rb_tree_nodeIS4_E
	.weak_definition __ZNSt8_Rb_treeIPN2sf11ResourcePtrINS0_5ImageEEES4_St9_IdentityIS4_ESt4lessIS4_ESaIS4_EE11_M_put_nodeEPSt13_Rb_tree_nodeIS4_E
	.private_extern __ZNSt8_Rb_treeIPN2sf11ResourcePtrINS0_5ImageEEES4_St9_IdentityIS4_ESt4lessIS4_ESaIS4_EE11_M_put_nodeEPSt13_Rb_tree_nodeIS4_E
__ZNSt8_Rb_treeIPN2sf11ResourcePtrINS0_5ImageEEES4_St9_IdentityIS4_ESt4lessIS4_ESaIS4_EE11_M_put_nodeEPSt13_Rb_tree_nodeIS4_E:
LFB2367:
	.loc 3 372 0
	nop
	nop
	nop
	nop
	nop
	nop
	pushl	%ebp
LCFI114:
	movl	%esp, %ebp
LCFI115:
	subl	$24, %esp
LCFI116:
	.loc 3 373 0
	movl	8(%ebp), %eax
	movl	%eax, %edx
	movl	$1, 8(%esp)
	movl	12(%ebp), %eax
	movl	%eax, 4(%esp)
	movl	%edx, (%esp)
	call	__ZN9__gnu_cxx13new_allocatorISt13_Rb_tree_nodeIPN2sf11ResourcePtrINS2_5ImageEEEEE10deallocateEPS7_m
	leave
	ret
LFE2367:
	.align 1
.globl __ZNSt8_Rb_treeIPN2sf11ResourcePtrINS0_5ImageEEES4_St9_IdentityIS4_ESt4lessIS4_ESaIS4_EE15_M_destroy_nodeEPSt13_Rb_tree_nodeIS4_E
	.weak_definition __ZNSt8_Rb_treeIPN2sf11ResourcePtrINS0_5ImageEEES4_St9_IdentityIS4_ESt4lessIS4_ESaIS4_EE15_M_destroy_nodeEPSt13_Rb_tree_nodeIS4_E
	.private_extern __ZNSt8_Rb_treeIPN2sf11ResourcePtrINS0_5ImageEEES4_St9_IdentityIS4_ESt4lessIS4_ESaIS4_EE15_M_destroy_nodeEPSt13_Rb_tree_nodeIS4_E
__ZNSt8_Rb_treeIPN2sf11ResourcePtrINS0_5ImageEEES4_St9_IdentityIS4_ESt4lessIS4_ESaIS4_EE15_M_destroy_nodeEPSt13_Rb_tree_nodeIS4_E:
LFB2359:
	.loc 3 400 0
	nop
	nop
	nop
	nop
	nop
	nop
	pushl	%ebp
LCFI117:
	movl	%esp, %ebp
LCFI118:
	pushl	%esi
LCFI119:
	subl	$36, %esp
LCFI120:
	.loc 3 402 0
	movl	12(%ebp), %esi
	addl	$16, %esi
	leal	-9(%ebp), %edx
	movl	8(%ebp), %eax
	movl	%eax, 4(%esp)
	movl	%edx, (%esp)
	call	__ZNKSt8_Rb_treeIPN2sf11ResourcePtrINS0_5ImageEEES4_St9_IdentityIS4_ESt4lessIS4_ESaIS4_EE13get_allocatorEv
	subl	$4, %esp
	leal	-9(%ebp), %eax
	movl	%esi, 4(%esp)
	movl	%eax, (%esp)
	call	__ZN9__gnu_cxx13new_allocatorIPN2sf11ResourcePtrINS1_5ImageEEEE7destroyEPS5_
	leal	-9(%ebp), %eax
	movl	%eax, (%esp)
	call	__ZNSaIPN2sf11ResourcePtrINS_5ImageEEEED1Ev
	.loc 3 403 0
	movl	12(%ebp), %eax
	movl	%eax, 4(%esp)
	movl	8(%ebp), %eax
	movl	%eax, (%esp)
	call	__ZNSt8_Rb_treeIPN2sf11ResourcePtrINS0_5ImageEEES4_St9_IdentityIS4_ESt4lessIS4_ESaIS4_EE11_M_put_nodeEPSt13_Rb_tree_nodeIS4_E
	movl	-4(%ebp), %esi
	leave
	ret
LFE2359:
	.align 1
.globl __ZNSt8_Rb_treeIPN2sf11ResourcePtrINS0_5ImageEEES4_St9_IdentityIS4_ESt4lessIS4_ESaIS4_EE8_M_eraseEPSt13_Rb_tree_nodeIS4_E
	.weak_definition __ZNSt8_Rb_treeIPN2sf11ResourcePtrINS0_5ImageEEES4_St9_IdentityIS4_ESt4lessIS4_ESaIS4_EE8_M_eraseEPSt13_Rb_tree_nodeIS4_E
__ZNSt8_Rb_treeIPN2sf11ResourcePtrINS0_5ImageEEES4_St9_IdentityIS4_ESt4lessIS4_ESaIS4_EE8_M_eraseEPSt13_Rb_tree_nodeIS4_E:
LFB2355:
	.loc 3 1320 0
	nop
	nop
	nop
	nop
	nop
	nop
	pushl	%ebp
LCFI121:
	movl	%esp, %ebp
LCFI122:
	subl	$40, %esp
LCFI123:
LBB9:
LBB10:
	.loc 3 1323 0
	jmp	L108
L109:
	.loc 3 1325 0
	movl	12(%ebp), %eax
	movl	%eax, (%esp)
	call	__ZNSt8_Rb_treeIPN2sf11ResourcePtrINS0_5ImageEEES4_St9_IdentityIS4_ESt4lessIS4_ESaIS4_EE8_S_rightEPSt18_Rb_tree_node_base
	movl	%eax, 4(%esp)
	movl	8(%ebp), %eax
	movl	%eax, (%esp)
	call	__ZNSt8_Rb_treeIPN2sf11ResourcePtrINS0_5ImageEEES4_St9_IdentityIS4_ESt4lessIS4_ESaIS4_EE8_M_eraseEPSt13_Rb_tree_nodeIS4_E
	.loc 3 1326 0
	movl	12(%ebp), %eax
	movl	%eax, (%esp)
	call	__ZNSt8_Rb_treeIPN2sf11ResourcePtrINS0_5ImageEEES4_St9_IdentityIS4_ESt4lessIS4_ESaIS4_EE7_S_leftEPSt18_Rb_tree_node_base
	movl	%eax, -12(%ebp)
	.loc 3 1327 0
	movl	12(%ebp), %eax
	movl	%eax, 4(%esp)
	movl	8(%ebp), %eax
	movl	%eax, (%esp)
	call	__ZNSt8_Rb_treeIPN2sf11ResourcePtrINS0_5ImageEEES4_St9_IdentityIS4_ESt4lessIS4_ESaIS4_EE15_M_destroy_nodeEPSt13_Rb_tree_nodeIS4_E
	.loc 3 1328 0
	movl	-12(%ebp), %eax
	movl	%eax, 12(%ebp)
L108:
LBE10:
	.loc 3 1323 0
	cmpl	$0, 12(%ebp)
	jne	L109
LBE9:
	.loc 3 1328 0
	leave
	ret
LFE2355:
	.align 1
.globl __ZNSt8_Rb_treeIPN2sf11ResourcePtrINS0_5ImageEEES4_St9_IdentityIS4_ESt4lessIS4_ESaIS4_EE5clearEv
	.weak_definition __ZNSt8_Rb_treeIPN2sf11ResourcePtrINS0_5ImageEEES4_St9_IdentityIS4_ESt4lessIS4_ESaIS4_EE5clearEv
	.private_extern __ZNSt8_Rb_treeIPN2sf11ResourcePtrINS0_5ImageEEES4_St9_IdentityIS4_ESt4lessIS4_ESaIS4_EE5clearEv
__ZNSt8_Rb_treeIPN2sf11ResourcePtrINS0_5ImageEEES4_St9_IdentityIS4_ESt4lessIS4_ESaIS4_EE5clearEv:
LFB2336:
	.loc 3 711 0
	nop
	nop
	nop
	nop
	nop
	nop
	pushl	%ebp
LCFI124:
	movl	%esp, %ebp
LCFI125:
	pushl	%esi
LCFI126:
	subl	$20, %esp
LCFI127:
	.loc 3 713 0
	movl	8(%ebp), %eax
	movl	%eax, (%esp)
	call	__ZNSt8_Rb_treeIPN2sf11ResourcePtrINS0_5ImageEEES4_St9_IdentityIS4_ESt4lessIS4_ESaIS4_EE8_M_beginEv
	movl	%eax, 4(%esp)
	movl	8(%ebp), %eax
	movl	%eax, (%esp)
	call	__ZNSt8_Rb_treeIPN2sf11ResourcePtrINS0_5ImageEEES4_St9_IdentityIS4_ESt4lessIS4_ESaIS4_EE8_M_eraseEPSt13_Rb_tree_nodeIS4_E
	.loc 3 714 0
	movl	8(%ebp), %eax
	movl	%eax, (%esp)
	call	__ZNSt8_Rb_treeIPN2sf11ResourcePtrINS0_5ImageEEES4_St9_IdentityIS4_ESt4lessIS4_ESaIS4_EE11_M_leftmostEv
	movl	%eax, %esi
	movl	8(%ebp), %eax
	movl	%eax, (%esp)
	call	__ZNSt8_Rb_treeIPN2sf11ResourcePtrINS0_5ImageEEES4_St9_IdentityIS4_ESt4lessIS4_ESaIS4_EE6_M_endEv
	movl	%eax, (%esi)
	.loc 3 715 0
	movl	8(%ebp), %eax
	movl	%eax, (%esp)
	call	__ZNSt8_Rb_treeIPN2sf11ResourcePtrINS0_5ImageEEES4_St9_IdentityIS4_ESt4lessIS4_ESaIS4_EE7_M_rootEv
	movl	$0, (%eax)
	.loc 3 716 0
	movl	8(%ebp), %eax
	movl	%eax, (%esp)
	call	__ZNSt8_Rb_treeIPN2sf11ResourcePtrINS0_5ImageEEES4_St9_IdentityIS4_ESt4lessIS4_ESaIS4_EE12_M_rightmostEv
	movl	%eax, %esi
	movl	8(%ebp), %eax
	movl	%eax, (%esp)
	call	__ZNSt8_Rb_treeIPN2sf11ResourcePtrINS0_5ImageEEES4_St9_IdentityIS4_ESt4lessIS4_ESaIS4_EE6_M_endEv
	movl	%eax, (%esi)
	.loc 3 717 0
	movl	8(%ebp), %eax
	movl	$0, 20(%eax)
	addl	$20, %esp
	popl	%esi
	leave
	ret
LFE2336:
	.align 1
.globl __ZNSt17_Rb_tree_iteratorIPN2sf11ResourcePtrINS0_5ImageEEEEppEi
	.weak_definition __ZNSt17_Rb_tree_iteratorIPN2sf11ResourcePtrINS0_5ImageEEEEppEi
	.private_extern __ZNSt17_Rb_tree_iteratorIPN2sf11ResourcePtrINS0_5ImageEEEEppEi
__ZNSt17_Rb_tree_iteratorIPN2sf11ResourcePtrINS0_5ImageEEEEppEi:
LFB2338:
	.loc 3 190 0
	nop
	nop
	nop
	nop
	nop
	nop
	pushl	%ebp
LCFI128:
	movl	%esp, %ebp
LCFI129:
	subl	$40, %esp
LCFI130:
LBB11:
	.loc 3 192 0
	movl	8(%ebp), %eax
	movl	(%eax), %eax
	movl	%eax, -12(%ebp)
	.loc 3 193 0
	movl	8(%ebp), %eax
	movl	(%eax), %eax
	movl	%eax, (%esp)
	call	__ZSt18_Rb_tree_incrementPSt18_Rb_tree_node_base
	movl	%eax, %edx
	movl	8(%ebp), %eax
	movl	%edx, (%eax)
	.loc 3 194 0
	movl	-12(%ebp), %eax
LBE11:
	leave
	ret
LFE2338:
	.align 1
.globl __ZNSt8_Rb_treeIPN2sf11ResourcePtrINS0_5ImageEEES4_St9_IdentityIS4_ESt4lessIS4_ESaIS4_EE5eraseESt17_Rb_tree_iteratorIS4_E
	.weak_definition __ZNSt8_Rb_treeIPN2sf11ResourcePtrINS0_5ImageEEES4_St9_IdentityIS4_ESt4lessIS4_ESaIS4_EE5eraseESt17_Rb_tree_iteratorIS4_E
	.private_extern __ZNSt8_Rb_treeIPN2sf11ResourcePtrINS0_5ImageEEES4_St9_IdentityIS4_ESt4lessIS4_ESaIS4_EE5eraseESt17_Rb_tree_iteratorIS4_E
__ZNSt8_Rb_treeIPN2sf11ResourcePtrINS0_5ImageEEES4_St9_IdentityIS4_ESt4lessIS4_ESaIS4_EE5eraseESt17_Rb_tree_iteratorIS4_E:
LFB2339:
	.loc 3 1244 0
	nop
	nop
	nop
	nop
	nop
	nop
	pushl	%ebp
LCFI131:
	movl	%esp, %ebp
LCFI132:
	subl	$40, %esp
LCFI133:
LBB12:
	.loc 3 1249 0
	movl	8(%ebp), %eax
	addl	$4, %eax
	movl	12(%ebp), %edx
	movl	%eax, 4(%esp)
	movl	%edx, (%esp)
	call	__ZSt28_Rb_tree_rebalance_for_erasePSt18_Rb_tree_node_baseRS_
	movl	%eax, -12(%ebp)
	.loc 3 1250 0
	movl	-12(%ebp), %eax
	movl	%eax, 4(%esp)
	movl	8(%ebp), %eax
	movl	%eax, (%esp)
	call	__ZNSt8_Rb_treeIPN2sf11ResourcePtrINS0_5ImageEEES4_St9_IdentityIS4_ESt4lessIS4_ESaIS4_EE15_M_destroy_nodeEPSt13_Rb_tree_nodeIS4_E
	.loc 3 1251 0
	movl	8(%ebp), %eax
	movl	20(%eax), %eax
	leal	-1(%eax), %edx
	movl	8(%ebp), %eax
	movl	%edx, 20(%eax)
LBE12:
	leave
	ret
LFE2339:
	.align 1
.globl __ZNSt8_Rb_treeIPN2sf11ResourcePtrINS0_5ImageEEES4_St9_IdentityIS4_ESt4lessIS4_ESaIS4_EE5eraseESt17_Rb_tree_iteratorIS4_ESC_
	.weak_definition __ZNSt8_Rb_treeIPN2sf11ResourcePtrINS0_5ImageEEES4_St9_IdentityIS4_ESt4lessIS4_ESaIS4_EE5eraseESt17_Rb_tree_iteratorIS4_ESC_
__ZNSt8_Rb_treeIPN2sf11ResourcePtrINS0_5ImageEEES4_St9_IdentityIS4_ESt4lessIS4_ESaIS4_EE5eraseESt17_Rb_tree_iteratorIS4_ESC_:
LFB2327:
	.loc 3 1336 0
	nop
	nop
	nop
	nop
	nop
	nop
	pushl	%ebp
LCFI134:
	movl	%esp, %ebp
LCFI135:
	subl	$56, %esp
LCFI136:
	.loc 3 1338 0
	movl	8(%ebp), %eax
	movl	%eax, (%esp)
	call	__ZNSt8_Rb_treeIPN2sf11ResourcePtrINS0_5ImageEEES4_St9_IdentityIS4_ESt4lessIS4_ESaIS4_EE5beginEv
	movl	%eax, -16(%ebp)
	leal	-16(%ebp), %eax
	movl	%eax, 4(%esp)
	leal	12(%ebp), %eax
	movl	%eax, (%esp)
	call	__ZNKSt17_Rb_tree_iteratorIPN2sf11ResourcePtrINS0_5ImageEEEEeqERKS5_
	xorl	$1, %eax
	testb	%al, %al
	jne	L119
	movl	8(%ebp), %eax
	movl	%eax, (%esp)
	call	__ZNSt8_Rb_treeIPN2sf11ResourcePtrINS0_5ImageEEES4_St9_IdentityIS4_ESt4lessIS4_ESaIS4_EE3endEv
	movl	%eax, -12(%ebp)
	leal	-12(%ebp), %eax
	movl	%eax, 4(%esp)
	leal	16(%ebp), %eax
	movl	%eax, (%esp)
	call	__ZNKSt17_Rb_tree_iteratorIPN2sf11ResourcePtrINS0_5ImageEEEEeqERKS5_
	xorl	$1, %eax
	testb	%al, %al
	jne	L119
	movb	$1, -25(%ebp)
	jmp	L122
L119:
	movb	$0, -25(%ebp)
L122:
	movzbl	-25(%ebp), %eax
	testb	%al, %al
	je	L126
	.loc 3 1339 0
	movl	8(%ebp), %eax
	movl	%eax, (%esp)
	call	__ZNSt8_Rb_treeIPN2sf11ResourcePtrINS0_5ImageEEES4_St9_IdentityIS4_ESt4lessIS4_ESaIS4_EE5clearEv
	jmp	L128
L127:
	.loc 3 1342 0
	movl	$0, 4(%esp)
	leal	12(%ebp), %eax
	movl	%eax, (%esp)
	call	__ZNSt17_Rb_tree_iteratorIPN2sf11ResourcePtrINS0_5ImageEEEEppEi
	movl	%eax, 4(%esp)
	movl	8(%ebp), %eax
	movl	%eax, (%esp)
	call	__ZNSt8_Rb_treeIPN2sf11ResourcePtrINS0_5ImageEEES4_St9_IdentityIS4_ESt4lessIS4_ESaIS4_EE5eraseESt17_Rb_tree_iteratorIS4_E
L126:
	.loc 3 1341 0
	leal	16(%ebp), %eax
	movl	%eax, 4(%esp)
	leal	12(%ebp), %eax
	movl	%eax, (%esp)
	call	__ZNKSt17_Rb_tree_iteratorIPN2sf11ResourcePtrINS0_5ImageEEEEneERKS5_
	testb	%al, %al
	jne	L127
L128:
	.loc 3 1342 0
	leave
	ret
LFE2327:
	.align 1
.globl __ZNSt8_Rb_treeIPN2sf11ResourcePtrINS0_5ImageEEES4_St9_IdentityIS4_ESt4lessIS4_ESaIS4_EE5eraseERKS4_
	.weak_definition __ZNSt8_Rb_treeIPN2sf11ResourcePtrINS0_5ImageEEES4_St9_IdentityIS4_ESt4lessIS4_ESaIS4_EE5eraseERKS4_
__ZNSt8_Rb_treeIPN2sf11ResourcePtrINS0_5ImageEEES4_St9_IdentityIS4_ESt4lessIS4_ESaIS4_EE5eraseERKS4_:
LFB2324:
	.loc 3 1272 0
	nop
	nop
	nop
	nop
	nop
	nop
	pushl	%ebp
LCFI137:
	movl	%esp, %ebp
LCFI138:
	subl	$40, %esp
LCFI139:
LBB13:
	.loc 3 1274 0
	movl	12(%ebp), %eax
	movl	%eax, 4(%esp)
	movl	8(%ebp), %eax
	movl	%eax, (%esp)
	call	__ZNSt8_Rb_treeIPN2sf11ResourcePtrINS0_5ImageEEES4_St9_IdentityIS4_ESt4lessIS4_ESaIS4_EE11equal_rangeERKS4_
	movl	%eax, -20(%ebp)
	movl	%edx, -16(%ebp)
	.loc 3 1275 0
	movl	8(%ebp), %eax
	movl	%eax, (%esp)
	call	__ZNKSt8_Rb_treeIPN2sf11ResourcePtrINS0_5ImageEEES4_St9_IdentityIS4_ESt4lessIS4_ESaIS4_EE4sizeEv
	movl	%eax, -12(%ebp)
	.loc 3 1276 0
	movl	-16(%ebp), %eax
	movl	%eax, 8(%esp)
	movl	-20(%ebp), %eax
	movl	%eax, 4(%esp)
	movl	8(%ebp), %eax
	movl	%eax, (%esp)
	call	__ZNSt8_Rb_treeIPN2sf11ResourcePtrINS0_5ImageEEES4_St9_IdentityIS4_ESt4lessIS4_ESaIS4_EE5eraseESt17_Rb_tree_iteratorIS4_ESC_
	.loc 3 1277 0
	movl	8(%ebp), %eax
	movl	%eax, (%esp)
	call	__ZNKSt8_Rb_treeIPN2sf11ResourcePtrINS0_5ImageEEES4_St9_IdentityIS4_ESt4lessIS4_ESaIS4_EE4sizeEv
	movl	%eax, %edx
	movl	-12(%ebp), %eax
	subl	%edx, %eax
LBE13:
	leave
	ret
LFE2324:
	.align 1
.globl __ZNSt3setIPN2sf11ResourcePtrINS0_5ImageEEESt4lessIS4_ESaIS4_EE5eraseERKS4_
	.weak_definition __ZNSt3setIPN2sf11ResourcePtrINS0_5ImageEEESt4lessIS4_ESaIS4_EE5eraseERKS4_
	.private_extern __ZNSt3setIPN2sf11ResourcePtrINS0_5ImageEEESt4lessIS4_ESaIS4_EE5eraseERKS4_
__ZNSt3setIPN2sf11ResourcePtrINS0_5ImageEEESt4lessIS4_ESaIS4_EE5eraseERKS4_:
LFB2321:
	.file 10 "/usr/include/c++/4.2.1/bits/stl_set.h"
	.loc 10 372 0
	nop
	nop
	nop
	nop
	nop
	nop
	pushl	%ebp
LCFI140:
	movl	%esp, %ebp
LCFI141:
	subl	$24, %esp
LCFI142:
	.loc 10 373 0
	movl	8(%ebp), %edx
	movl	12(%ebp), %eax
	movl	%eax, 4(%esp)
	movl	%edx, (%esp)
	call	__ZNSt8_Rb_treeIPN2sf11ResourcePtrINS0_5ImageEEES4_St9_IdentityIS4_ESt4lessIS4_ESaIS4_EE5eraseERKS4_
	leave
	ret
LFE2321:
	.align 1
.globl __ZNK2sf8ResourceINS_5ImageEE10DisconnectERNS_11ResourcePtrIS1_EE
	.weak_definition __ZNK2sf8ResourceINS_5ImageEE10DisconnectERNS_11ResourcePtrIS1_EE
__ZNK2sf8ResourceINS_5ImageEE10DisconnectERNS_11ResourcePtrIS1_EE:
LFB2307:
	.file 11 "/Library/Frameworks/SFML.framework/Headers/System/Resource.inl"
	.loc 11 85 0
	nop
	nop
	nop
	nop
	nop
	nop
	pushl	%ebp
LCFI143:
	movl	%esp, %ebp
LCFI144:
	subl	$40, %esp
LCFI145:
	.loc 11 87 0
	movl	12(%ebp), %eax
	movl	%eax, -12(%ebp)
	movl	8(%ebp), %edx
	leal	-12(%ebp), %eax
	movl	%eax, 4(%esp)
	movl	%edx, (%esp)
	call	__ZNSt3setIPN2sf11ResourcePtrINS0_5ImageEEESt4lessIS4_ESaIS4_EE5eraseERKS4_
	leave
	ret
LFE2307:
	.align 1
.globl __ZN2sf11ResourcePtrINS_5ImageEED1Ev
	.weak_definition __ZN2sf11ResourcePtrINS_5ImageEED1Ev
__ZN2sf11ResourcePtrINS_5ImageEED1Ev:
LFB2285:
	.file 12 "/Library/Frameworks/SFML.framework/Headers/System/ResourcePtr.inl"
	.loc 12 65 0
	nop
	nop
	nop
	nop
	nop
	nop
	pushl	%ebp
LCFI146:
	movl	%esp, %ebp
LCFI147:
	subl	$24, %esp
LCFI148:
	.loc 12 67 0
	movl	8(%ebp), %eax
	movl	(%eax), %eax
	testl	%eax, %eax
	je	L138
	.loc 12 68 0
	movl	8(%ebp), %eax
	movl	(%eax), %eax
	movl	%eax, %edx
	movl	8(%ebp), %eax
	movl	%eax, 4(%esp)
	movl	%edx, (%esp)
	call	__ZNK2sf8ResourceINS_5ImageEE10DisconnectERNS_11ResourcePtrIS1_EE
L138:
	leave
	ret
LFE2285:
	.align 1
.globl __ZN2sf6SpriteD1Ev
	.weak_definition __ZN2sf6SpriteD1Ev
	.private_extern __ZN2sf6SpriteD1Ev
__ZN2sf6SpriteD1Ev:
LFB2260:
	.file 13 "/Library/Frameworks/SFML.framework/Headers/Graphics/Sprite.hpp"
	.loc 13 45 0
	nop
	nop
	nop
	nop
	nop
	nop
	pushl	%ebp
LCFI149:
	movl	%esp, %ebp
LCFI150:
	pushl	%esi
LCFI151:
	pushl	%ebx
LCFI152:
	subl	$32, %esp
LCFI153:
	call	L146
"L00000000003$pb":
L146:
	popl	%ebx
	.loc 13 45 0
	leal	L__ZTVN2sf6SpriteE$non_lazy_ptr-"L00000000003$pb"(%ebx), %eax
	movl	(%eax), %eax
	leal	8(%eax), %eax
	movl	8(%ebp), %edx
	movl	%eax, (%edx)
	movl	8(%ebp), %eax
	addl	$172, %eax
	movl	%eax, (%esp)
LEHB0:
	call	__ZN2sf11ResourcePtrINS_5ImageEED1Ev
LEHE0:
	movl	8(%ebp), %eax
	movl	%eax, -12(%ebp)
	movl	-12(%ebp), %eax
	movl	%eax, (%esp)
LEHB1:
	call	__ZN2sf8DrawableD2Ev
LEHE1:
	jmp	L140
L145:
	movl	%eax, -16(%ebp)
L141:
	movl	-16(%ebp), %esi
	movl	8(%ebp), %eax
	movl	%eax, -12(%ebp)
	movl	-12(%ebp), %eax
	movl	%eax, (%esp)
	call	__ZN2sf8DrawableD2Ev
	movl	%esi, -16(%ebp)
	movl	-16(%ebp), %eax
	movl	%eax, (%esp)
LEHB2:
	call	__Unwind_Resume
LEHE2:
L140:
	movl	$0, %eax
	testb	%al, %al
	je	L144
	movl	8(%ebp), %eax
	movl	%eax, (%esp)
	call	__ZdlPv
L144:
	addl	$32, %esp
	popl	%ebx
	popl	%esi
	leave
	ret
LFE2260:
	.section __TEXT,__gcc_except_tab
GCC_except_table0:
LLSDA2260:
	.byte	0xff
	.byte	0xff
	.byte	0x3
	.byte	0x27
	.set L$set$0,LEHB0-LFB2260
	.long L$set$0
	.set L$set$1,LEHE0-LEHB0
	.long L$set$1
	.set L$set$2,L145-LFB2260
	.long L$set$2
	.byte	0x0
	.set L$set$3,LEHB1-LFB2260
	.long L$set$3
	.set L$set$4,LEHE1-LEHB1
	.long L$set$4
	.long	0x0
	.byte	0x0
	.set L$set$5,LEHB2-LFB2260
	.long L$set$5
	.set L$set$6,LEHE2-LEHB2
	.long L$set$6
	.long	0x0
	.byte	0x0
	.section __TEXT,__textcoal_nt,coalesced,pure_instructions
	.cstring
LC0:
	.ascii "case_dfl.jpg\0"
	.align 2
LC1:
	.ascii "Erreur durant le chargement de l'image\0"
	.text
.globl __Z19Remplissage_plateauRN2sf12RenderWindowE
__Z19Remplissage_plateauRN2sf12RenderWindowE:
LFB2262:
	.loc 8 37 0
	nop
	nop
	nop
	nop
	nop
	nop
	pushl	%ebp
LCFI154:
	movl	%esp, %ebp
LCFI155:
	pushl	%esi
LCFI156:
	pushl	%ebx
LCFI157:
	subl	$320, %esp
LCFI158:
	call	L167
"L00000000004$pb":
L167:
	popl	%ebx
LBB14:
	.loc 8 39 0
	leal	-88(%ebp), %eax
	movl	%eax, (%esp)
LEHB3:
	call	__ZN2sf5ImageC1Ev
LEHE3:
	.loc 8 40 0
	leal	-284(%ebp), %eax
	movl	%eax, (%esp)
LEHB4:
	call	__ZN2sf6SpriteC1Ev
LEHE4:
	.loc 8 42 0
	leal	-9(%ebp), %eax
	movl	%eax, (%esp)
	call	__ZNSaIcEC1Ev
	leal	-9(%ebp), %eax
	movl	%eax, 8(%esp)
	leal	LC0-"L00000000004$pb"(%ebx), %eax
	movl	%eax, 4(%esp)
	leal	-16(%ebp), %eax
	movl	%eax, (%esp)
LEHB5:
	call	__ZNSsC1EPKcRKSaIcE
LEHE5:
	leal	-16(%ebp), %eax
	movl	%eax, 4(%esp)
	leal	-88(%ebp), %eax
	movl	%eax, (%esp)
LEHB6:
	call	__ZN2sf5Image12LoadFromFileERKSs
LEHE6:
	movl	%eax, %edx
	xorl	$1, %edx
	movb	%dl, -301(%ebp)
	leal	-16(%ebp), %eax
	movl	%eax, -300(%ebp)
	movl	-300(%ebp), %edx
	movl	%edx, (%esp)
LEHB7:
	call	__ZNSsD1Ev
LEHE7:
	jmp	L148
L163:
	movl	%eax, -308(%ebp)
L149:
	movl	-308(%ebp), %esi
	leal	-16(%ebp), %eax
	movl	%eax, -300(%ebp)
	movl	-300(%ebp), %edx
	movl	%edx, (%esp)
	call	__ZNSsD1Ev
	movl	%esi, -308(%ebp)
	jmp	L152
L148:
	leal	-9(%ebp), %eax
	movl	%eax, (%esp)
	call	__ZNSaIcED1Ev
	cmpb	$0, -301(%ebp)
	jne	L150
	jmp	L151
L164:
	movl	%eax, -308(%ebp)
L152:
	movl	-308(%ebp), %esi
	leal	-9(%ebp), %eax
	movl	%eax, (%esp)
	call	__ZNSaIcED1Ev
	movl	%esi, -308(%ebp)
	jmp	L160
L150:
	.loc 8 44 0
	leal	LC1-"L00000000004$pb"(%ebx), %eax
	movl	%eax, 4(%esp)
	leal	L__ZSt4cout$non_lazy_ptr-"L00000000004$pb"(%ebx), %eax
	movl	(%eax), %eax
	movl	%eax, (%esp)
LEHB8:
	call	__ZStlsISt11char_traitsIcEERSt13basic_ostreamIcT_ES5_PKc
	leal	L__ZSt4endlIcSt11char_traitsIcEERSt13basic_ostreamIT_T0_ES6_$non_lazy_ptr-"L00000000004$pb"(%ebx), %edx
	movl	(%edx), %edx
	movl	%edx, 4(%esp)
	movl	%eax, (%esp)
	call	__ZNSolsEPFRSoS_E
	jmp	L153
L151:
LBB15:
	.loc 8 48 0
	movl	$0, -20(%ebp)
	movl	$0, -24(%ebp)
	.loc 8 50 0
	leal	-88(%ebp), %eax
	movl	%eax, 4(%esp)
	leal	-284(%ebp), %eax
	movl	%eax, (%esp)
	call	__ZN2sf6Sprite8SetImageERKNS_5ImageE
	.loc 8 52 0
	movl	$0, -20(%ebp)
	jmp	L154
L155:
	.loc 8 53 0
	movl	$0, -24(%ebp)
	jmp	L156
L157:
	.loc 8 54 0
	movl	-24(%ebp), %edx
	movl	%edx, %eax
	sall	$3, %eax
	addl	%edx, %eax
	sall	$2, %eax
	addl	%edx, %eax
	cvtsi2ss	%eax, %xmm1
	movl	-20(%ebp), %edx
	movl	%edx, %eax
	sall	$3, %eax
	addl	%edx, %eax
	sall	$2, %eax
	addl	%edx, %eax
	cvtsi2ss	%eax, %xmm0
	movss	%xmm1, 8(%esp)
	movss	%xmm0, 4(%esp)
	leal	-284(%ebp), %eax
	movl	%eax, (%esp)
	call	__ZN2sf8Drawable11SetPositionEff
	.loc 8 55 0
	movl	8(%ebp), %eax
	movl	668(%eax), %eax
	addl	$8, %eax
	movl	(%eax), %ecx
	movl	8(%ebp), %edx
	addl	$668, %edx
	leal	-284(%ebp), %eax
	movl	%eax, 4(%esp)
	movl	%edx, (%esp)
	call	*%ecx
	.loc 8 53 0
	incl	-24(%ebp)
L156:
	cmpl	$15, -24(%ebp)
	jle	L157
	.loc 8 52 0
	incl	-20(%ebp)
L154:
	cmpl	$15, -20(%ebp)
	jle	L155
L153:
LBE15:
	.loc 8 61 0
	movl	8(%ebp), %eax
	movl	%eax, (%esp)
	call	__ZN2sf6Window7DisplayEv
LEHE8:
	leal	-284(%ebp), %eax
	movl	%eax, (%esp)
LEHB9:
	call	__ZN2sf6SpriteD1Ev
LEHE9:
	jmp	L159
L165:
	movl	%eax, -308(%ebp)
L160:
	movl	-308(%ebp), %esi
	leal	-284(%ebp), %eax
	movl	%eax, (%esp)
	call	__ZN2sf6SpriteD1Ev
	movl	%esi, -308(%ebp)
	jmp	L161
L159:
	leal	-88(%ebp), %eax
	movl	%eax, (%esp)
LEHB10:
	call	__ZN2sf5ImageD1Ev
LEHE10:
	.loc 8 63 0
	jmp	L162
L166:
	movl	%eax, -308(%ebp)
L161:
	movl	-308(%ebp), %esi
	.loc 8 61 0
	leal	-88(%ebp), %eax
	movl	%eax, (%esp)
	call	__ZN2sf5ImageD1Ev
	movl	%esi, -308(%ebp)
	movl	-308(%ebp), %eax
	movl	%eax, (%esp)
LEHB11:
	call	__Unwind_Resume
LEHE11:
L162:
LBE14:
	.loc 8 63 0
	addl	$320, %esp
	popl	%ebx
	popl	%esi
	leave
	ret
LFE2262:
	.section __TEXT,__gcc_except_tab
GCC_except_table1:
LLSDA2262:
	.byte	0xff
	.byte	0xff
	.byte	0x3
	.byte	0x75
	.set L$set$7,LEHB3-LFB2262
	.long L$set$7
	.set L$set$8,LEHE3-LEHB3
	.long L$set$8
	.long	0x0
	.byte	0x0
	.set L$set$9,LEHB4-LFB2262
	.long L$set$9
	.set L$set$10,LEHE4-LEHB4
	.long L$set$10
	.set L$set$11,L166-LFB2262
	.long L$set$11
	.byte	0x0
	.set L$set$12,LEHB5-LFB2262
	.long L$set$12
	.set L$set$13,LEHE5-LEHB5
	.long L$set$13
	.set L$set$14,L164-LFB2262
	.long L$set$14
	.byte	0x0
	.set L$set$15,LEHB6-LFB2262
	.long L$set$15
	.set L$set$16,LEHE6-LEHB6
	.long L$set$16
	.set L$set$17,L163-LFB2262
	.long L$set$17
	.byte	0x0
	.set L$set$18,LEHB7-LFB2262
	.long L$set$18
	.set L$set$19,LEHE7-LEHB7
	.long L$set$19
	.set L$set$20,L164-LFB2262
	.long L$set$20
	.byte	0x0
	.set L$set$21,LEHB8-LFB2262
	.long L$set$21
	.set L$set$22,LEHE8-LEHB8
	.long L$set$22
	.set L$set$23,L165-LFB2262
	.long L$set$23
	.byte	0x0
	.set L$set$24,LEHB9-LFB2262
	.long L$set$24
	.set L$set$25,LEHE9-LEHB9
	.long L$set$25
	.set L$set$26,L166-LFB2262
	.long L$set$26
	.byte	0x0
	.set L$set$27,LEHB10-LFB2262
	.long L$set$27
	.set L$set$28,LEHE10-LEHB10
	.long L$set$28
	.long	0x0
	.byte	0x0
	.set L$set$29,LEHB11-LFB2262
	.long L$set$29
	.set L$set$30,LEHE11-LEHB11
	.long L$set$30
	.long	0x0
	.byte	0x0
	.text
	.cstring
LC2:
	.ascii "case_centre_vert.jpg\0"
	.text
.globl __Z20Afficher_case_centreRN2sf12RenderWindowE
__Z20Afficher_case_centreRN2sf12RenderWindowE:
LFB2257:
	.loc 8 16 0
	nop
	nop
	nop
	nop
	nop
	nop
	pushl	%ebp
LCFI159:
	movl	%esp, %ebp
LCFI160:
	pushl	%esi
LCFI161:
	pushl	%ebx
LCFI162:
	subl	$304, %esp
LCFI163:
	call	L183
"L00000000005$pb":
L183:
	popl	%ebx
LBB16:
	.loc 8 18 0
	leal	-80(%ebp), %eax
	movl	%eax, (%esp)
LEHB12:
	call	__ZN2sf5ImageC1Ev
LEHE12:
	.loc 8 19 0
	leal	-276(%ebp), %eax
	movl	%eax, (%esp)
LEHB13:
	call	__ZN2sf6SpriteC1Ev
LEHE13:
	.loc 8 21 0
	leal	-9(%ebp), %eax
	movl	%eax, (%esp)
	call	__ZNSaIcEC1Ev
	leal	-9(%ebp), %eax
	movl	%eax, 8(%esp)
	leal	LC2-"L00000000005$pb"(%ebx), %eax
	movl	%eax, 4(%esp)
	leal	-16(%ebp), %eax
	movl	%eax, (%esp)
LEHB14:
	call	__ZNSsC1EPKcRKSaIcE
LEHE14:
	leal	-16(%ebp), %eax
	movl	%eax, 4(%esp)
	leal	-80(%ebp), %eax
	movl	%eax, (%esp)
LEHB15:
	call	__ZN2sf5Image12LoadFromFileERKSs
LEHE15:
	movl	%eax, %edx
	xorl	$1, %edx
	movb	%dl, -285(%ebp)
	leal	-16(%ebp), %eax
	movl	%eax, -284(%ebp)
	movl	-284(%ebp), %edx
	movl	%edx, (%esp)
LEHB16:
	call	__ZNSsD1Ev
LEHE16:
	jmp	L169
L179:
	movl	%eax, -292(%ebp)
L170:
	movl	-292(%ebp), %esi
	leal	-16(%ebp), %eax
	movl	%eax, -284(%ebp)
	movl	-284(%ebp), %edx
	movl	%edx, (%esp)
	call	__ZNSsD1Ev
	movl	%esi, -292(%ebp)
	jmp	L173
L169:
	leal	-9(%ebp), %eax
	movl	%eax, (%esp)
	call	__ZNSaIcED1Ev
	cmpb	$0, -285(%ebp)
	jne	L171
	jmp	L172
L180:
	movl	%eax, -292(%ebp)
L173:
	movl	-292(%ebp), %esi
	leal	-9(%ebp), %eax
	movl	%eax, (%esp)
	call	__ZNSaIcED1Ev
	movl	%esi, -292(%ebp)
	jmp	L176
L171:
	.loc 8 23 0
	leal	LC1-"L00000000005$pb"(%ebx), %eax
	movl	%eax, 4(%esp)
	leal	L__ZSt4cout$non_lazy_ptr-"L00000000005$pb"(%ebx), %eax
	movl	(%eax), %eax
	movl	%eax, (%esp)
LEHB17:
	call	__ZStlsISt11char_traitsIcEERSt13basic_ostreamIcT_ES5_PKc
	leal	L__ZSt4endlIcSt11char_traitsIcEERSt13basic_ostreamIT_T0_ES6_$non_lazy_ptr-"L00000000005$pb"(%ebx), %edx
	movl	(%edx), %edx
	movl	%edx, 4(%esp)
	movl	%eax, (%esp)
	call	__ZNSolsEPFRSoS_E
	jmp	L174
L172:
	.loc 8 27 0
	leal	-80(%ebp), %eax
	movl	%eax, 4(%esp)
	leal	-276(%ebp), %eax
	movl	%eax, (%esp)
	call	__ZN2sf6Sprite8SetImageERKNS_5ImageE
	.loc 8 28 0
	leal	LC3-"L00000000005$pb"(%ebx), %eax
	movl	(%eax), %eax
	movl	%eax, 8(%esp)
	leal	LC3-"L00000000005$pb"(%ebx), %eax
	movl	(%eax), %eax
	movl	%eax, 4(%esp)
	leal	-276(%ebp), %eax
	movl	%eax, (%esp)
	call	__ZN2sf8Drawable11SetPositionEff
	.loc 8 29 0
	movl	8(%ebp), %eax
	movl	668(%eax), %eax
	addl	$8, %eax
	movl	(%eax), %ecx
	movl	8(%ebp), %edx
	addl	$668, %edx
	leal	-276(%ebp), %eax
	movl	%eax, 4(%esp)
	movl	%edx, (%esp)
	call	*%ecx
L174:
	.loc 8 33 0
	movl	8(%ebp), %eax
	movl	%eax, (%esp)
	call	__ZN2sf6Window7DisplayEv
LEHE17:
	leal	-276(%ebp), %eax
	movl	%eax, (%esp)
LEHB18:
	call	__ZN2sf6SpriteD1Ev
LEHE18:
	jmp	L175
L181:
	movl	%eax, -292(%ebp)
L176:
	movl	-292(%ebp), %esi
	leal	-276(%ebp), %eax
	movl	%eax, (%esp)
	call	__ZN2sf6SpriteD1Ev
	movl	%esi, -292(%ebp)
	jmp	L177
L175:
	leal	-80(%ebp), %eax
	movl	%eax, (%esp)
LEHB19:
	call	__ZN2sf5ImageD1Ev
LEHE19:
	.loc 8 35 0
	jmp	L178
L182:
	movl	%eax, -292(%ebp)
L177:
	movl	-292(%ebp), %esi
	.loc 8 33 0
	leal	-80(%ebp), %eax
	movl	%eax, (%esp)
	call	__ZN2sf5ImageD1Ev
	movl	%esi, -292(%ebp)
	movl	-292(%ebp), %eax
	movl	%eax, (%esp)
LEHB20:
	call	__Unwind_Resume
LEHE20:
L178:
LBE16:
	.loc 8 35 0
	addl	$304, %esp
	popl	%ebx
	popl	%esi
	leave
	ret
LFE2257:
	.section __TEXT,__gcc_except_tab
GCC_except_table2:
LLSDA2257:
	.byte	0xff
	.byte	0xff
	.byte	0x3
	.byte	0x75
	.set L$set$31,LEHB12-LFB2257
	.long L$set$31
	.set L$set$32,LEHE12-LEHB12
	.long L$set$32
	.long	0x0
	.byte	0x0
	.set L$set$33,LEHB13-LFB2257
	.long L$set$33
	.set L$set$34,LEHE13-LEHB13
	.long L$set$34
	.set L$set$35,L182-LFB2257
	.long L$set$35
	.byte	0x0
	.set L$set$36,LEHB14-LFB2257
	.long L$set$36
	.set L$set$37,LEHE14-LEHB14
	.long L$set$37
	.set L$set$38,L180-LFB2257
	.long L$set$38
	.byte	0x0
	.set L$set$39,LEHB15-LFB2257
	.long L$set$39
	.set L$set$40,LEHE15-LEHB15
	.long L$set$40
	.set L$set$41,L179-LFB2257
	.long L$set$41
	.byte	0x0
	.set L$set$42,LEHB16-LFB2257
	.long L$set$42
	.set L$set$43,LEHE16-LEHB16
	.long L$set$43
	.set L$set$44,L180-LFB2257
	.long L$set$44
	.byte	0x0
	.set L$set$45,LEHB17-LFB2257
	.long L$set$45
	.set L$set$46,LEHE17-LEHB17
	.long L$set$46
	.set L$set$47,L181-LFB2257
	.long L$set$47
	.byte	0x0
	.set L$set$48,LEHB18-LFB2257
	.long L$set$48
	.set L$set$49,LEHE18-LEHB18
	.long L$set$49
	.set L$set$50,L182-LFB2257
	.long L$set$50
	.byte	0x0
	.set L$set$51,LEHB19-LFB2257
	.long L$set$51
	.set L$set$52,LEHE19-LEHB19
	.long L$set$52
	.long	0x0
	.byte	0x0
	.set L$set$53,LEHB20-LFB2257
	.long L$set$53
	.set L$set$54,LEHE20-LEHB20
	.long L$set$54
	.long	0x0
	.byte	0x0
	.text
.lcomm __ZStL8__ioinit,1,0
	.literal4
	.align 2
LC3:
	.long	1132560384
	.section __DWARF,__debug_frame,regular,debug
Lframe0:
	.set L$set$55,LECIE0-LSCIE0
	.long L$set$55
LSCIE0:
	.long	0xffffffff
	.byte	0x1
	.ascii "\0"
	.byte	0x1
	.byte	0x7c
	.byte	0x8
	.byte	0xc
	.byte	0x4
	.byte	0x4
	.byte	0x88
	.byte	0x1
	.align 2
LECIE0:
LSFDE0:
	.set L$set$56,LEFDE0-LASFDE0
	.long L$set$56
LASFDE0:
	.set L$set$57,Lframe0-Lsection__debug_frame
	.long L$set$57
	.long	LFB2263
	.set L$set$58,LFE2263-LFB2263
	.long L$set$58
	.byte	0x4
	.set L$set$59,LCFI0-LFB2263
	.long L$set$59
	.byte	0xe
	.byte	0x8
	.byte	0x85
	.byte	0x2
	.byte	0x4
	.set L$set$60,LCFI1-LCFI0
	.long L$set$60
	.byte	0xd
	.byte	0x5
	.align 2
LEFDE0:
LSFDE2:
	.set L$set$61,LEFDE2-LASFDE2
	.long L$set$61
LASFDE2:
	.set L$set$62,Lframe0-Lsection__debug_frame
	.long L$set$62
	.long	LFB1410
	.set L$set$63,LFE1410-LFB1410
	.long L$set$63
	.byte	0x4
	.set L$set$64,LCFI3-LFB1410
	.long L$set$64
	.byte	0xe
	.byte	0x8
	.byte	0x85
	.byte	0x2
	.byte	0x4
	.set L$set$65,LCFI4-LCFI3
	.long L$set$65
	.byte	0xd
	.byte	0x5
	.byte	0x4
	.set L$set$66,LCFI6-LCFI4
	.long L$set$66
	.byte	0x86
	.byte	0x3
	.align 2
LEFDE2:
LSFDE4:
	.set L$set$67,LEFDE4-LASFDE4
	.long L$set$67
LASFDE4:
	.set L$set$68,Lframe0-Lsection__debug_frame
	.long L$set$68
	.long	LFB2326
	.set L$set$69,LFE2326-LFB2326
	.long L$set$69
	.byte	0x4
	.set L$set$70,LCFI7-LFB2326
	.long L$set$70
	.byte	0xe
	.byte	0x8
	.byte	0x85
	.byte	0x2
	.byte	0x4
	.set L$set$71,LCFI8-LCFI7
	.long L$set$71
	.byte	0xd
	.byte	0x5
	.align 2
LEFDE4:
LSFDE6:
	.set L$set$72,LEFDE6-LASFDE6
	.long L$set$72
LASFDE6:
	.set L$set$73,Lframe0-Lsection__debug_frame
	.long L$set$73
	.long	LFB2332
	.set L$set$74,LFE2332-LFB2332
	.long L$set$74
	.byte	0x4
	.set L$set$75,LCFI10-LFB2332
	.long L$set$75
	.byte	0xe
	.byte	0x8
	.byte	0x85
	.byte	0x2
	.byte	0x4
	.set L$set$76,LCFI11-LCFI10
	.long L$set$76
	.byte	0xd
	.byte	0x5
	.align 2
LEFDE6:
LSFDE8:
	.set L$set$77,LEFDE8-LASFDE8
	.long L$set$77
LASFDE8:
	.set L$set$78,Lframe0-Lsection__debug_frame
	.long L$set$78
	.long	LFB2334
	.set L$set$79,LFE2334-LFB2334
	.long L$set$79
	.byte	0x4
	.set L$set$80,LCFI13-LFB2334
	.long L$set$80
	.byte	0xe
	.byte	0x8
	.byte	0x85
	.byte	0x2
	.byte	0x4
	.set L$set$81,LCFI14-LCFI13
	.long L$set$81
	.byte	0xd
	.byte	0x5
	.align 2
LEFDE8:
LSFDE10:
	.set L$set$82,LEFDE10-LASFDE10
	.long L$set$82
LASFDE10:
	.set L$set$83,Lframe0-Lsection__debug_frame
	.long L$set$83
	.long	LFB2337
	.set L$set$84,LFE2337-LFB2337
	.long L$set$84
	.byte	0x4
	.set L$set$85,LCFI16-LFB2337
	.long L$set$85
	.byte	0xe
	.byte	0x8
	.byte	0x85
	.byte	0x2
	.byte	0x4
	.set L$set$86,LCFI17-LCFI16
	.long L$set$86
	.byte	0xd
	.byte	0x5
	.align 2
LEFDE10:
LSFDE12:
	.set L$set$87,LEFDE12-LASFDE12
	.long L$set$87
LASFDE12:
	.set L$set$88,Lframe0-Lsection__debug_frame
	.long L$set$88
	.long	LFB2340
	.set L$set$89,LFE2340-LFB2340
	.long L$set$89
	.byte	0x4
	.set L$set$90,LCFI19-LFB2340
	.long L$set$90
	.byte	0xe
	.byte	0x8
	.byte	0x85
	.byte	0x2
	.byte	0x4
	.set L$set$91,LCFI20-LCFI19
	.long L$set$91
	.byte	0xd
	.byte	0x5
	.align 2
LEFDE12:
LSFDE14:
	.set L$set$92,LEFDE14-LASFDE14
	.long L$set$92
LASFDE14:
	.set L$set$93,Lframe0-Lsection__debug_frame
	.long L$set$93
	.long	LFB2341
	.set L$set$94,LFE2341-LFB2341
	.long L$set$94
	.byte	0x4
	.set L$set$95,LCFI22-LFB2341
	.long L$set$95
	.byte	0xe
	.byte	0x8
	.byte	0x85
	.byte	0x2
	.byte	0x4
	.set L$set$96,LCFI23-LCFI22
	.long L$set$96
	.byte	0xd
	.byte	0x5
	.align 2
LEFDE14:
LSFDE16:
	.set L$set$97,LEFDE16-LASFDE16
	.long L$set$97
LASFDE16:
	.set L$set$98,Lframe0-Lsection__debug_frame
	.long L$set$98
	.long	LFB2345
	.set L$set$99,LFE2345-LFB2345
	.long L$set$99
	.byte	0x4
	.set L$set$100,LCFI25-LFB2345
	.long L$set$100
	.byte	0xe
	.byte	0x8
	.byte	0x85
	.byte	0x2
	.byte	0x4
	.set L$set$101,LCFI26-LCFI25
	.long L$set$101
	.byte	0xd
	.byte	0x5
	.align 2
LEFDE16:
LSFDE18:
	.set L$set$102,LEFDE18-LASFDE18
	.long L$set$102
LASFDE18:
	.set L$set$103,Lframe0-Lsection__debug_frame
	.long L$set$103
	.long	LFB2348
	.set L$set$104,LFE2348-LFB2348
	.long L$set$104
	.byte	0x4
	.set L$set$105,LCFI28-LFB2348
	.long L$set$105
	.byte	0xe
	.byte	0x8
	.byte	0x85
	.byte	0x2
	.byte	0x4
	.set L$set$106,LCFI29-LCFI28
	.long L$set$106
	.byte	0xd
	.byte	0x5
	.align 2
LEFDE18:
LSFDE20:
	.set L$set$107,LEFDE20-LASFDE20
	.long L$set$107
LASFDE20:
	.set L$set$108,Lframe0-Lsection__debug_frame
	.long L$set$108
	.long	LFB2349
	.set L$set$109,LFE2349-LFB2349
	.long L$set$109
	.byte	0x4
	.set L$set$110,LCFI31-LFB2349
	.long L$set$110
	.byte	0xe
	.byte	0x8
	.byte	0x85
	.byte	0x2
	.byte	0x4
	.set L$set$111,LCFI32-LCFI31
	.long L$set$111
	.byte	0xd
	.byte	0x5
	.align 2
LEFDE20:
LSFDE22:
	.set L$set$112,LEFDE22-LASFDE22
	.long L$set$112
LASFDE22:
	.set L$set$113,Lframe0-Lsection__debug_frame
	.long L$set$113
	.long	LFB2350
	.set L$set$114,LFE2350-LFB2350
	.long L$set$114
	.byte	0x4
	.set L$set$115,LCFI34-LFB2350
	.long L$set$115
	.byte	0xe
	.byte	0x8
	.byte	0x85
	.byte	0x2
	.byte	0x4
	.set L$set$116,LCFI35-LCFI34
	.long L$set$116
	.byte	0xd
	.byte	0x5
	.align 2
LEFDE22:
LSFDE24:
	.set L$set$117,LEFDE24-LASFDE24
	.long L$set$117
LASFDE24:
	.set L$set$118,Lframe0-Lsection__debug_frame
	.long L$set$118
	.long	LFB2351
	.set L$set$119,LFE2351-LFB2351
	.long L$set$119
	.byte	0x4
	.set L$set$120,LCFI37-LFB2351
	.long L$set$120
	.byte	0xe
	.byte	0x8
	.byte	0x85
	.byte	0x2
	.byte	0x4
	.set L$set$121,LCFI38-LCFI37
	.long L$set$121
	.byte	0xd
	.byte	0x5
	.align 2
LEFDE24:
LSFDE26:
	.set L$set$122,LEFDE26-LASFDE26
	.long L$set$122
LASFDE26:
	.set L$set$123,Lframe0-Lsection__debug_frame
	.long L$set$123
	.long	LFB2354
	.set L$set$124,LFE2354-LFB2354
	.long L$set$124
	.byte	0x4
	.set L$set$125,LCFI40-LFB2354
	.long L$set$125
	.byte	0xe
	.byte	0x8
	.byte	0x85
	.byte	0x2
	.byte	0x4
	.set L$set$126,LCFI41-LCFI40
	.long L$set$126
	.byte	0xd
	.byte	0x5
	.align 2
LEFDE26:
LSFDE28:
	.set L$set$127,LEFDE28-LASFDE28
	.long L$set$127
LASFDE28:
	.set L$set$128,Lframe0-Lsection__debug_frame
	.long L$set$128
	.long	LFB2335
	.set L$set$129,LFE2335-LFB2335
	.long L$set$129
	.byte	0x4
	.set L$set$130,LCFI43-LFB2335
	.long L$set$130
	.byte	0xe
	.byte	0x8
	.byte	0x85
	.byte	0x2
	.byte	0x4
	.set L$set$131,LCFI44-LCFI43
	.long L$set$131
	.byte	0xd
	.byte	0x5
	.align 2
LEFDE28:
LSFDE30:
	.set L$set$132,LEFDE30-LASFDE30
	.long L$set$132
LASFDE30:
	.set L$set$133,Lframe0-Lsection__debug_frame
	.long L$set$133
	.long	LFB2333
	.set L$set$134,LFE2333-LFB2333
	.long L$set$134
	.byte	0x4
	.set L$set$135,LCFI46-LFB2333
	.long L$set$135
	.byte	0xe
	.byte	0x8
	.byte	0x85
	.byte	0x2
	.byte	0x4
	.set L$set$136,LCFI47-LCFI46
	.long L$set$136
	.byte	0xd
	.byte	0x5
	.align 2
LEFDE30:
LSFDE32:
	.set L$set$137,LEFDE32-LASFDE32
	.long L$set$137
LASFDE32:
	.set L$set$138,Lframe0-Lsection__debug_frame
	.long L$set$138
	.long	LFB2356
	.set L$set$139,LFE2356-LFB2356
	.long L$set$139
	.byte	0x4
	.set L$set$140,LCFI49-LFB2356
	.long L$set$140
	.byte	0xe
	.byte	0x8
	.byte	0x85
	.byte	0x2
	.byte	0x4
	.set L$set$141,LCFI50-LCFI49
	.long L$set$141
	.byte	0xd
	.byte	0x5
	.align 2
LEFDE32:
LSFDE34:
	.set L$set$142,LEFDE34-LASFDE34
	.long L$set$142
LASFDE34:
	.set L$set$143,Lframe0-Lsection__debug_frame
	.long L$set$143
	.long	LFB2357
	.set L$set$144,LFE2357-LFB2357
	.long L$set$144
	.byte	0x4
	.set L$set$145,LCFI52-LFB2357
	.long L$set$145
	.byte	0xe
	.byte	0x8
	.byte	0x85
	.byte	0x2
	.byte	0x4
	.set L$set$146,LCFI53-LCFI52
	.long L$set$146
	.byte	0xd
	.byte	0x5
	.align 2
LEFDE34:
LSFDE36:
	.set L$set$147,LEFDE36-LASFDE36
	.long L$set$147
LASFDE36:
	.set L$set$148,Lframe0-Lsection__debug_frame
	.long L$set$148
	.long	LFB2358
	.set L$set$149,LFE2358-LFB2358
	.long L$set$149
	.byte	0x4
	.set L$set$150,LCFI55-LFB2358
	.long L$set$150
	.byte	0xe
	.byte	0x8
	.byte	0x85
	.byte	0x2
	.byte	0x4
	.set L$set$151,LCFI56-LCFI55
	.long L$set$151
	.byte	0xd
	.byte	0x5
	.align 2
LEFDE36:
LSFDE38:
	.set L$set$152,LEFDE38-LASFDE38
	.long L$set$152
LASFDE38:
	.set L$set$153,Lframe0-Lsection__debug_frame
	.long L$set$153
	.long	LFB2360
	.set L$set$154,LFE2360-LFB2360
	.long L$set$154
	.byte	0x4
	.set L$set$155,LCFI58-LFB2360
	.long L$set$155
	.byte	0xe
	.byte	0x8
	.byte	0x85
	.byte	0x2
	.byte	0x4
	.set L$set$156,LCFI59-LCFI58
	.long L$set$156
	.byte	0xd
	.byte	0x5
	.align 2
LEFDE38:
LSFDE40:
	.set L$set$157,LEFDE40-LASFDE40
	.long L$set$157
LASFDE40:
	.set L$set$158,Lframe0-Lsection__debug_frame
	.long L$set$158
	.long	LFB2361
	.set L$set$159,LFE2361-LFB2361
	.long L$set$159
	.byte	0x4
	.set L$set$160,LCFI61-LFB2361
	.long L$set$160
	.byte	0xe
	.byte	0x8
	.byte	0x85
	.byte	0x2
	.byte	0x4
	.set L$set$161,LCFI62-LCFI61
	.long L$set$161
	.byte	0xd
	.byte	0x5
	.align 2
LEFDE40:
LSFDE42:
	.set L$set$162,LEFDE42-LASFDE42
	.long L$set$162
LASFDE42:
	.set L$set$163,Lframe0-Lsection__debug_frame
	.long L$set$163
	.long	LFB2342
	.set L$set$164,LFE2342-LFB2342
	.long L$set$164
	.byte	0x4
	.set L$set$165,LCFI64-LFB2342
	.long L$set$165
	.byte	0xe
	.byte	0x8
	.byte	0x85
	.byte	0x2
	.byte	0x4
	.set L$set$166,LCFI65-LCFI64
	.long L$set$166
	.byte	0xd
	.byte	0x5
	.byte	0x4
	.set L$set$167,LCFI67-LCFI65
	.long L$set$167
	.byte	0x86
	.byte	0x3
	.align 2
LEFDE42:
LSFDE44:
	.set L$set$168,LEFDE44-LASFDE44
	.long L$set$168
LASFDE44:
	.set L$set$169,Lframe0-Lsection__debug_frame
	.long L$set$169
	.long	LFB2329
	.set L$set$170,LFE2329-LFB2329
	.long L$set$170
	.byte	0x4
	.set L$set$171,LCFI68-LFB2329
	.long L$set$171
	.byte	0xe
	.byte	0x8
	.byte	0x85
	.byte	0x2
	.byte	0x4
	.set L$set$172,LCFI69-LCFI68
	.long L$set$172
	.byte	0xd
	.byte	0x5
	.align 2
LEFDE44:
LSFDE46:
	.set L$set$173,LEFDE46-LASFDE46
	.long L$set$173
LASFDE46:
	.set L$set$174,Lframe0-Lsection__debug_frame
	.long L$set$174
	.long	LFB2328
	.set L$set$175,LFE2328-LFB2328
	.long L$set$175
	.byte	0x4
	.set L$set$176,LCFI71-LFB2328
	.long L$set$176
	.byte	0xe
	.byte	0x8
	.byte	0x85
	.byte	0x2
	.byte	0x4
	.set L$set$177,LCFI72-LCFI71
	.long L$set$177
	.byte	0xd
	.byte	0x5
	.align 2
LEFDE46:
LSFDE48:
	.set L$set$178,LEFDE48-LASFDE48
	.long L$set$178
LASFDE48:
	.set L$set$179,Lframe0-Lsection__debug_frame
	.long L$set$179
	.long	LFB2325
	.set L$set$180,LFE2325-LFB2325
	.long L$set$180
	.byte	0x4
	.set L$set$181,LCFI74-LFB2325
	.long L$set$181
	.byte	0xe
	.byte	0x8
	.byte	0x85
	.byte	0x2
	.byte	0x4
	.set L$set$182,LCFI75-LCFI74
	.long L$set$182
	.byte	0xd
	.byte	0x5
	.align 2
LEFDE48:
LSFDE50:
	.set L$set$183,LEFDE50-LASFDE50
	.long L$set$183
LASFDE50:
	.set L$set$184,Lframe0-Lsection__debug_frame
	.long L$set$184
	.long	LFB2366
	.set L$set$185,LFE2366-LFB2366
	.long L$set$185
	.byte	0x4
	.set L$set$186,LCFI77-LFB2366
	.long L$set$186
	.byte	0xe
	.byte	0x8
	.byte	0x85
	.byte	0x2
	.byte	0x4
	.set L$set$187,LCFI78-LCFI77
	.long L$set$187
	.byte	0xd
	.byte	0x5
	.align 2
LEFDE50:
LSFDE52:
	.set L$set$188,LEFDE52-LASFDE52
	.long L$set$188
LASFDE52:
	.set L$set$189,Lframe0-Lsection__debug_frame
	.long L$set$189
	.long	LFB2368
	.set L$set$190,LFE2368-LFB2368
	.long L$set$190
	.byte	0x4
	.set L$set$191,LCFI80-LFB2368
	.long L$set$191
	.byte	0xe
	.byte	0x8
	.byte	0x85
	.byte	0x2
	.byte	0x4
	.set L$set$192,LCFI81-LCFI80
	.long L$set$192
	.byte	0xd
	.byte	0x5
	.align 2
LEFDE52:
LSFDE54:
	.set L$set$193,LEFDE54-LASFDE54
	.long L$set$193
LASFDE54:
	.set L$set$194,Lframe0-Lsection__debug_frame
	.long L$set$194
	.long	LFB2376
	.set L$set$195,LFE2376-LFB2376
	.long L$set$195
	.byte	0x4
	.set L$set$196,LCFI83-LFB2376
	.long L$set$196
	.byte	0xe
	.byte	0x8
	.byte	0x85
	.byte	0x2
	.byte	0x4
	.set L$set$197,LCFI84-LCFI83
	.long L$set$197
	.byte	0xd
	.byte	0x5
	.align 2
LEFDE54:
LSFDE56:
	.set L$set$198,LEFDE56-LASFDE56
	.long L$set$198
LASFDE56:
	.set L$set$199,Lframe0-Lsection__debug_frame
	.long L$set$199
	.long	LFB2365
	.set L$set$200,LFE2365-LFB2365
	.long L$set$200
	.byte	0x4
	.set L$set$201,LCFI86-LFB2365
	.long L$set$201
	.byte	0xe
	.byte	0x8
	.byte	0x85
	.byte	0x2
	.byte	0x4
	.set L$set$202,LCFI87-LCFI86
	.long L$set$202
	.byte	0xd
	.byte	0x5
	.align 2
LEFDE56:
LSFDE58:
	.set L$set$203,LEFDE58-LASFDE58
	.long L$set$203
LASFDE58:
	.set L$set$204,Lframe0-Lsection__debug_frame
	.long L$set$204
	.long	LFB2380
	.set L$set$205,LFE2380-LFB2380
	.long L$set$205
	.byte	0x4
	.set L$set$206,LCFI89-LFB2380
	.long L$set$206
	.byte	0xe
	.byte	0x8
	.byte	0x85
	.byte	0x2
	.byte	0x4
	.set L$set$207,LCFI90-LCFI89
	.long L$set$207
	.byte	0xd
	.byte	0x5
	.align 2
LEFDE58:
LSFDE60:
	.set L$set$208,LEFDE60-LASFDE60
	.long L$set$208
LASFDE60:
	.set L$set$209,Lframe0-Lsection__debug_frame
	.long L$set$209
	.long	LFB2371
	.set L$set$210,LFE2371-LFB2371
	.long L$set$210
	.byte	0x4
	.set L$set$211,LCFI92-LFB2371
	.long L$set$211
	.byte	0xe
	.byte	0x8
	.byte	0x85
	.byte	0x2
	.byte	0x4
	.set L$set$212,LCFI93-LCFI92
	.long L$set$212
	.byte	0xd
	.byte	0x5
	.align 2
LEFDE60:
LSFDE62:
	.set L$set$213,LEFDE62-LASFDE62
	.long L$set$213
LASFDE62:
	.set L$set$214,Lframe0-Lsection__debug_frame
	.long L$set$214
	.long	LFB2362
	.set L$set$215,LFE2362-LFB2362
	.long L$set$215
	.byte	0x4
	.set L$set$216,LCFI95-LFB2362
	.long L$set$216
	.byte	0xe
	.byte	0x8
	.byte	0x85
	.byte	0x2
	.byte	0x4
	.set L$set$217,LCFI96-LCFI95
	.long L$set$217
	.byte	0xd
	.byte	0x5
	.byte	0x4
	.set L$set$218,LCFI99-LCFI96
	.long L$set$218
	.byte	0x86
	.byte	0x4
	.byte	0x87
	.byte	0x3
	.align 2
LEFDE62:
LSFDE64:
	.set L$set$219,LEFDE64-LASFDE64
	.long L$set$219
LASFDE64:
	.set L$set$220,Lframe0-Lsection__debug_frame
	.long L$set$220
	.long	LFB2385
	.set L$set$221,LFE2385-LFB2385
	.long L$set$221
	.byte	0x4
	.set L$set$222,LCFI100-LFB2385
	.long L$set$222
	.byte	0xe
	.byte	0x8
	.byte	0x85
	.byte	0x2
	.byte	0x4
	.set L$set$223,LCFI101-LCFI100
	.long L$set$223
	.byte	0xd
	.byte	0x5
	.byte	0x4
	.set L$set$224,LCFI103-LCFI101
	.long L$set$224
	.byte	0x83
	.byte	0x3
	.align 2
LEFDE64:
LSFDE66:
	.set L$set$225,LEFDE66-LASFDE66
	.long L$set$225
LASFDE66:
	.set L$set$226,Lframe0-Lsection__debug_frame
	.long L$set$226
	.long	LFB2387
	.set L$set$227,LFE2387-LFB2387
	.long L$set$227
	.byte	0x4
	.set L$set$228,LCFI104-LFB2387
	.long L$set$228
	.byte	0xe
	.byte	0x8
	.byte	0x85
	.byte	0x2
	.byte	0x4
	.set L$set$229,LCFI105-LCFI104
	.long L$set$229
	.byte	0xd
	.byte	0x5
	.align 2
LEFDE66:
LSFDE68:
	.set L$set$230,LEFDE68-LASFDE68
	.long L$set$230
LASFDE68:
	.set L$set$231,Lframe0-Lsection__debug_frame
	.long L$set$231
	.long	LFB2386
	.set L$set$232,LFE2386-LFB2386
	.long L$set$232
	.byte	0x4
	.set L$set$233,LCFI107-LFB2386
	.long L$set$233
	.byte	0xe
	.byte	0x8
	.byte	0x85
	.byte	0x2
	.byte	0x4
	.set L$set$234,LCFI108-LCFI107
	.long L$set$234
	.byte	0xd
	.byte	0x5
	.byte	0x4
	.set L$set$235,LCFI110-LCFI108
	.long L$set$235
	.byte	0x83
	.byte	0x3
	.align 2
LEFDE68:
LSFDE70:
	.set L$set$236,LEFDE70-LASFDE70
	.long L$set$236
LASFDE70:
	.set L$set$237,Lframe0-Lsection__debug_frame
	.long L$set$237
	.long	LFB2378
	.set L$set$238,LFE2378-LFB2378
	.long L$set$238
	.byte	0x4
	.set L$set$239,LCFI111-LFB2378
	.long L$set$239
	.byte	0xe
	.byte	0x8
	.byte	0x85
	.byte	0x2
	.byte	0x4
	.set L$set$240,LCFI112-LCFI111
	.long L$set$240
	.byte	0xd
	.byte	0x5
	.align 2
LEFDE70:
LSFDE72:
	.set L$set$241,LEFDE72-LASFDE72
	.long L$set$241
LASFDE72:
	.set L$set$242,Lframe0-Lsection__debug_frame
	.long L$set$242
	.long	LFB2367
	.set L$set$243,LFE2367-LFB2367
	.long L$set$243
	.byte	0x4
	.set L$set$244,LCFI114-LFB2367
	.long L$set$244
	.byte	0xe
	.byte	0x8
	.byte	0x85
	.byte	0x2
	.byte	0x4
	.set L$set$245,LCFI115-LCFI114
	.long L$set$245
	.byte	0xd
	.byte	0x5
	.align 2
LEFDE72:
LSFDE74:
	.set L$set$246,LEFDE74-LASFDE74
	.long L$set$246
LASFDE74:
	.set L$set$247,Lframe0-Lsection__debug_frame
	.long L$set$247
	.long	LFB2359
	.set L$set$248,LFE2359-LFB2359
	.long L$set$248
	.byte	0x4
	.set L$set$249,LCFI117-LFB2359
	.long L$set$249
	.byte	0xe
	.byte	0x8
	.byte	0x85
	.byte	0x2
	.byte	0x4
	.set L$set$250,LCFI118-LCFI117
	.long L$set$250
	.byte	0xd
	.byte	0x5
	.byte	0x4
	.set L$set$251,LCFI120-LCFI118
	.long L$set$251
	.byte	0x86
	.byte	0x3
	.align 2
LEFDE74:
LSFDE76:
	.set L$set$252,LEFDE76-LASFDE76
	.long L$set$252
LASFDE76:
	.set L$set$253,Lframe0-Lsection__debug_frame
	.long L$set$253
	.long	LFB2355
	.set L$set$254,LFE2355-LFB2355
	.long L$set$254
	.byte	0x4
	.set L$set$255,LCFI121-LFB2355
	.long L$set$255
	.byte	0xe
	.byte	0x8
	.byte	0x85
	.byte	0x2
	.byte	0x4
	.set L$set$256,LCFI122-LCFI121
	.long L$set$256
	.byte	0xd
	.byte	0x5
	.align 2
LEFDE76:
LSFDE78:
	.set L$set$257,LEFDE78-LASFDE78
	.long L$set$257
LASFDE78:
	.set L$set$258,Lframe0-Lsection__debug_frame
	.long L$set$258
	.long	LFB2336
	.set L$set$259,LFE2336-LFB2336
	.long L$set$259
	.byte	0x4
	.set L$set$260,LCFI124-LFB2336
	.long L$set$260
	.byte	0xe
	.byte	0x8
	.byte	0x85
	.byte	0x2
	.byte	0x4
	.set L$set$261,LCFI125-LCFI124
	.long L$set$261
	.byte	0xd
	.byte	0x5
	.byte	0x4
	.set L$set$262,LCFI127-LCFI125
	.long L$set$262
	.byte	0x86
	.byte	0x3
	.align 2
LEFDE78:
LSFDE80:
	.set L$set$263,LEFDE80-LASFDE80
	.long L$set$263
LASFDE80:
	.set L$set$264,Lframe0-Lsection__debug_frame
	.long L$set$264
	.long	LFB2338
	.set L$set$265,LFE2338-LFB2338
	.long L$set$265
	.byte	0x4
	.set L$set$266,LCFI128-LFB2338
	.long L$set$266
	.byte	0xe
	.byte	0x8
	.byte	0x85
	.byte	0x2
	.byte	0x4
	.set L$set$267,LCFI129-LCFI128
	.long L$set$267
	.byte	0xd
	.byte	0x5
	.align 2
LEFDE80:
LSFDE82:
	.set L$set$268,LEFDE82-LASFDE82
	.long L$set$268
LASFDE82:
	.set L$set$269,Lframe0-Lsection__debug_frame
	.long L$set$269
	.long	LFB2339
	.set L$set$270,LFE2339-LFB2339
	.long L$set$270
	.byte	0x4
	.set L$set$271,LCFI131-LFB2339
	.long L$set$271
	.byte	0xe
	.byte	0x8
	.byte	0x85
	.byte	0x2
	.byte	0x4
	.set L$set$272,LCFI132-LCFI131
	.long L$set$272
	.byte	0xd
	.byte	0x5
	.align 2
LEFDE82:
LSFDE84:
	.set L$set$273,LEFDE84-LASFDE84
	.long L$set$273
LASFDE84:
	.set L$set$274,Lframe0-Lsection__debug_frame
	.long L$set$274
	.long	LFB2327
	.set L$set$275,LFE2327-LFB2327
	.long L$set$275
	.byte	0x4
	.set L$set$276,LCFI134-LFB2327
	.long L$set$276
	.byte	0xe
	.byte	0x8
	.byte	0x85
	.byte	0x2
	.byte	0x4
	.set L$set$277,LCFI135-LCFI134
	.long L$set$277
	.byte	0xd
	.byte	0x5
	.align 2
LEFDE84:
LSFDE86:
	.set L$set$278,LEFDE86-LASFDE86
	.long L$set$278
LASFDE86:
	.set L$set$279,Lframe0-Lsection__debug_frame
	.long L$set$279
	.long	LFB2324
	.set L$set$280,LFE2324-LFB2324
	.long L$set$280
	.byte	0x4
	.set L$set$281,LCFI137-LFB2324
	.long L$set$281
	.byte	0xe
	.byte	0x8
	.byte	0x85
	.byte	0x2
	.byte	0x4
	.set L$set$282,LCFI138-LCFI137
	.long L$set$282
	.byte	0xd
	.byte	0x5
	.align 2
LEFDE86:
LSFDE88:
	.set L$set$283,LEFDE88-LASFDE88
	.long L$set$283
LASFDE88:
	.set L$set$284,Lframe0-Lsection__debug_frame
	.long L$set$284
	.long	LFB2321
	.set L$set$285,LFE2321-LFB2321
	.long L$set$285
	.byte	0x4
	.set L$set$286,LCFI140-LFB2321
	.long L$set$286
	.byte	0xe
	.byte	0x8
	.byte	0x85
	.byte	0x2
	.byte	0x4
	.set L$set$287,LCFI141-LCFI140
	.long L$set$287
	.byte	0xd
	.byte	0x5
	.align 2
LEFDE88:
LSFDE90:
	.set L$set$288,LEFDE90-LASFDE90
	.long L$set$288
LASFDE90:
	.set L$set$289,Lframe0-Lsection__debug_frame
	.long L$set$289
	.long	LFB2307
	.set L$set$290,LFE2307-LFB2307
	.long L$set$290
	.byte	0x4
	.set L$set$291,LCFI143-LFB2307
	.long L$set$291
	.byte	0xe
	.byte	0x8
	.byte	0x85
	.byte	0x2
	.byte	0x4
	.set L$set$292,LCFI144-LCFI143
	.long L$set$292
	.byte	0xd
	.byte	0x5
	.align 2
LEFDE90:
LSFDE92:
	.set L$set$293,LEFDE92-LASFDE92
	.long L$set$293
LASFDE92:
	.set L$set$294,Lframe0-Lsection__debug_frame
	.long L$set$294
	.long	LFB2285
	.set L$set$295,LFE2285-LFB2285
	.long L$set$295
	.byte	0x4
	.set L$set$296,LCFI146-LFB2285
	.long L$set$296
	.byte	0xe
	.byte	0x8
	.byte	0x85
	.byte	0x2
	.byte	0x4
	.set L$set$297,LCFI147-LCFI146
	.long L$set$297
	.byte	0xd
	.byte	0x5
	.align 2
LEFDE92:
LSFDE94:
	.set L$set$298,LEFDE94-LASFDE94
	.long L$set$298
LASFDE94:
	.set L$set$299,Lframe0-Lsection__debug_frame
	.long L$set$299
	.long	LFB2260
	.set L$set$300,LFE2260-LFB2260
	.long L$set$300
	.byte	0x4
	.set L$set$301,LCFI149-LFB2260
	.long L$set$301
	.byte	0xe
	.byte	0x8
	.byte	0x85
	.byte	0x2
	.byte	0x4
	.set L$set$302,LCFI150-LCFI149
	.long L$set$302
	.byte	0xd
	.byte	0x5
	.byte	0x4
	.set L$set$303,LCFI153-LCFI150
	.long L$set$303
	.byte	0x83
	.byte	0x4
	.byte	0x86
	.byte	0x3
	.align 2
LEFDE94:
LSFDE96:
	.set L$set$304,LEFDE96-LASFDE96
	.long L$set$304
LASFDE96:
	.set L$set$305,Lframe0-Lsection__debug_frame
	.long L$set$305
	.long	LFB2262
	.set L$set$306,LFE2262-LFB2262
	.long L$set$306
	.byte	0x4
	.set L$set$307,LCFI154-LFB2262
	.long L$set$307
	.byte	0xe
	.byte	0x8
	.byte	0x85
	.byte	0x2
	.byte	0x4
	.set L$set$308,LCFI155-LCFI154
	.long L$set$308
	.byte	0xd
	.byte	0x5
	.byte	0x4
	.set L$set$309,LCFI158-LCFI155
	.long L$set$309
	.byte	0x83
	.byte	0x4
	.byte	0x86
	.byte	0x3
	.align 2
LEFDE96:
LSFDE98:
	.set L$set$310,LEFDE98-LASFDE98
	.long L$set$310
LASFDE98:
	.set L$set$311,Lframe0-Lsection__debug_frame
	.long L$set$311
	.long	LFB2257
	.set L$set$312,LFE2257-LFB2257
	.long L$set$312
	.byte	0x4
	.set L$set$313,LCFI159-LFB2257
	.long L$set$313
	.byte	0xe
	.byte	0x8
	.byte	0x85
	.byte	0x2
	.byte	0x4
	.set L$set$314,LCFI160-LCFI159
	.long L$set$314
	.byte	0xd
	.byte	0x5
	.byte	0x4
	.set L$set$315,LCFI163-LCFI160
	.long L$set$315
	.byte	0x83
	.byte	0x4
	.byte	0x86
	.byte	0x3
	.align 2
LEFDE98:
	.section __TEXT,__eh_frame,coalesced,no_toc+strip_static_syms+live_support
EH_frame1:
	.set L$set$316,LECIE1-LSCIE1
	.long L$set$316
LSCIE1:
	.long	0x0
	.byte	0x1
	.ascii "zPLR\0"
	.byte	0x1
	.byte	0x7c
	.byte	0x8
	.byte	0x7
	.byte	0x9b
	.long	L___gxx_personality_v0$non_lazy_ptr-.
	.byte	0x10
	.byte	0x10
	.byte	0xc
	.byte	0x5
	.byte	0x4
	.byte	0x88
	.byte	0x1
	.align 2
LECIE1:
.globl __ZSt3minImERKT_S2_S2_.eh
	.weak_definition __ZSt3minImERKT_S2_S2_.eh
__ZSt3minImERKT_S2_S2_.eh:
LSFDE1:
	.set L$set$317,LEFDE1-LASFDE1
	.long L$set$317
LASFDE1:
	.long	LASFDE1-EH_frame1
	.long	LFB2263-.
	.set L$set$318,LFE2263-LFB2263
	.long L$set$318
	.byte	0x4
	.long	0x0
	.byte	0x4
	.set L$set$319,LCFI0-LFB2263
	.long L$set$319
	.byte	0xe
	.byte	0x8
	.byte	0x84
	.byte	0x2
	.byte	0x4
	.set L$set$320,LCFI1-LCFI0
	.long L$set$320
	.byte	0xd
	.byte	0x4
	.align 2
LEFDE1:
__ZStL17__verify_groupingPKcmRKSs.eh:
LSFDE3:
	.set L$set$321,LEFDE3-LASFDE3
	.long L$set$321
LASFDE3:
	.long	LASFDE3-EH_frame1
	.long	LFB1410-.
	.set L$set$322,LFE1410-LFB1410
	.long L$set$322
	.byte	0x4
	.long	0x0
	.byte	0x4
	.set L$set$323,LCFI3-LFB1410
	.long L$set$323
	.byte	0xe
	.byte	0x8
	.byte	0x84
	.byte	0x2
	.byte	0x4
	.set L$set$324,LCFI4-LCFI3
	.long L$set$324
	.byte	0xd
	.byte	0x4
	.byte	0x4
	.set L$set$325,LCFI6-LCFI4
	.long L$set$325
	.byte	0x86
	.byte	0x3
	.align 2
LEFDE3:
.globl __ZNKSt8_Rb_treeIPN2sf11ResourcePtrINS0_5ImageEEES4_St9_IdentityIS4_ESt4lessIS4_ESaIS4_EE4sizeEv.eh
	.private_extern __ZNKSt8_Rb_treeIPN2sf11ResourcePtrINS0_5ImageEEES4_St9_IdentityIS4_ESt4lessIS4_ESaIS4_EE4sizeEv.eh
	.weak_definition __ZNKSt8_Rb_treeIPN2sf11ResourcePtrINS0_5ImageEEES4_St9_IdentityIS4_ESt4lessIS4_ESaIS4_EE4sizeEv.eh
__ZNKSt8_Rb_treeIPN2sf11ResourcePtrINS0_5ImageEEES4_St9_IdentityIS4_ESt4lessIS4_ESaIS4_EE4sizeEv.eh:
LSFDE5:
	.set L$set$326,LEFDE5-LASFDE5
	.long L$set$326
LASFDE5:
	.long	LASFDE5-EH_frame1
	.long	LFB2326-.
	.set L$set$327,LFE2326-LFB2326
	.long L$set$327
	.byte	0x4
	.long	0x0
	.byte	0x4
	.set L$set$328,LCFI7-LFB2326
	.long L$set$328
	.byte	0xe
	.byte	0x8
	.byte	0x84
	.byte	0x2
	.byte	0x4
	.set L$set$329,LCFI8-LCFI7
	.long L$set$329
	.byte	0xd
	.byte	0x4
	.align 2
LEFDE5:
.globl __ZNSt4pairISt17_Rb_tree_iteratorIPN2sf11ResourcePtrINS1_5ImageEEEES6_EC1ERKS6_S9_.eh
	.private_extern __ZNSt4pairISt17_Rb_tree_iteratorIPN2sf11ResourcePtrINS1_5ImageEEEES6_EC1ERKS6_S9_.eh
	.weak_definition __ZNSt4pairISt17_Rb_tree_iteratorIPN2sf11ResourcePtrINS1_5ImageEEEES6_EC1ERKS6_S9_.eh
__ZNSt4pairISt17_Rb_tree_iteratorIPN2sf11ResourcePtrINS1_5ImageEEEES6_EC1ERKS6_S9_.eh:
LSFDE7:
	.set L$set$330,LEFDE7-LASFDE7
	.long L$set$330
LASFDE7:
	.long	LASFDE7-EH_frame1
	.long	LFB2332-.
	.set L$set$331,LFE2332-LFB2332
	.long L$set$331
	.byte	0x4
	.long	0x0
	.byte	0x4
	.set L$set$332,LCFI10-LFB2332
	.long L$set$332
	.byte	0xe
	.byte	0x8
	.byte	0x84
	.byte	0x2
	.byte	0x4
	.set L$set$333,LCFI11-LCFI10
	.long L$set$333
	.byte	0xd
	.byte	0x4
	.align 2
LEFDE7:
.globl __ZNKSt17_Rb_tree_iteratorIPN2sf11ResourcePtrINS0_5ImageEEEEeqERKS5_.eh
	.private_extern __ZNKSt17_Rb_tree_iteratorIPN2sf11ResourcePtrINS0_5ImageEEEEeqERKS5_.eh
	.weak_definition __ZNKSt17_Rb_tree_iteratorIPN2sf11ResourcePtrINS0_5ImageEEEEeqERKS5_.eh
__ZNKSt17_Rb_tree_iteratorIPN2sf11ResourcePtrINS0_5ImageEEEEeqERKS5_.eh:
LSFDE9:
	.set L$set$334,LEFDE9-LASFDE9
	.long L$set$334
LASFDE9:
	.long	LASFDE9-EH_frame1
	.long	LFB2334-.
	.set L$set$335,LFE2334-LFB2334
	.long L$set$335
	.byte	0x4
	.long	0x0
	.byte	0x4
	.set L$set$336,LCFI13-LFB2334
	.long L$set$336
	.byte	0xe
	.byte	0x8
	.byte	0x84
	.byte	0x2
	.byte	0x4
	.set L$set$337,LCFI14-LCFI13
	.long L$set$337
	.byte	0xd
	.byte	0x4
	.align 2
LEFDE9:
.globl __ZNKSt17_Rb_tree_iteratorIPN2sf11ResourcePtrINS0_5ImageEEEEneERKS5_.eh
	.private_extern __ZNKSt17_Rb_tree_iteratorIPN2sf11ResourcePtrINS0_5ImageEEEEneERKS5_.eh
	.weak_definition __ZNKSt17_Rb_tree_iteratorIPN2sf11ResourcePtrINS0_5ImageEEEEneERKS5_.eh
__ZNKSt17_Rb_tree_iteratorIPN2sf11ResourcePtrINS0_5ImageEEEEneERKS5_.eh:
LSFDE11:
	.set L$set$338,LEFDE11-LASFDE11
	.long L$set$338
LASFDE11:
	.long	LASFDE11-EH_frame1
	.long	LFB2337-.
	.set L$set$339,LFE2337-LFB2337
	.long L$set$339
	.byte	0x4
	.long	0x0
	.byte	0x4
	.set L$set$340,LCFI16-LFB2337
	.long L$set$340
	.byte	0xe
	.byte	0x8
	.byte	0x84
	.byte	0x2
	.byte	0x4
	.set L$set$341,LCFI17-LCFI16
	.long L$set$341
	.byte	0xd
	.byte	0x4
	.align 2
LEFDE11:
.globl __ZNSt8_Rb_treeIPN2sf11ResourcePtrINS0_5ImageEEES4_St9_IdentityIS4_ESt4lessIS4_ESaIS4_EE8_M_beginEv.eh
	.private_extern __ZNSt8_Rb_treeIPN2sf11ResourcePtrINS0_5ImageEEES4_St9_IdentityIS4_ESt4lessIS4_ESaIS4_EE8_M_beginEv.eh
	.weak_definition __ZNSt8_Rb_treeIPN2sf11ResourcePtrINS0_5ImageEEES4_St9_IdentityIS4_ESt4lessIS4_ESaIS4_EE8_M_beginEv.eh
__ZNSt8_Rb_treeIPN2sf11ResourcePtrINS0_5ImageEEES4_St9_IdentityIS4_ESt4lessIS4_ESaIS4_EE8_M_beginEv.eh:
LSFDE13:
	.set L$set$342,LEFDE13-LASFDE13
	.long L$set$342
LASFDE13:
	.long	LASFDE13-EH_frame1
	.long	LFB2340-.
	.set L$set$343,LFE2340-LFB2340
	.long L$set$343
	.byte	0x4
	.long	0x0
	.byte	0x4
	.set L$set$344,LCFI19-LFB2340
	.long L$set$344
	.byte	0xe
	.byte	0x8
	.byte	0x84
	.byte	0x2
	.byte	0x4
	.set L$set$345,LCFI20-LCFI19
	.long L$set$345
	.byte	0xd
	.byte	0x4
	.align 2
LEFDE13:
.globl __ZNSt8_Rb_treeIPN2sf11ResourcePtrINS0_5ImageEEES4_St9_IdentityIS4_ESt4lessIS4_ESaIS4_EE6_M_endEv.eh
	.private_extern __ZNSt8_Rb_treeIPN2sf11ResourcePtrINS0_5ImageEEES4_St9_IdentityIS4_ESt4lessIS4_ESaIS4_EE6_M_endEv.eh
	.weak_definition __ZNSt8_Rb_treeIPN2sf11ResourcePtrINS0_5ImageEEES4_St9_IdentityIS4_ESt4lessIS4_ESaIS4_EE6_M_endEv.eh
__ZNSt8_Rb_treeIPN2sf11ResourcePtrINS0_5ImageEEES4_St9_IdentityIS4_ESt4lessIS4_ESaIS4_EE6_M_endEv.eh:
LSFDE15:
	.set L$set$346,LEFDE15-LASFDE15
	.long L$set$346
LASFDE15:
	.long	LASFDE15-EH_frame1
	.long	LFB2341-.
	.set L$set$347,LFE2341-LFB2341
	.long L$set$347
	.byte	0x4
	.long	0x0
	.byte	0x4
	.set L$set$348,LCFI22-LFB2341
	.long L$set$348
	.byte	0xe
	.byte	0x8
	.byte	0x84
	.byte	0x2
	.byte	0x4
	.set L$set$349,LCFI23-LCFI22
	.long L$set$349
	.byte	0xd
	.byte	0x4
	.align 2
LEFDE15:
.globl __ZNSt14unary_functionIPN2sf11ResourcePtrINS0_5ImageEEES4_EC2Ev.eh
	.private_extern __ZNSt14unary_functionIPN2sf11ResourcePtrINS0_5ImageEEES4_EC2Ev.eh
	.weak_definition __ZNSt14unary_functionIPN2sf11ResourcePtrINS0_5ImageEEES4_EC2Ev.eh
__ZNSt14unary_functionIPN2sf11ResourcePtrINS0_5ImageEEES4_EC2Ev.eh:
LSFDE17:
	.set L$set$350,LEFDE17-LASFDE17
	.long L$set$350
LASFDE17:
	.long	LASFDE17-EH_frame1
	.long	LFB2345-.
	.set L$set$351,LFE2345-LFB2345
	.long L$set$351
	.byte	0x4
	.long	0x0
	.byte	0x4
	.set L$set$352,LCFI25-LFB2345
	.long L$set$352
	.byte	0xe
	.byte	0x8
	.byte	0x84
	.byte	0x2
	.byte	0x4
	.set L$set$353,LCFI26-LCFI25
	.long L$set$353
	.byte	0xd
	.byte	0x4
	.align 2
LEFDE17:
.globl __ZNSt9_IdentityIPN2sf11ResourcePtrINS0_5ImageEEEEC1Ev.eh
	.private_extern __ZNSt9_IdentityIPN2sf11ResourcePtrINS0_5ImageEEEEC1Ev.eh
	.weak_definition __ZNSt9_IdentityIPN2sf11ResourcePtrINS0_5ImageEEEEC1Ev.eh
__ZNSt9_IdentityIPN2sf11ResourcePtrINS0_5ImageEEEEC1Ev.eh:
LSFDE19:
	.set L$set$354,LEFDE19-LASFDE19
	.long L$set$354
LASFDE19:
	.long	LASFDE19-EH_frame1
	.long	LFB2348-.
	.set L$set$355,LFE2348-LFB2348
	.long L$set$355
	.byte	0x4
	.long	0x0
	.byte	0x4
	.set L$set$356,LCFI28-LFB2348
	.long L$set$356
	.byte	0xe
	.byte	0x8
	.byte	0x84
	.byte	0x2
	.byte	0x4
	.set L$set$357,LCFI29-LCFI28
	.long L$set$357
	.byte	0xd
	.byte	0x4
	.align 2
LEFDE19:
.globl __ZNKSt4lessIPN2sf11ResourcePtrINS0_5ImageEEEEclERKS4_S7_.eh
	.private_extern __ZNKSt4lessIPN2sf11ResourcePtrINS0_5ImageEEEEclERKS4_S7_.eh
	.weak_definition __ZNKSt4lessIPN2sf11ResourcePtrINS0_5ImageEEEEclERKS4_S7_.eh
__ZNKSt4lessIPN2sf11ResourcePtrINS0_5ImageEEEEclERKS4_S7_.eh:
LSFDE21:
	.set L$set$358,LEFDE21-LASFDE21
	.long L$set$358
LASFDE21:
	.long	LASFDE21-EH_frame1
	.long	LFB2349-.
	.set L$set$359,LFE2349-LFB2349
	.long L$set$359
	.byte	0x4
	.long	0x0
	.byte	0x4
	.set L$set$360,LCFI31-LFB2349
	.long L$set$360
	.byte	0xe
	.byte	0x8
	.byte	0x84
	.byte	0x2
	.byte	0x4
	.set L$set$361,LCFI32-LCFI31
	.long L$set$361
	.byte	0xd
	.byte	0x4
	.align 2
LEFDE21:
.globl __ZNSt8_Rb_treeIPN2sf11ResourcePtrINS0_5ImageEEES4_St9_IdentityIS4_ESt4lessIS4_ESaIS4_EE7_S_leftEPSt18_Rb_tree_node_base.eh
	.private_extern __ZNSt8_Rb_treeIPN2sf11ResourcePtrINS0_5ImageEEES4_St9_IdentityIS4_ESt4lessIS4_ESaIS4_EE7_S_leftEPSt18_Rb_tree_node_base.eh
	.weak_definition __ZNSt8_Rb_treeIPN2sf11ResourcePtrINS0_5ImageEEES4_St9_IdentityIS4_ESt4lessIS4_ESaIS4_EE7_S_leftEPSt18_Rb_tree_node_base.eh
__ZNSt8_Rb_treeIPN2sf11ResourcePtrINS0_5ImageEEES4_St9_IdentityIS4_ESt4lessIS4_ESaIS4_EE7_S_leftEPSt18_Rb_tree_node_base.eh:
LSFDE23:
	.set L$set$362,LEFDE23-LASFDE23
	.long L$set$362
LASFDE23:
	.long	LASFDE23-EH_frame1
	.long	LFB2350-.
	.set L$set$363,LFE2350-LFB2350
	.long L$set$363
	.byte	0x4
	.long	0x0
	.byte	0x4
	.set L$set$364,LCFI34-LFB2350
	.long L$set$364
	.byte	0xe
	.byte	0x8
	.byte	0x84
	.byte	0x2
	.byte	0x4
	.set L$set$365,LCFI35-LCFI34
	.long L$set$365
	.byte	0xd
	.byte	0x4
	.align 2
LEFDE23:
.globl __ZNSt8_Rb_treeIPN2sf11ResourcePtrINS0_5ImageEEES4_St9_IdentityIS4_ESt4lessIS4_ESaIS4_EE8_S_rightEPSt18_Rb_tree_node_base.eh
	.private_extern __ZNSt8_Rb_treeIPN2sf11ResourcePtrINS0_5ImageEEES4_St9_IdentityIS4_ESt4lessIS4_ESaIS4_EE8_S_rightEPSt18_Rb_tree_node_base.eh
	.weak_definition __ZNSt8_Rb_treeIPN2sf11ResourcePtrINS0_5ImageEEES4_St9_IdentityIS4_ESt4lessIS4_ESaIS4_EE8_S_rightEPSt18_Rb_tree_node_base.eh
__ZNSt8_Rb_treeIPN2sf11ResourcePtrINS0_5ImageEEES4_St9_IdentityIS4_ESt4lessIS4_ESaIS4_EE8_S_rightEPSt18_Rb_tree_node_base.eh:
LSFDE25:
	.set L$set$366,LEFDE25-LASFDE25
	.long L$set$366
LASFDE25:
	.long	LASFDE25-EH_frame1
	.long	LFB2351-.
	.set L$set$367,LFE2351-LFB2351
	.long L$set$367
	.byte	0x4
	.long	0x0
	.byte	0x4
	.set L$set$368,LCFI37-LFB2351
	.long L$set$368
	.byte	0xe
	.byte	0x8
	.byte	0x84
	.byte	0x2
	.byte	0x4
	.set L$set$369,LCFI38-LCFI37
	.long L$set$369
	.byte	0xd
	.byte	0x4
	.align 2
LEFDE25:
.globl __ZNSt17_Rb_tree_iteratorIPN2sf11ResourcePtrINS0_5ImageEEEEC1EPSt13_Rb_tree_nodeIS4_E.eh
	.private_extern __ZNSt17_Rb_tree_iteratorIPN2sf11ResourcePtrINS0_5ImageEEEEC1EPSt13_Rb_tree_nodeIS4_E.eh
	.weak_definition __ZNSt17_Rb_tree_iteratorIPN2sf11ResourcePtrINS0_5ImageEEEEC1EPSt13_Rb_tree_nodeIS4_E.eh
__ZNSt17_Rb_tree_iteratorIPN2sf11ResourcePtrINS0_5ImageEEEEC1EPSt13_Rb_tree_nodeIS4_E.eh:
LSFDE27:
	.set L$set$370,LEFDE27-LASFDE27
	.long L$set$370
LASFDE27:
	.long	LASFDE27-EH_frame1
	.long	LFB2354-.
	.set L$set$371,LFE2354-LFB2354
	.long L$set$371
	.byte	0x4
	.long	0x0
	.byte	0x4
	.set L$set$372,LCFI40-LFB2354
	.long L$set$372
	.byte	0xe
	.byte	0x8
	.byte	0x84
	.byte	0x2
	.byte	0x4
	.set L$set$373,LCFI41-LCFI40
	.long L$set$373
	.byte	0xd
	.byte	0x4
	.align 2
LEFDE27:
.globl __ZNSt8_Rb_treeIPN2sf11ResourcePtrINS0_5ImageEEES4_St9_IdentityIS4_ESt4lessIS4_ESaIS4_EE5beginEv.eh
	.private_extern __ZNSt8_Rb_treeIPN2sf11ResourcePtrINS0_5ImageEEES4_St9_IdentityIS4_ESt4lessIS4_ESaIS4_EE5beginEv.eh
	.weak_definition __ZNSt8_Rb_treeIPN2sf11ResourcePtrINS0_5ImageEEES4_St9_IdentityIS4_ESt4lessIS4_ESaIS4_EE5beginEv.eh
__ZNSt8_Rb_treeIPN2sf11ResourcePtrINS0_5ImageEEES4_St9_IdentityIS4_ESt4lessIS4_ESaIS4_EE5beginEv.eh:
LSFDE29:
	.set L$set$374,LEFDE29-LASFDE29
	.long L$set$374
LASFDE29:
	.long	LASFDE29-EH_frame1
	.long	LFB2335-.
	.set L$set$375,LFE2335-LFB2335
	.long L$set$375
	.byte	0x4
	.long	0x0
	.byte	0x4
	.set L$set$376,LCFI43-LFB2335
	.long L$set$376
	.byte	0xe
	.byte	0x8
	.byte	0x84
	.byte	0x2
	.byte	0x4
	.set L$set$377,LCFI44-LCFI43
	.long L$set$377
	.byte	0xd
	.byte	0x4
	.align 2
LEFDE29:
.globl __ZNSt8_Rb_treeIPN2sf11ResourcePtrINS0_5ImageEEES4_St9_IdentityIS4_ESt4lessIS4_ESaIS4_EE3endEv.eh
	.private_extern __ZNSt8_Rb_treeIPN2sf11ResourcePtrINS0_5ImageEEES4_St9_IdentityIS4_ESt4lessIS4_ESaIS4_EE3endEv.eh
	.weak_definition __ZNSt8_Rb_treeIPN2sf11ResourcePtrINS0_5ImageEEES4_St9_IdentityIS4_ESt4lessIS4_ESaIS4_EE3endEv.eh
__ZNSt8_Rb_treeIPN2sf11ResourcePtrINS0_5ImageEEES4_St9_IdentityIS4_ESt4lessIS4_ESaIS4_EE3endEv.eh:
LSFDE31:
	.set L$set$378,LEFDE31-LASFDE31
	.long L$set$378
LASFDE31:
	.long	LASFDE31-EH_frame1
	.long	LFB2333-.
	.set L$set$379,LFE2333-LFB2333
	.long L$set$379
	.byte	0x4
	.long	0x0
	.byte	0x4
	.set L$set$380,LCFI46-LFB2333
	.long L$set$380
	.byte	0xe
	.byte	0x8
	.byte	0x84
	.byte	0x2
	.byte	0x4
	.set L$set$381,LCFI47-LCFI46
	.long L$set$381
	.byte	0xd
	.byte	0x4
	.align 2
LEFDE31:
.globl __ZNSt8_Rb_treeIPN2sf11ResourcePtrINS0_5ImageEEES4_St9_IdentityIS4_ESt4lessIS4_ESaIS4_EE11_M_leftmostEv.eh
	.private_extern __ZNSt8_Rb_treeIPN2sf11ResourcePtrINS0_5ImageEEES4_St9_IdentityIS4_ESt4lessIS4_ESaIS4_EE11_M_leftmostEv.eh
	.weak_definition __ZNSt8_Rb_treeIPN2sf11ResourcePtrINS0_5ImageEEES4_St9_IdentityIS4_ESt4lessIS4_ESaIS4_EE11_M_leftmostEv.eh
__ZNSt8_Rb_treeIPN2sf11ResourcePtrINS0_5ImageEEES4_St9_IdentityIS4_ESt4lessIS4_ESaIS4_EE11_M_leftmostEv.eh:
LSFDE33:
	.set L$set$382,LEFDE33-LASFDE33
	.long L$set$382
LASFDE33:
	.long	LASFDE33-EH_frame1
	.long	LFB2356-.
	.set L$set$383,LFE2356-LFB2356
	.long L$set$383
	.byte	0x4
	.long	0x0
	.byte	0x4
	.set L$set$384,LCFI49-LFB2356
	.long L$set$384
	.byte	0xe
	.byte	0x8
	.byte	0x84
	.byte	0x2
	.byte	0x4
	.set L$set$385,LCFI50-LCFI49
	.long L$set$385
	.byte	0xd
	.byte	0x4
	.align 2
LEFDE33:
.globl __ZNSt8_Rb_treeIPN2sf11ResourcePtrINS0_5ImageEEES4_St9_IdentityIS4_ESt4lessIS4_ESaIS4_EE7_M_rootEv.eh
	.private_extern __ZNSt8_Rb_treeIPN2sf11ResourcePtrINS0_5ImageEEES4_St9_IdentityIS4_ESt4lessIS4_ESaIS4_EE7_M_rootEv.eh
	.weak_definition __ZNSt8_Rb_treeIPN2sf11ResourcePtrINS0_5ImageEEES4_St9_IdentityIS4_ESt4lessIS4_ESaIS4_EE7_M_rootEv.eh
__ZNSt8_Rb_treeIPN2sf11ResourcePtrINS0_5ImageEEES4_St9_IdentityIS4_ESt4lessIS4_ESaIS4_EE7_M_rootEv.eh:
LSFDE35:
	.set L$set$386,LEFDE35-LASFDE35
	.long L$set$386
LASFDE35:
	.long	LASFDE35-EH_frame1
	.long	LFB2357-.
	.set L$set$387,LFE2357-LFB2357
	.long L$set$387
	.byte	0x4
	.long	0x0
	.byte	0x4
	.set L$set$388,LCFI52-LFB2357
	.long L$set$388
	.byte	0xe
	.byte	0x8
	.byte	0x84
	.byte	0x2
	.byte	0x4
	.set L$set$389,LCFI53-LCFI52
	.long L$set$389
	.byte	0xd
	.byte	0x4
	.align 2
LEFDE35:
.globl __ZNSt8_Rb_treeIPN2sf11ResourcePtrINS0_5ImageEEES4_St9_IdentityIS4_ESt4lessIS4_ESaIS4_EE12_M_rightmostEv.eh
	.private_extern __ZNSt8_Rb_treeIPN2sf11ResourcePtrINS0_5ImageEEES4_St9_IdentityIS4_ESt4lessIS4_ESaIS4_EE12_M_rightmostEv.eh
	.weak_definition __ZNSt8_Rb_treeIPN2sf11ResourcePtrINS0_5ImageEEES4_St9_IdentityIS4_ESt4lessIS4_ESaIS4_EE12_M_rightmostEv.eh
__ZNSt8_Rb_treeIPN2sf11ResourcePtrINS0_5ImageEEES4_St9_IdentityIS4_ESt4lessIS4_ESaIS4_EE12_M_rightmostEv.eh:
LSFDE37:
	.set L$set$390,LEFDE37-LASFDE37
	.long L$set$390
LASFDE37:
	.long	LASFDE37-EH_frame1
	.long	LFB2358-.
	.set L$set$391,LFE2358-LFB2358
	.long L$set$391
	.byte	0x4
	.long	0x0
	.byte	0x4
	.set L$set$392,LCFI55-LFB2358
	.long L$set$392
	.byte	0xe
	.byte	0x8
	.byte	0x84
	.byte	0x2
	.byte	0x4
	.set L$set$393,LCFI56-LCFI55
	.long L$set$393
	.byte	0xd
	.byte	0x4
	.align 2
LEFDE37:
.globl __ZNSt8_Rb_treeIPN2sf11ResourcePtrINS0_5ImageEEES4_St9_IdentityIS4_ESt4lessIS4_ESaIS4_EE8_S_valueEPKSt13_Rb_tree_nodeIS4_E.eh
	.private_extern __ZNSt8_Rb_treeIPN2sf11ResourcePtrINS0_5ImageEEES4_St9_IdentityIS4_ESt4lessIS4_ESaIS4_EE8_S_valueEPKSt13_Rb_tree_nodeIS4_E.eh
	.weak_definition __ZNSt8_Rb_treeIPN2sf11ResourcePtrINS0_5ImageEEES4_St9_IdentityIS4_ESt4lessIS4_ESaIS4_EE8_S_valueEPKSt13_Rb_tree_nodeIS4_E.eh
__ZNSt8_Rb_treeIPN2sf11ResourcePtrINS0_5ImageEEES4_St9_IdentityIS4_ESt4lessIS4_ESaIS4_EE8_S_valueEPKSt13_Rb_tree_nodeIS4_E.eh:
LSFDE39:
	.set L$set$394,LEFDE39-LASFDE39
	.long L$set$394
LASFDE39:
	.long	LASFDE39-EH_frame1
	.long	LFB2360-.
	.set L$set$395,LFE2360-LFB2360
	.long L$set$395
	.byte	0x4
	.long	0x0
	.byte	0x4
	.set L$set$396,LCFI58-LFB2360
	.long L$set$396
	.byte	0xe
	.byte	0x8
	.byte	0x84
	.byte	0x2
	.byte	0x4
	.set L$set$397,LCFI59-LCFI58
	.long L$set$397
	.byte	0xd
	.byte	0x4
	.align 2
LEFDE39:
.globl __ZNKSt9_IdentityIPN2sf11ResourcePtrINS0_5ImageEEEEclERKS4_.eh
	.private_extern __ZNKSt9_IdentityIPN2sf11ResourcePtrINS0_5ImageEEEEclERKS4_.eh
	.weak_definition __ZNKSt9_IdentityIPN2sf11ResourcePtrINS0_5ImageEEEEclERKS4_.eh
__ZNKSt9_IdentityIPN2sf11ResourcePtrINS0_5ImageEEEEclERKS4_.eh:
LSFDE41:
	.set L$set$398,LEFDE41-LASFDE41
	.long L$set$398
LASFDE41:
	.long	LASFDE41-EH_frame1
	.long	LFB2361-.
	.set L$set$399,LFE2361-LFB2361
	.long L$set$399
	.byte	0x4
	.long	0x0
	.byte	0x4
	.set L$set$400,LCFI61-LFB2361
	.long L$set$400
	.byte	0xe
	.byte	0x8
	.byte	0x84
	.byte	0x2
	.byte	0x4
	.set L$set$401,LCFI62-LCFI61
	.long L$set$401
	.byte	0xd
	.byte	0x4
	.align 2
LEFDE41:
.globl __ZNSt8_Rb_treeIPN2sf11ResourcePtrINS0_5ImageEEES4_St9_IdentityIS4_ESt4lessIS4_ESaIS4_EE6_S_keyEPKSt13_Rb_tree_nodeIS4_E.eh
	.private_extern __ZNSt8_Rb_treeIPN2sf11ResourcePtrINS0_5ImageEEES4_St9_IdentityIS4_ESt4lessIS4_ESaIS4_EE6_S_keyEPKSt13_Rb_tree_nodeIS4_E.eh
	.weak_definition __ZNSt8_Rb_treeIPN2sf11ResourcePtrINS0_5ImageEEES4_St9_IdentityIS4_ESt4lessIS4_ESaIS4_EE6_S_keyEPKSt13_Rb_tree_nodeIS4_E.eh
__ZNSt8_Rb_treeIPN2sf11ResourcePtrINS0_5ImageEEES4_St9_IdentityIS4_ESt4lessIS4_ESaIS4_EE6_S_keyEPKSt13_Rb_tree_nodeIS4_E.eh:
LSFDE43:
	.set L$set$402,LEFDE43-LASFDE43
	.long L$set$402
LASFDE43:
	.long	LASFDE43-EH_frame1
	.long	LFB2342-.
	.set L$set$403,LFE2342-LFB2342
	.long L$set$403
	.byte	0x4
	.long	0x0
	.byte	0x4
	.set L$set$404,LCFI64-LFB2342
	.long L$set$404
	.byte	0xe
	.byte	0x8
	.byte	0x84
	.byte	0x2
	.byte	0x4
	.set L$set$405,LCFI65-LCFI64
	.long L$set$405
	.byte	0xd
	.byte	0x4
	.byte	0x4
	.set L$set$406,LCFI67-LCFI65
	.long L$set$406
	.byte	0x86
	.byte	0x3
	.align 2
LEFDE43:
.globl __ZNSt8_Rb_treeIPN2sf11ResourcePtrINS0_5ImageEEES4_St9_IdentityIS4_ESt4lessIS4_ESaIS4_EE11upper_boundERKS4_.eh
	.weak_definition __ZNSt8_Rb_treeIPN2sf11ResourcePtrINS0_5ImageEEES4_St9_IdentityIS4_ESt4lessIS4_ESaIS4_EE11upper_boundERKS4_.eh
__ZNSt8_Rb_treeIPN2sf11ResourcePtrINS0_5ImageEEES4_St9_IdentityIS4_ESt4lessIS4_ESaIS4_EE11upper_boundERKS4_.eh:
LSFDE45:
	.set L$set$407,LEFDE45-LASFDE45
	.long L$set$407
LASFDE45:
	.long	LASFDE45-EH_frame1
	.long	LFB2329-.
	.set L$set$408,LFE2329-LFB2329
	.long L$set$408
	.byte	0x4
	.long	0x0
	.byte	0x4
	.set L$set$409,LCFI68-LFB2329
	.long L$set$409
	.byte	0xe
	.byte	0x8
	.byte	0x84
	.byte	0x2
	.byte	0x4
	.set L$set$410,LCFI69-LCFI68
	.long L$set$410
	.byte	0xd
	.byte	0x4
	.align 2
LEFDE45:
.globl __ZNSt8_Rb_treeIPN2sf11ResourcePtrINS0_5ImageEEES4_St9_IdentityIS4_ESt4lessIS4_ESaIS4_EE11lower_boundERKS4_.eh
	.weak_definition __ZNSt8_Rb_treeIPN2sf11ResourcePtrINS0_5ImageEEES4_St9_IdentityIS4_ESt4lessIS4_ESaIS4_EE11lower_boundERKS4_.eh
__ZNSt8_Rb_treeIPN2sf11ResourcePtrINS0_5ImageEEES4_St9_IdentityIS4_ESt4lessIS4_ESaIS4_EE11lower_boundERKS4_.eh:
LSFDE47:
	.set L$set$411,LEFDE47-LASFDE47
	.long L$set$411
LASFDE47:
	.long	LASFDE47-EH_frame1
	.long	LFB2328-.
	.set L$set$412,LFE2328-LFB2328
	.long L$set$412
	.byte	0x4
	.long	0x0
	.byte	0x4
	.set L$set$413,LCFI71-LFB2328
	.long L$set$413
	.byte	0xe
	.byte	0x8
	.byte	0x84
	.byte	0x2
	.byte	0x4
	.set L$set$414,LCFI72-LCFI71
	.long L$set$414
	.byte	0xd
	.byte	0x4
	.align 2
LEFDE47:
.globl __ZNSt8_Rb_treeIPN2sf11ResourcePtrINS0_5ImageEEES4_St9_IdentityIS4_ESt4lessIS4_ESaIS4_EE11equal_rangeERKS4_.eh
	.private_extern __ZNSt8_Rb_treeIPN2sf11ResourcePtrINS0_5ImageEEES4_St9_IdentityIS4_ESt4lessIS4_ESaIS4_EE11equal_rangeERKS4_.eh
	.weak_definition __ZNSt8_Rb_treeIPN2sf11ResourcePtrINS0_5ImageEEES4_St9_IdentityIS4_ESt4lessIS4_ESaIS4_EE11equal_rangeERKS4_.eh
__ZNSt8_Rb_treeIPN2sf11ResourcePtrINS0_5ImageEEES4_St9_IdentityIS4_ESt4lessIS4_ESaIS4_EE11equal_rangeERKS4_.eh:
LSFDE49:
	.set L$set$415,LEFDE49-LASFDE49
	.long L$set$415
LASFDE49:
	.long	LASFDE49-EH_frame1
	.long	LFB2325-.
	.set L$set$416,LFE2325-LFB2325
	.long L$set$416
	.byte	0x4
	.long	0x0
	.byte	0x4
	.set L$set$417,LCFI74-LFB2325
	.long L$set$417
	.byte	0xe
	.byte	0x8
	.byte	0x84
	.byte	0x2
	.byte	0x4
	.set L$set$418,LCFI75-LCFI74
	.long L$set$418
	.byte	0xd
	.byte	0x4
	.align 2
LEFDE49:
.globl __ZN9__gnu_cxx13new_allocatorIPN2sf11ResourcePtrINS1_5ImageEEEE7destroyEPS5_.eh
	.private_extern __ZN9__gnu_cxx13new_allocatorIPN2sf11ResourcePtrINS1_5ImageEEEE7destroyEPS5_.eh
	.weak_definition __ZN9__gnu_cxx13new_allocatorIPN2sf11ResourcePtrINS1_5ImageEEEE7destroyEPS5_.eh
__ZN9__gnu_cxx13new_allocatorIPN2sf11ResourcePtrINS1_5ImageEEEE7destroyEPS5_.eh:
LSFDE51:
	.set L$set$419,LEFDE51-LASFDE51
	.long L$set$419
LASFDE51:
	.long	LASFDE51-EH_frame1
	.long	LFB2366-.
	.set L$set$420,LFE2366-LFB2366
	.long L$set$420
	.byte	0x4
	.long	0x0
	.byte	0x4
	.set L$set$421,LCFI77-LFB2366
	.long L$set$421
	.byte	0xe
	.byte	0x8
	.byte	0x84
	.byte	0x2
	.byte	0x4
	.set L$set$422,LCFI78-LCFI77
	.long L$set$422
	.byte	0xd
	.byte	0x4
	.align 2
LEFDE51:
.globl __ZNKSt8_Rb_treeIPN2sf11ResourcePtrINS0_5ImageEEES4_St9_IdentityIS4_ESt4lessIS4_ESaIS4_EE21_M_get_Node_allocatorEv.eh
	.private_extern __ZNKSt8_Rb_treeIPN2sf11ResourcePtrINS0_5ImageEEES4_St9_IdentityIS4_ESt4lessIS4_ESaIS4_EE21_M_get_Node_allocatorEv.eh
	.weak_definition __ZNKSt8_Rb_treeIPN2sf11ResourcePtrINS0_5ImageEEES4_St9_IdentityIS4_ESt4lessIS4_ESaIS4_EE21_M_get_Node_allocatorEv.eh
__ZNKSt8_Rb_treeIPN2sf11ResourcePtrINS0_5ImageEEES4_St9_IdentityIS4_ESt4lessIS4_ESaIS4_EE21_M_get_Node_allocatorEv.eh:
LSFDE53:
	.set L$set$423,LEFDE53-LASFDE53
	.long L$set$423
LASFDE53:
	.long	LASFDE53-EH_frame1
	.long	LFB2368-.
	.set L$set$424,LFE2368-LFB2368
	.long L$set$424
	.byte	0x4
	.long	0x0
	.byte	0x4
	.set L$set$425,LCFI80-LFB2368
	.long L$set$425
	.byte	0xe
	.byte	0x8
	.byte	0x84
	.byte	0x2
	.byte	0x4
	.set L$set$426,LCFI81-LCFI80
	.long L$set$426
	.byte	0xd
	.byte	0x4
	.align 2
LEFDE53:
.globl __ZN9__gnu_cxx13new_allocatorIPN2sf11ResourcePtrINS1_5ImageEEEED2Ev.eh
	.private_extern __ZN9__gnu_cxx13new_allocatorIPN2sf11ResourcePtrINS1_5ImageEEEED2Ev.eh
	.weak_definition __ZN9__gnu_cxx13new_allocatorIPN2sf11ResourcePtrINS1_5ImageEEEED2Ev.eh
__ZN9__gnu_cxx13new_allocatorIPN2sf11ResourcePtrINS1_5ImageEEEED2Ev.eh:
LSFDE55:
	.set L$set$427,LEFDE55-LASFDE55
	.long L$set$427
LASFDE55:
	.long	LASFDE55-EH_frame1
	.long	LFB2376-.
	.set L$set$428,LFE2376-LFB2376
	.long L$set$428
	.byte	0x4
	.long	0x0
	.byte	0x4
	.set L$set$429,LCFI83-LFB2376
	.long L$set$429
	.byte	0xe
	.byte	0x8
	.byte	0x84
	.byte	0x2
	.byte	0x4
	.set L$set$430,LCFI84-LCFI83
	.long L$set$430
	.byte	0xd
	.byte	0x4
	.align 2
LEFDE55:
.globl __ZNSaIPN2sf11ResourcePtrINS_5ImageEEEED1Ev.eh
	.private_extern __ZNSaIPN2sf11ResourcePtrINS_5ImageEEEED1Ev.eh
	.weak_definition __ZNSaIPN2sf11ResourcePtrINS_5ImageEEEED1Ev.eh
__ZNSaIPN2sf11ResourcePtrINS_5ImageEEEED1Ev.eh:
LSFDE57:
	.set L$set$431,LEFDE57-LASFDE57
	.long L$set$431
LASFDE57:
	.long	LASFDE57-EH_frame1
	.long	LFB2365-.
	.set L$set$432,LFE2365-LFB2365
	.long L$set$432
	.byte	0x4
	.long	0x0
	.byte	0x4
	.set L$set$433,LCFI86-LFB2365
	.long L$set$433
	.byte	0xe
	.byte	0x8
	.byte	0x84
	.byte	0x2
	.byte	0x4
	.set L$set$434,LCFI87-LCFI86
	.long L$set$434
	.byte	0xd
	.byte	0x4
	.align 2
LEFDE57:
.globl __ZN9__gnu_cxx13new_allocatorIPN2sf11ResourcePtrINS1_5ImageEEEEC2Ev.eh
	.private_extern __ZN9__gnu_cxx13new_allocatorIPN2sf11ResourcePtrINS1_5ImageEEEEC2Ev.eh
	.weak_definition __ZN9__gnu_cxx13new_allocatorIPN2sf11ResourcePtrINS1_5ImageEEEEC2Ev.eh
__ZN9__gnu_cxx13new_allocatorIPN2sf11ResourcePtrINS1_5ImageEEEEC2Ev.eh:
LSFDE59:
	.set L$set$435,LEFDE59-LASFDE59
	.long L$set$435
LASFDE59:
	.long	LASFDE59-EH_frame1
	.long	LFB2380-.
	.set L$set$436,LFE2380-LFB2380
	.long L$set$436
	.byte	0x4
	.long	0x0
	.byte	0x4
	.set L$set$437,LCFI89-LFB2380
	.long L$set$437
	.byte	0xe
	.byte	0x8
	.byte	0x84
	.byte	0x2
	.byte	0x4
	.set L$set$438,LCFI90-LCFI89
	.long L$set$438
	.byte	0xd
	.byte	0x4
	.align 2
LEFDE59:
.globl __ZNSaIPN2sf11ResourcePtrINS_5ImageEEEEC1ISt13_Rb_tree_nodeIS3_EEERKSaIT_E.eh
	.private_extern __ZNSaIPN2sf11ResourcePtrINS_5ImageEEEEC1ISt13_Rb_tree_nodeIS3_EEERKSaIT_E.eh
	.weak_definition __ZNSaIPN2sf11ResourcePtrINS_5ImageEEEEC1ISt13_Rb_tree_nodeIS3_EEERKSaIT_E.eh
__ZNSaIPN2sf11ResourcePtrINS_5ImageEEEEC1ISt13_Rb_tree_nodeIS3_EEERKSaIT_E.eh:
LSFDE61:
	.set L$set$439,LEFDE61-LASFDE61
	.long L$set$439
LASFDE61:
	.long	LASFDE61-EH_frame1
	.long	LFB2371-.
	.set L$set$440,LFE2371-LFB2371
	.long L$set$440
	.byte	0x4
	.long	0x0
	.byte	0x4
	.set L$set$441,LCFI92-LFB2371
	.long L$set$441
	.byte	0xe
	.byte	0x8
	.byte	0x84
	.byte	0x2
	.byte	0x4
	.set L$set$442,LCFI93-LCFI92
	.long L$set$442
	.byte	0xd
	.byte	0x4
	.align 2
LEFDE61:
.globl __ZNKSt8_Rb_treeIPN2sf11ResourcePtrINS0_5ImageEEES4_St9_IdentityIS4_ESt4lessIS4_ESaIS4_EE13get_allocatorEv.eh
	.private_extern __ZNKSt8_Rb_treeIPN2sf11ResourcePtrINS0_5ImageEEES4_St9_IdentityIS4_ESt4lessIS4_ESaIS4_EE13get_allocatorEv.eh
	.weak_definition __ZNKSt8_Rb_treeIPN2sf11ResourcePtrINS0_5ImageEEES4_St9_IdentityIS4_ESt4lessIS4_ESaIS4_EE13get_allocatorEv.eh
__ZNKSt8_Rb_treeIPN2sf11ResourcePtrINS0_5ImageEEES4_St9_IdentityIS4_ESt4lessIS4_ESaIS4_EE13get_allocatorEv.eh:
LSFDE63:
	.set L$set$443,LEFDE63-LASFDE63
	.long L$set$443
LASFDE63:
	.long	LASFDE63-EH_frame1
	.long	LFB2362-.
	.set L$set$444,LFE2362-LFB2362
	.long L$set$444
	.byte	0x4
	.long	0x0
	.byte	0x4
	.set L$set$445,LCFI95-LFB2362
	.long L$set$445
	.byte	0xe
	.byte	0x8
	.byte	0x84
	.byte	0x2
	.byte	0x4
	.set L$set$446,LCFI96-LCFI95
	.long L$set$446
	.byte	0xd
	.byte	0x4
	.byte	0x4
	.set L$set$447,LCFI99-LCFI96
	.long L$set$447
	.byte	0x86
	.byte	0x4
	.byte	0x87
	.byte	0x3
	.align 2
LEFDE63:
__Z41__static_initialization_and_destruction_0ii.eh:
LSFDE65:
	.set L$set$448,LEFDE65-LASFDE65
	.long L$set$448
LASFDE65:
	.long	LASFDE65-EH_frame1
	.long	LFB2385-.
	.set L$set$449,LFE2385-LFB2385
	.long L$set$449
	.byte	0x4
	.long	0x0
	.byte	0x4
	.set L$set$450,LCFI100-LFB2385
	.long L$set$450
	.byte	0xe
	.byte	0x8
	.byte	0x84
	.byte	0x2
	.byte	0x4
	.set L$set$451,LCFI101-LCFI100
	.long L$set$451
	.byte	0xd
	.byte	0x4
	.byte	0x4
	.set L$set$452,LCFI103-LCFI101
	.long L$set$452
	.byte	0x83
	.byte	0x3
	.align 2
LEFDE65:
__GLOBAL__I__Z20Afficher_case_centreRN2sf12RenderWindowE.eh:
LSFDE67:
	.set L$set$453,LEFDE67-LASFDE67
	.long L$set$453
LASFDE67:
	.long	LASFDE67-EH_frame1
	.long	LFB2387-.
	.set L$set$454,LFE2387-LFB2387
	.long L$set$454
	.byte	0x4
	.long	0x0
	.byte	0x4
	.set L$set$455,LCFI104-LFB2387
	.long L$set$455
	.byte	0xe
	.byte	0x8
	.byte	0x84
	.byte	0x2
	.byte	0x4
	.set L$set$456,LCFI105-LCFI104
	.long L$set$456
	.byte	0xd
	.byte	0x4
	.align 2
LEFDE67:
___tcf_0.eh:
LSFDE69:
	.set L$set$457,LEFDE69-LASFDE69
	.long L$set$457
LASFDE69:
	.long	LASFDE69-EH_frame1
	.long	LFB2386-.
	.set L$set$458,LFE2386-LFB2386
	.long L$set$458
	.byte	0x4
	.long	0x0
	.byte	0x4
	.set L$set$459,LCFI107-LFB2386
	.long L$set$459
	.byte	0xe
	.byte	0x8
	.byte	0x84
	.byte	0x2
	.byte	0x4
	.set L$set$460,LCFI108-LCFI107
	.long L$set$460
	.byte	0xd
	.byte	0x4
	.byte	0x4
	.set L$set$461,LCFI110-LCFI108
	.long L$set$461
	.byte	0x83
	.byte	0x3
	.align 2
LEFDE69:
.globl __ZN9__gnu_cxx13new_allocatorISt13_Rb_tree_nodeIPN2sf11ResourcePtrINS2_5ImageEEEEE10deallocateEPS7_m.eh
	.private_extern __ZN9__gnu_cxx13new_allocatorISt13_Rb_tree_nodeIPN2sf11ResourcePtrINS2_5ImageEEEEE10deallocateEPS7_m.eh
	.weak_definition __ZN9__gnu_cxx13new_allocatorISt13_Rb_tree_nodeIPN2sf11ResourcePtrINS2_5ImageEEEEE10deallocateEPS7_m.eh
__ZN9__gnu_cxx13new_allocatorISt13_Rb_tree_nodeIPN2sf11ResourcePtrINS2_5ImageEEEEE10deallocateEPS7_m.eh:
LSFDE71:
	.set L$set$462,LEFDE71-LASFDE71
	.long L$set$462
LASFDE71:
	.long	LASFDE71-EH_frame1
	.long	LFB2378-.
	.set L$set$463,LFE2378-LFB2378
	.long L$set$463
	.byte	0x4
	.long	0x0
	.byte	0x4
	.set L$set$464,LCFI111-LFB2378
	.long L$set$464
	.byte	0xe
	.byte	0x8
	.byte	0x84
	.byte	0x2
	.byte	0x4
	.set L$set$465,LCFI112-LCFI111
	.long L$set$465
	.byte	0xd
	.byte	0x4
	.align 2
LEFDE71:
.globl __ZNSt8_Rb_treeIPN2sf11ResourcePtrINS0_5ImageEEES4_St9_IdentityIS4_ESt4lessIS4_ESaIS4_EE11_M_put_nodeEPSt13_Rb_tree_nodeIS4_E.eh
	.private_extern __ZNSt8_Rb_treeIPN2sf11ResourcePtrINS0_5ImageEEES4_St9_IdentityIS4_ESt4lessIS4_ESaIS4_EE11_M_put_nodeEPSt13_Rb_tree_nodeIS4_E.eh
	.weak_definition __ZNSt8_Rb_treeIPN2sf11ResourcePtrINS0_5ImageEEES4_St9_IdentityIS4_ESt4lessIS4_ESaIS4_EE11_M_put_nodeEPSt13_Rb_tree_nodeIS4_E.eh
__ZNSt8_Rb_treeIPN2sf11ResourcePtrINS0_5ImageEEES4_St9_IdentityIS4_ESt4lessIS4_ESaIS4_EE11_M_put_nodeEPSt13_Rb_tree_nodeIS4_E.eh:
LSFDE73:
	.set L$set$466,LEFDE73-LASFDE73
	.long L$set$466
LASFDE73:
	.long	LASFDE73-EH_frame1
	.long	LFB2367-.
	.set L$set$467,LFE2367-LFB2367
	.long L$set$467
	.byte	0x4
	.long	0x0
	.byte	0x4
	.set L$set$468,LCFI114-LFB2367
	.long L$set$468
	.byte	0xe
	.byte	0x8
	.byte	0x84
	.byte	0x2
	.byte	0x4
	.set L$set$469,LCFI115-LCFI114
	.long L$set$469
	.byte	0xd
	.byte	0x4
	.align 2
LEFDE73:
.globl __ZNSt8_Rb_treeIPN2sf11ResourcePtrINS0_5ImageEEES4_St9_IdentityIS4_ESt4lessIS4_ESaIS4_EE15_M_destroy_nodeEPSt13_Rb_tree_nodeIS4_E.eh
	.private_extern __ZNSt8_Rb_treeIPN2sf11ResourcePtrINS0_5ImageEEES4_St9_IdentityIS4_ESt4lessIS4_ESaIS4_EE15_M_destroy_nodeEPSt13_Rb_tree_nodeIS4_E.eh
	.weak_definition __ZNSt8_Rb_treeIPN2sf11ResourcePtrINS0_5ImageEEES4_St9_IdentityIS4_ESt4lessIS4_ESaIS4_EE15_M_destroy_nodeEPSt13_Rb_tree_nodeIS4_E.eh
__ZNSt8_Rb_treeIPN2sf11ResourcePtrINS0_5ImageEEES4_St9_IdentityIS4_ESt4lessIS4_ESaIS4_EE15_M_destroy_nodeEPSt13_Rb_tree_nodeIS4_E.eh:
LSFDE75:
	.set L$set$470,LEFDE75-LASFDE75
	.long L$set$470
LASFDE75:
	.long	LASFDE75-EH_frame1
	.long	LFB2359-.
	.set L$set$471,LFE2359-LFB2359
	.long L$set$471
	.byte	0x4
	.long	0x0
	.byte	0x4
	.set L$set$472,LCFI117-LFB2359
	.long L$set$472
	.byte	0xe
	.byte	0x8
	.byte	0x84
	.byte	0x2
	.byte	0x4
	.set L$set$473,LCFI118-LCFI117
	.long L$set$473
	.byte	0xd
	.byte	0x4
	.byte	0x4
	.set L$set$474,LCFI120-LCFI118
	.long L$set$474
	.byte	0x86
	.byte	0x3
	.align 2
LEFDE75:
.globl __ZNSt8_Rb_treeIPN2sf11ResourcePtrINS0_5ImageEEES4_St9_IdentityIS4_ESt4lessIS4_ESaIS4_EE8_M_eraseEPSt13_Rb_tree_nodeIS4_E.eh
	.weak_definition __ZNSt8_Rb_treeIPN2sf11ResourcePtrINS0_5ImageEEES4_St9_IdentityIS4_ESt4lessIS4_ESaIS4_EE8_M_eraseEPSt13_Rb_tree_nodeIS4_E.eh
__ZNSt8_Rb_treeIPN2sf11ResourcePtrINS0_5ImageEEES4_St9_IdentityIS4_ESt4lessIS4_ESaIS4_EE8_M_eraseEPSt13_Rb_tree_nodeIS4_E.eh:
LSFDE77:
	.set L$set$475,LEFDE77-LASFDE77
	.long L$set$475
LASFDE77:
	.long	LASFDE77-EH_frame1
	.long	LFB2355-.
	.set L$set$476,LFE2355-LFB2355
	.long L$set$476
	.byte	0x4
	.long	0x0
	.byte	0x4
	.set L$set$477,LCFI121-LFB2355
	.long L$set$477
	.byte	0xe
	.byte	0x8
	.byte	0x84
	.byte	0x2
	.byte	0x4
	.set L$set$478,LCFI122-LCFI121
	.long L$set$478
	.byte	0xd
	.byte	0x4
	.align 2
LEFDE77:
.globl __ZNSt8_Rb_treeIPN2sf11ResourcePtrINS0_5ImageEEES4_St9_IdentityIS4_ESt4lessIS4_ESaIS4_EE5clearEv.eh
	.private_extern __ZNSt8_Rb_treeIPN2sf11ResourcePtrINS0_5ImageEEES4_St9_IdentityIS4_ESt4lessIS4_ESaIS4_EE5clearEv.eh
	.weak_definition __ZNSt8_Rb_treeIPN2sf11ResourcePtrINS0_5ImageEEES4_St9_IdentityIS4_ESt4lessIS4_ESaIS4_EE5clearEv.eh
__ZNSt8_Rb_treeIPN2sf11ResourcePtrINS0_5ImageEEES4_St9_IdentityIS4_ESt4lessIS4_ESaIS4_EE5clearEv.eh:
LSFDE79:
	.set L$set$479,LEFDE79-LASFDE79
	.long L$set$479
LASFDE79:
	.long	LASFDE79-EH_frame1
	.long	LFB2336-.
	.set L$set$480,LFE2336-LFB2336
	.long L$set$480
	.byte	0x4
	.long	0x0
	.byte	0x4
	.set L$set$481,LCFI124-LFB2336
	.long L$set$481
	.byte	0xe
	.byte	0x8
	.byte	0x84
	.byte	0x2
	.byte	0x4
	.set L$set$482,LCFI125-LCFI124
	.long L$set$482
	.byte	0xd
	.byte	0x4
	.byte	0x4
	.set L$set$483,LCFI127-LCFI125
	.long L$set$483
	.byte	0x86
	.byte	0x3
	.align 2
LEFDE79:
.globl __ZNSt17_Rb_tree_iteratorIPN2sf11ResourcePtrINS0_5ImageEEEEppEi.eh
	.private_extern __ZNSt17_Rb_tree_iteratorIPN2sf11ResourcePtrINS0_5ImageEEEEppEi.eh
	.weak_definition __ZNSt17_Rb_tree_iteratorIPN2sf11ResourcePtrINS0_5ImageEEEEppEi.eh
__ZNSt17_Rb_tree_iteratorIPN2sf11ResourcePtrINS0_5ImageEEEEppEi.eh:
LSFDE81:
	.set L$set$484,LEFDE81-LASFDE81
	.long L$set$484
LASFDE81:
	.long	LASFDE81-EH_frame1
	.long	LFB2338-.
	.set L$set$485,LFE2338-LFB2338
	.long L$set$485
	.byte	0x4
	.long	0x0
	.byte	0x4
	.set L$set$486,LCFI128-LFB2338
	.long L$set$486
	.byte	0xe
	.byte	0x8
	.byte	0x84
	.byte	0x2
	.byte	0x4
	.set L$set$487,LCFI129-LCFI128
	.long L$set$487
	.byte	0xd
	.byte	0x4
	.align 2
LEFDE81:
.globl __ZNSt8_Rb_treeIPN2sf11ResourcePtrINS0_5ImageEEES4_St9_IdentityIS4_ESt4lessIS4_ESaIS4_EE5eraseESt17_Rb_tree_iteratorIS4_E.eh
	.private_extern __ZNSt8_Rb_treeIPN2sf11ResourcePtrINS0_5ImageEEES4_St9_IdentityIS4_ESt4lessIS4_ESaIS4_EE5eraseESt17_Rb_tree_iteratorIS4_E.eh
	.weak_definition __ZNSt8_Rb_treeIPN2sf11ResourcePtrINS0_5ImageEEES4_St9_IdentityIS4_ESt4lessIS4_ESaIS4_EE5eraseESt17_Rb_tree_iteratorIS4_E.eh
__ZNSt8_Rb_treeIPN2sf11ResourcePtrINS0_5ImageEEES4_St9_IdentityIS4_ESt4lessIS4_ESaIS4_EE5eraseESt17_Rb_tree_iteratorIS4_E.eh:
LSFDE83:
	.set L$set$488,LEFDE83-LASFDE83
	.long L$set$488
LASFDE83:
	.long	LASFDE83-EH_frame1
	.long	LFB2339-.
	.set L$set$489,LFE2339-LFB2339
	.long L$set$489
	.byte	0x4
	.long	0x0
	.byte	0x4
	.set L$set$490,LCFI131-LFB2339
	.long L$set$490
	.byte	0xe
	.byte	0x8
	.byte	0x84
	.byte	0x2
	.byte	0x4
	.set L$set$491,LCFI132-LCFI131
	.long L$set$491
	.byte	0xd
	.byte	0x4
	.align 2
LEFDE83:
.globl __ZNSt8_Rb_treeIPN2sf11ResourcePtrINS0_5ImageEEES4_St9_IdentityIS4_ESt4lessIS4_ESaIS4_EE5eraseESt17_Rb_tree_iteratorIS4_ESC_.eh
	.weak_definition __ZNSt8_Rb_treeIPN2sf11ResourcePtrINS0_5ImageEEES4_St9_IdentityIS4_ESt4lessIS4_ESaIS4_EE5eraseESt17_Rb_tree_iteratorIS4_ESC_.eh
__ZNSt8_Rb_treeIPN2sf11ResourcePtrINS0_5ImageEEES4_St9_IdentityIS4_ESt4lessIS4_ESaIS4_EE5eraseESt17_Rb_tree_iteratorIS4_ESC_.eh:
LSFDE85:
	.set L$set$492,LEFDE85-LASFDE85
	.long L$set$492
LASFDE85:
	.long	LASFDE85-EH_frame1
	.long	LFB2327-.
	.set L$set$493,LFE2327-LFB2327
	.long L$set$493
	.byte	0x4
	.long	0x0
	.byte	0x4
	.set L$set$494,LCFI134-LFB2327
	.long L$set$494
	.byte	0xe
	.byte	0x8
	.byte	0x84
	.byte	0x2
	.byte	0x4
	.set L$set$495,LCFI135-LCFI134
	.long L$set$495
	.byte	0xd
	.byte	0x4
	.align 2
LEFDE85:
.globl __ZNSt8_Rb_treeIPN2sf11ResourcePtrINS0_5ImageEEES4_St9_IdentityIS4_ESt4lessIS4_ESaIS4_EE5eraseERKS4_.eh
	.weak_definition __ZNSt8_Rb_treeIPN2sf11ResourcePtrINS0_5ImageEEES4_St9_IdentityIS4_ESt4lessIS4_ESaIS4_EE5eraseERKS4_.eh
__ZNSt8_Rb_treeIPN2sf11ResourcePtrINS0_5ImageEEES4_St9_IdentityIS4_ESt4lessIS4_ESaIS4_EE5eraseERKS4_.eh:
LSFDE87:
	.set L$set$496,LEFDE87-LASFDE87
	.long L$set$496
LASFDE87:
	.long	LASFDE87-EH_frame1
	.long	LFB2324-.
	.set L$set$497,LFE2324-LFB2324
	.long L$set$497
	.byte	0x4
	.long	0x0
	.byte	0x4
	.set L$set$498,LCFI137-LFB2324
	.long L$set$498
	.byte	0xe
	.byte	0x8
	.byte	0x84
	.byte	0x2
	.byte	0x4
	.set L$set$499,LCFI138-LCFI137
	.long L$set$499
	.byte	0xd
	.byte	0x4
	.align 2
LEFDE87:
.globl __ZNSt3setIPN2sf11ResourcePtrINS0_5ImageEEESt4lessIS4_ESaIS4_EE5eraseERKS4_.eh
	.private_extern __ZNSt3setIPN2sf11ResourcePtrINS0_5ImageEEESt4lessIS4_ESaIS4_EE5eraseERKS4_.eh
	.weak_definition __ZNSt3setIPN2sf11ResourcePtrINS0_5ImageEEESt4lessIS4_ESaIS4_EE5eraseERKS4_.eh
__ZNSt3setIPN2sf11ResourcePtrINS0_5ImageEEESt4lessIS4_ESaIS4_EE5eraseERKS4_.eh:
LSFDE89:
	.set L$set$500,LEFDE89-LASFDE89
	.long L$set$500
LASFDE89:
	.long	LASFDE89-EH_frame1
	.long	LFB2321-.
	.set L$set$501,LFE2321-LFB2321
	.long L$set$501
	.byte	0x4
	.long	0x0
	.byte	0x4
	.set L$set$502,LCFI140-LFB2321
	.long L$set$502
	.byte	0xe
	.byte	0x8
	.byte	0x84
	.byte	0x2
	.byte	0x4
	.set L$set$503,LCFI141-LCFI140
	.long L$set$503
	.byte	0xd
	.byte	0x4
	.align 2
LEFDE89:
.globl __ZNK2sf8ResourceINS_5ImageEE10DisconnectERNS_11ResourcePtrIS1_EE.eh
	.weak_definition __ZNK2sf8ResourceINS_5ImageEE10DisconnectERNS_11ResourcePtrIS1_EE.eh
__ZNK2sf8ResourceINS_5ImageEE10DisconnectERNS_11ResourcePtrIS1_EE.eh:
LSFDE91:
	.set L$set$504,LEFDE91-LASFDE91
	.long L$set$504
LASFDE91:
	.long	LASFDE91-EH_frame1
	.long	LFB2307-.
	.set L$set$505,LFE2307-LFB2307
	.long L$set$505
	.byte	0x4
	.long	0x0
	.byte	0x4
	.set L$set$506,LCFI143-LFB2307
	.long L$set$506
	.byte	0xe
	.byte	0x8
	.byte	0x84
	.byte	0x2
	.byte	0x4
	.set L$set$507,LCFI144-LCFI143
	.long L$set$507
	.byte	0xd
	.byte	0x4
	.align 2
LEFDE91:
.globl __ZN2sf11ResourcePtrINS_5ImageEED1Ev.eh
	.weak_definition __ZN2sf11ResourcePtrINS_5ImageEED1Ev.eh
__ZN2sf11ResourcePtrINS_5ImageEED1Ev.eh:
LSFDE93:
	.set L$set$508,LEFDE93-LASFDE93
	.long L$set$508
LASFDE93:
	.long	LASFDE93-EH_frame1
	.long	LFB2285-.
	.set L$set$509,LFE2285-LFB2285
	.long L$set$509
	.byte	0x4
	.long	0x0
	.byte	0x4
	.set L$set$510,LCFI146-LFB2285
	.long L$set$510
	.byte	0xe
	.byte	0x8
	.byte	0x84
	.byte	0x2
	.byte	0x4
	.set L$set$511,LCFI147-LCFI146
	.long L$set$511
	.byte	0xd
	.byte	0x4
	.align 2
LEFDE93:
.globl __ZN2sf6SpriteD1Ev.eh
	.private_extern __ZN2sf6SpriteD1Ev.eh
	.weak_definition __ZN2sf6SpriteD1Ev.eh
__ZN2sf6SpriteD1Ev.eh:
LSFDE95:
	.set L$set$512,LEFDE95-LASFDE95
	.long L$set$512
LASFDE95:
	.long	LASFDE95-EH_frame1
	.long	LFB2260-.
	.set L$set$513,LFE2260-LFB2260
	.long L$set$513
	.byte	0x4
	.long	LLSDA2260-.
	.byte	0x4
	.set L$set$514,LCFI149-LFB2260
	.long L$set$514
	.byte	0xe
	.byte	0x8
	.byte	0x84
	.byte	0x2
	.byte	0x4
	.set L$set$515,LCFI150-LCFI149
	.long L$set$515
	.byte	0xd
	.byte	0x4
	.byte	0x4
	.set L$set$516,LCFI153-LCFI150
	.long L$set$516
	.byte	0x83
	.byte	0x4
	.byte	0x86
	.byte	0x3
	.align 2
LEFDE95:
.globl __Z19Remplissage_plateauRN2sf12RenderWindowE.eh
__Z19Remplissage_plateauRN2sf12RenderWindowE.eh:
LSFDE97:
	.set L$set$517,LEFDE97-LASFDE97
	.long L$set$517
LASFDE97:
	.long	LASFDE97-EH_frame1
	.long	LFB2262-.
	.set L$set$518,LFE2262-LFB2262
	.long L$set$518
	.byte	0x4
	.long	LLSDA2262-.
	.byte	0x4
	.set L$set$519,LCFI154-LFB2262
	.long L$set$519
	.byte	0xe
	.byte	0x8
	.byte	0x84
	.byte	0x2
	.byte	0x4
	.set L$set$520,LCFI155-LCFI154
	.long L$set$520
	.byte	0xd
	.byte	0x4
	.byte	0x4
	.set L$set$521,LCFI158-LCFI155
	.long L$set$521
	.byte	0x83
	.byte	0x4
	.byte	0x86
	.byte	0x3
	.align 2
LEFDE97:
.globl __Z20Afficher_case_centreRN2sf12RenderWindowE.eh
__Z20Afficher_case_centreRN2sf12RenderWindowE.eh:
LSFDE99:
	.set L$set$522,LEFDE99-LASFDE99
	.long L$set$522
LASFDE99:
	.long	LASFDE99-EH_frame1
	.long	LFB2257-.
	.set L$set$523,LFE2257-LFB2257
	.long L$set$523
	.byte	0x4
	.long	LLSDA2257-.
	.byte	0x4
	.set L$set$524,LCFI159-LFB2257
	.long L$set$524
	.byte	0xe
	.byte	0x8
	.byte	0x84
	.byte	0x2
	.byte	0x4
	.set L$set$525,LCFI160-LCFI159
	.long L$set$525
	.byte	0xd
	.byte	0x4
	.byte	0x4
	.set L$set$526,LCFI163-LCFI160
	.long L$set$526
	.byte	0x83
	.byte	0x4
	.byte	0x86
	.byte	0x3
	.align 2
LEFDE99:
	.text
Letext0:
	.section __DWARF,__debug_loc,regular,debug
Ldebug_loc0:
LLST0:
	.long	LFB2263
	.long	LCFI0
	.word	0x2
	.byte	0x74
	.byte	0x4
	.long	LCFI0
	.long	LCFI1
	.word	0x2
	.byte	0x74
	.byte	0x8
	.long	LCFI1
	.long	LFE2263
	.word	0x2
	.byte	0x75
	.byte	0x8
	.long	0x0
	.long	0x0
LLST1:
	.long	LFB1410
	.long	LCFI3
	.word	0x2
	.byte	0x74
	.byte	0x4
	.long	LCFI3
	.long	LCFI4
	.word	0x2
	.byte	0x74
	.byte	0x8
	.long	LCFI4
	.long	LFE1410
	.word	0x2
	.byte	0x75
	.byte	0x8
	.long	0x0
	.long	0x0
LLST2:
	.long	LFB2326
	.long	LCFI7
	.word	0x2
	.byte	0x74
	.byte	0x4
	.long	LCFI7
	.long	LCFI8
	.word	0x2
	.byte	0x74
	.byte	0x8
	.long	LCFI8
	.long	LFE2326
	.word	0x2
	.byte	0x75
	.byte	0x8
	.long	0x0
	.long	0x0
LLST3:
	.long	LFB2332
	.long	LCFI10
	.word	0x2
	.byte	0x74
	.byte	0x4
	.long	LCFI10
	.long	LCFI11
	.word	0x2
	.byte	0x74
	.byte	0x8
	.long	LCFI11
	.long	LFE2332
	.word	0x2
	.byte	0x75
	.byte	0x8
	.long	0x0
	.long	0x0
LLST4:
	.long	LFB2334
	.long	LCFI13
	.word	0x2
	.byte	0x74
	.byte	0x4
	.long	LCFI13
	.long	LCFI14
	.word	0x2
	.byte	0x74
	.byte	0x8
	.long	LCFI14
	.long	LFE2334
	.word	0x2
	.byte	0x75
	.byte	0x8
	.long	0x0
	.long	0x0
LLST5:
	.long	LFB2337
	.long	LCFI16
	.word	0x2
	.byte	0x74
	.byte	0x4
	.long	LCFI16
	.long	LCFI17
	.word	0x2
	.byte	0x74
	.byte	0x8
	.long	LCFI17
	.long	LFE2337
	.word	0x2
	.byte	0x75
	.byte	0x8
	.long	0x0
	.long	0x0
LLST6:
	.long	LFB2340
	.long	LCFI19
	.word	0x2
	.byte	0x74
	.byte	0x4
	.long	LCFI19
	.long	LCFI20
	.word	0x2
	.byte	0x74
	.byte	0x8
	.long	LCFI20
	.long	LFE2340
	.word	0x2
	.byte	0x75
	.byte	0x8
	.long	0x0
	.long	0x0
LLST7:
	.long	LFB2341
	.long	LCFI22
	.word	0x2
	.byte	0x74
	.byte	0x4
	.long	LCFI22
	.long	LCFI23
	.word	0x2
	.byte	0x74
	.byte	0x8
	.long	LCFI23
	.long	LFE2341
	.word	0x2
	.byte	0x75
	.byte	0x8
	.long	0x0
	.long	0x0
LLST8:
	.long	LFB2345
	.long	LCFI25
	.word	0x2
	.byte	0x74
	.byte	0x4
	.long	LCFI25
	.long	LCFI26
	.word	0x2
	.byte	0x74
	.byte	0x8
	.long	LCFI26
	.long	LFE2345
	.word	0x2
	.byte	0x75
	.byte	0x8
	.long	0x0
	.long	0x0
LLST9:
	.long	LFB2348
	.long	LCFI28
	.word	0x2
	.byte	0x74
	.byte	0x4
	.long	LCFI28
	.long	LCFI29
	.word	0x2
	.byte	0x74
	.byte	0x8
	.long	LCFI29
	.long	LFE2348
	.word	0x2
	.byte	0x75
	.byte	0x8
	.long	0x0
	.long	0x0
LLST10:
	.long	LFB2349
	.long	LCFI31
	.word	0x2
	.byte	0x74
	.byte	0x4
	.long	LCFI31
	.long	LCFI32
	.word	0x2
	.byte	0x74
	.byte	0x8
	.long	LCFI32
	.long	LFE2349
	.word	0x2
	.byte	0x75
	.byte	0x8
	.long	0x0
	.long	0x0
LLST11:
	.long	LFB2350
	.long	LCFI34
	.word	0x2
	.byte	0x74
	.byte	0x4
	.long	LCFI34
	.long	LCFI35
	.word	0x2
	.byte	0x74
	.byte	0x8
	.long	LCFI35
	.long	LFE2350
	.word	0x2
	.byte	0x75
	.byte	0x8
	.long	0x0
	.long	0x0
LLST12:
	.long	LFB2351
	.long	LCFI37
	.word	0x2
	.byte	0x74
	.byte	0x4
	.long	LCFI37
	.long	LCFI38
	.word	0x2
	.byte	0x74
	.byte	0x8
	.long	LCFI38
	.long	LFE2351
	.word	0x2
	.byte	0x75
	.byte	0x8
	.long	0x0
	.long	0x0
LLST13:
	.long	LFB2354
	.long	LCFI40
	.word	0x2
	.byte	0x74
	.byte	0x4
	.long	LCFI40
	.long	LCFI41
	.word	0x2
	.byte	0x74
	.byte	0x8
	.long	LCFI41
	.long	LFE2354
	.word	0x2
	.byte	0x75
	.byte	0x8
	.long	0x0
	.long	0x0
LLST14:
	.long	LFB2335
	.long	LCFI43
	.word	0x2
	.byte	0x74
	.byte	0x4
	.long	LCFI43
	.long	LCFI44
	.word	0x2
	.byte	0x74
	.byte	0x8
	.long	LCFI44
	.long	LFE2335
	.word	0x2
	.byte	0x75
	.byte	0x8
	.long	0x0
	.long	0x0
LLST15:
	.long	LFB2333
	.long	LCFI46
	.word	0x2
	.byte	0x74
	.byte	0x4
	.long	LCFI46
	.long	LCFI47
	.word	0x2
	.byte	0x74
	.byte	0x8
	.long	LCFI47
	.long	LFE2333
	.word	0x2
	.byte	0x75
	.byte	0x8
	.long	0x0
	.long	0x0
LLST16:
	.long	LFB2356
	.long	LCFI49
	.word	0x2
	.byte	0x74
	.byte	0x4
	.long	LCFI49
	.long	LCFI50
	.word	0x2
	.byte	0x74
	.byte	0x8
	.long	LCFI50
	.long	LFE2356
	.word	0x2
	.byte	0x75
	.byte	0x8
	.long	0x0
	.long	0x0
LLST17:
	.long	LFB2357
	.long	LCFI52
	.word	0x2
	.byte	0x74
	.byte	0x4
	.long	LCFI52
	.long	LCFI53
	.word	0x2
	.byte	0x74
	.byte	0x8
	.long	LCFI53
	.long	LFE2357
	.word	0x2
	.byte	0x75
	.byte	0x8
	.long	0x0
	.long	0x0
LLST18:
	.long	LFB2358
	.long	LCFI55
	.word	0x2
	.byte	0x74
	.byte	0x4
	.long	LCFI55
	.long	LCFI56
	.word	0x2
	.byte	0x74
	.byte	0x8
	.long	LCFI56
	.long	LFE2358
	.word	0x2
	.byte	0x75
	.byte	0x8
	.long	0x0
	.long	0x0
LLST19:
	.long	LFB2360
	.long	LCFI58
	.word	0x2
	.byte	0x74
	.byte	0x4
	.long	LCFI58
	.long	LCFI59
	.word	0x2
	.byte	0x74
	.byte	0x8
	.long	LCFI59
	.long	LFE2360
	.word	0x2
	.byte	0x75
	.byte	0x8
	.long	0x0
	.long	0x0
LLST20:
	.long	LFB2361
	.long	LCFI61
	.word	0x2
	.byte	0x74
	.byte	0x4
	.long	LCFI61
	.long	LCFI62
	.word	0x2
	.byte	0x74
	.byte	0x8
	.long	LCFI62
	.long	LFE2361
	.word	0x2
	.byte	0x75
	.byte	0x8
	.long	0x0
	.long	0x0
LLST21:
	.long	LFB2342
	.long	LCFI64
	.word	0x2
	.byte	0x74
	.byte	0x4
	.long	LCFI64
	.long	LCFI65
	.word	0x2
	.byte	0x74
	.byte	0x8
	.long	LCFI65
	.long	LFE2342
	.word	0x2
	.byte	0x75
	.byte	0x8
	.long	0x0
	.long	0x0
LLST22:
	.long	LFB2329
	.long	LCFI68
	.word	0x2
	.byte	0x74
	.byte	0x4
	.long	LCFI68
	.long	LCFI69
	.word	0x2
	.byte	0x74
	.byte	0x8
	.long	LCFI69
	.long	LFE2329
	.word	0x2
	.byte	0x75
	.byte	0x8
	.long	0x0
	.long	0x0
LLST23:
	.long	LFB2328
	.long	LCFI71
	.word	0x2
	.byte	0x74
	.byte	0x4
	.long	LCFI71
	.long	LCFI72
	.word	0x2
	.byte	0x74
	.byte	0x8
	.long	LCFI72
	.long	LFE2328
	.word	0x2
	.byte	0x75
	.byte	0x8
	.long	0x0
	.long	0x0
LLST24:
	.long	LFB2325
	.long	LCFI74
	.word	0x2
	.byte	0x74
	.byte	0x4
	.long	LCFI74
	.long	LCFI75
	.word	0x2
	.byte	0x74
	.byte	0x8
	.long	LCFI75
	.long	LFE2325
	.word	0x2
	.byte	0x75
	.byte	0x8
	.long	0x0
	.long	0x0
LLST25:
	.long	LFB2366
	.long	LCFI77
	.word	0x2
	.byte	0x74
	.byte	0x4
	.long	LCFI77
	.long	LCFI78
	.word	0x2
	.byte	0x74
	.byte	0x8
	.long	LCFI78
	.long	LFE2366
	.word	0x2
	.byte	0x75
	.byte	0x8
	.long	0x0
	.long	0x0
LLST26:
	.long	LFB2368
	.long	LCFI80
	.word	0x2
	.byte	0x74
	.byte	0x4
	.long	LCFI80
	.long	LCFI81
	.word	0x2
	.byte	0x74
	.byte	0x8
	.long	LCFI81
	.long	LFE2368
	.word	0x2
	.byte	0x75
	.byte	0x8
	.long	0x0
	.long	0x0
LLST27:
	.long	LFB2376
	.long	LCFI83
	.word	0x2
	.byte	0x74
	.byte	0x4
	.long	LCFI83
	.long	LCFI84
	.word	0x2
	.byte	0x74
	.byte	0x8
	.long	LCFI84
	.long	LFE2376
	.word	0x2
	.byte	0x75
	.byte	0x8
	.long	0x0
	.long	0x0
LLST28:
	.long	LFB2365
	.long	LCFI86
	.word	0x2
	.byte	0x74
	.byte	0x4
	.long	LCFI86
	.long	LCFI87
	.word	0x2
	.byte	0x74
	.byte	0x8
	.long	LCFI87
	.long	LFE2365
	.word	0x2
	.byte	0x75
	.byte	0x8
	.long	0x0
	.long	0x0
LLST29:
	.long	LFB2380
	.long	LCFI89
	.word	0x2
	.byte	0x74
	.byte	0x4
	.long	LCFI89
	.long	LCFI90
	.word	0x2
	.byte	0x74
	.byte	0x8
	.long	LCFI90
	.long	LFE2380
	.word	0x2
	.byte	0x75
	.byte	0x8
	.long	0x0
	.long	0x0
LLST30:
	.long	LFB2371
	.long	LCFI92
	.word	0x2
	.byte	0x74
	.byte	0x4
	.long	LCFI92
	.long	LCFI93
	.word	0x2
	.byte	0x74
	.byte	0x8
	.long	LCFI93
	.long	LFE2371
	.word	0x2
	.byte	0x75
	.byte	0x8
	.long	0x0
	.long	0x0
LLST31:
	.long	LFB2362
	.long	LCFI95
	.word	0x2
	.byte	0x74
	.byte	0x4
	.long	LCFI95
	.long	LCFI96
	.word	0x2
	.byte	0x74
	.byte	0x8
	.long	LCFI96
	.long	LFE2362
	.word	0x2
	.byte	0x75
	.byte	0x8
	.long	0x0
	.long	0x0
LLST32:
	.long	LFB2385
	.long	LCFI100
	.word	0x2
	.byte	0x74
	.byte	0x4
	.long	LCFI100
	.long	LCFI101
	.word	0x2
	.byte	0x74
	.byte	0x8
	.long	LCFI101
	.long	LFE2385
	.word	0x2
	.byte	0x75
	.byte	0x8
	.long	0x0
	.long	0x0
LLST33:
	.long	LFB2387
	.long	LCFI104
	.word	0x2
	.byte	0x74
	.byte	0x4
	.long	LCFI104
	.long	LCFI105
	.word	0x2
	.byte	0x74
	.byte	0x8
	.long	LCFI105
	.long	LFE2387
	.word	0x2
	.byte	0x75
	.byte	0x8
	.long	0x0
	.long	0x0
LLST34:
	.long	LFB2386
	.long	LCFI107
	.word	0x2
	.byte	0x74
	.byte	0x4
	.long	LCFI107
	.long	LCFI108
	.word	0x2
	.byte	0x74
	.byte	0x8
	.long	LCFI108
	.long	LFE2386
	.word	0x2
	.byte	0x75
	.byte	0x8
	.long	0x0
	.long	0x0
LLST35:
	.long	LFB2378
	.long	LCFI111
	.word	0x2
	.byte	0x74
	.byte	0x4
	.long	LCFI111
	.long	LCFI112
	.word	0x2
	.byte	0x74
	.byte	0x8
	.long	LCFI112
	.long	LFE2378
	.word	0x2
	.byte	0x75
	.byte	0x8
	.long	0x0
	.long	0x0
LLST36:
	.long	LFB2367
	.long	LCFI114
	.word	0x2
	.byte	0x74
	.byte	0x4
	.long	LCFI114
	.long	LCFI115
	.word	0x2
	.byte	0x74
	.byte	0x8
	.long	LCFI115
	.long	LFE2367
	.word	0x2
	.byte	0x75
	.byte	0x8
	.long	0x0
	.long	0x0
LLST37:
	.long	LFB2359
	.long	LCFI117
	.word	0x2
	.byte	0x74
	.byte	0x4
	.long	LCFI117
	.long	LCFI118
	.word	0x2
	.byte	0x74
	.byte	0x8
	.long	LCFI118
	.long	LFE2359
	.word	0x2
	.byte	0x75
	.byte	0x8
	.long	0x0
	.long	0x0
LLST38:
	.long	LFB2355
	.long	LCFI121
	.word	0x2
	.byte	0x74
	.byte	0x4
	.long	LCFI121
	.long	LCFI122
	.word	0x2
	.byte	0x74
	.byte	0x8
	.long	LCFI122
	.long	LFE2355
	.word	0x2
	.byte	0x75
	.byte	0x8
	.long	0x0
	.long	0x0
LLST39:
	.long	LFB2336
	.long	LCFI124
	.word	0x2
	.byte	0x74
	.byte	0x4
	.long	LCFI124
	.long	LCFI125
	.word	0x2
	.byte	0x74
	.byte	0x8
	.long	LCFI125
	.long	LFE2336
	.word	0x2
	.byte	0x75
	.byte	0x8
	.long	0x0
	.long	0x0
LLST40:
	.long	LFB2338
	.long	LCFI128
	.word	0x2
	.byte	0x74
	.byte	0x4
	.long	LCFI128
	.long	LCFI129
	.word	0x2
	.byte	0x74
	.byte	0x8
	.long	LCFI129
	.long	LFE2338
	.word	0x2
	.byte	0x75
	.byte	0x8
	.long	0x0
	.long	0x0
LLST41:
	.long	LFB2339
	.long	LCFI131
	.word	0x2
	.byte	0x74
	.byte	0x4
	.long	LCFI131
	.long	LCFI132
	.word	0x2
	.byte	0x74
	.byte	0x8
	.long	LCFI132
	.long	LFE2339
	.word	0x2
	.byte	0x75
	.byte	0x8
	.long	0x0
	.long	0x0
LLST42:
	.long	LFB2327
	.long	LCFI134
	.word	0x2
	.byte	0x74
	.byte	0x4
	.long	LCFI134
	.long	LCFI135
	.word	0x2
	.byte	0x74
	.byte	0x8
	.long	LCFI135
	.long	LFE2327
	.word	0x2
	.byte	0x75
	.byte	0x8
	.long	0x0
	.long	0x0
LLST43:
	.long	LFB2324
	.long	LCFI137
	.word	0x2
	.byte	0x74
	.byte	0x4
	.long	LCFI137
	.long	LCFI138
	.word	0x2
	.byte	0x74
	.byte	0x8
	.long	LCFI138
	.long	LFE2324
	.word	0x2
	.byte	0x75
	.byte	0x8
	.long	0x0
	.long	0x0
LLST44:
	.long	LFB2321
	.long	LCFI140
	.word	0x2
	.byte	0x74
	.byte	0x4
	.long	LCFI140
	.long	LCFI141
	.word	0x2
	.byte	0x74
	.byte	0x8
	.long	LCFI141
	.long	LFE2321
	.word	0x2
	.byte	0x75
	.byte	0x8
	.long	0x0
	.long	0x0
LLST45:
	.long	LFB2307
	.long	LCFI143
	.word	0x2
	.byte	0x74
	.byte	0x4
	.long	LCFI143
	.long	LCFI144
	.word	0x2
	.byte	0x74
	.byte	0x8
	.long	LCFI144
	.long	LFE2307
	.word	0x2
	.byte	0x75
	.byte	0x8
	.long	0x0
	.long	0x0
LLST46:
	.long	LFB2285
	.long	LCFI146
	.word	0x2
	.byte	0x74
	.byte	0x4
	.long	LCFI146
	.long	LCFI147
	.word	0x2
	.byte	0x74
	.byte	0x8
	.long	LCFI147
	.long	LFE2285
	.word	0x2
	.byte	0x75
	.byte	0x8
	.long	0x0
	.long	0x0
LLST47:
	.long	LFB2260
	.long	LCFI149
	.word	0x2
	.byte	0x74
	.byte	0x4
	.long	LCFI149
	.long	LCFI150
	.word	0x2
	.byte	0x74
	.byte	0x8
	.long	LCFI150
	.long	LFE2260
	.word	0x2
	.byte	0x75
	.byte	0x8
	.long	0x0
	.long	0x0
LLST48:
	.long	LFB2262
	.long	LCFI154
	.word	0x2
	.byte	0x74
	.byte	0x4
	.long	LCFI154
	.long	LCFI155
	.word	0x2
	.byte	0x74
	.byte	0x8
	.long	LCFI155
	.long	LFE2262
	.word	0x2
	.byte	0x75
	.byte	0x8
	.long	0x0
	.long	0x0
LLST49:
	.long	LFB2257
	.long	LCFI159
	.word	0x2
	.byte	0x74
	.byte	0x4
	.long	LCFI159
	.long	LCFI160
	.word	0x2
	.byte	0x74
	.byte	0x8
	.long	LCFI160
	.long	LFE2257
	.word	0x2
	.byte	0x75
	.byte	0x8
	.long	0x0
	.long	0x0
	.file 14 "/Library/Frameworks/SFML.framework/Headers/Config.hpp"
	.file 15 "/Library/Frameworks/SFML.framework/Headers/Window/Context.hpp"
	.file 16 "/Library/Frameworks/SFML.framework/Headers/Window/Event.hpp"
	.file 17 "/Library/Frameworks/SFML.framework/Headers/Graphics/Drawable.hpp"
	.file 18 "/Library/Frameworks/SFML.framework/Headers/System/Unicode.hpp"
	.file 19 "/Library/Frameworks/SFML.framework/Headers/System/Clock.hpp"
	.file 20 "/Library/Frameworks/SFML.framework/Headers/System/NonCopyable.hpp"
	.file 21 "/usr/include/i386/_types.h"
	.file 22 "/usr/include/sys/_types.h"
	.file 23 "/usr/include/_types.h"
	.file 24 "/usr/include/time.h"
	.file 25 "/usr/include/pthread.h"
	.file 26 "/Developer/usr/bin/../lib/gcc/i686-apple-darwin10/4.2.1/include/stddef.h"
	.file 27 "<built-in>"
	.file 28 "/usr/include/c++/4.2.1/cstddef"
	.file 29 "/usr/include/c++/4.2.1/clocale"
	.file 30 "/usr/include/c++/4.2.1/cstring"
	.file 31 "/usr/include/c++/4.2.1/cstdio"
	.file 32 "/usr/include/c++/4.2.1/cstdarg"
	.file 33 "/usr/include/c++/4.2.1/cctype"
	.file 34 "/usr/include/c++/4.2.1/ctime"
	.file 35 "/usr/include/c++/4.2.1/cwchar"
	.file 36 "/usr/include/c++/4.2.1/cstdlib"
	.file 37 "/Library/Frameworks/SFML.framework/Headers/Window/WindowStyle.hpp"
	.file 38 "/usr/include/c++/4.2.1/debug/debug.h"
	.file 39 "/usr/include/c++/4.2.1/limits"
	.file 40 "/usr/include/c++/4.2.1/bits/basic_string.h"
	.file 41 "/usr/include/c++/4.2.1/bits/ios_base.h"
	.file 42 "/usr/include/c++/4.2.1/cwctype"
	.file 43 "/usr/include/c++/4.2.1/bits/locale_facets.h"
	.file 44 "/usr/include/c++/4.2.1/bits/stl_deque.h"
	.file 45 "/usr/include/c++/4.2.1/bits/stl_vector.h"
	.file 46 "/usr/include/c++/4.2.1/new"
	.file 47 "/usr/include/c++/4.2.1/bits/cpp_type_traits.h"
	.file 48 "/usr/include/_locale.h"
	.file 49 "/usr/include/locale.h"
	.file 50 "/usr/include/string.h"
	.file 51 "/usr/include/stdio.h"
	.file 52 "/usr/include/c++/4.2.1/i686-apple-darwin10/bits/gthr-default.h"
	.file 53 "/usr/include/runetype.h"
	.file 54 "/usr/include/ctype.h"
	.file 55 "/usr/include/wchar.h"
	.file 56 "/usr/include/_wctype.h"
	.file 57 "/usr/include/stdlib.h"
	.file 58 "/usr/include/c++/4.2.1/bits/char_traits.h"
	.file 59 "/usr/include/c++/4.2.1/bits/postypes.h"
	.file 60 "/usr/include/c++/4.2.1/i686-apple-darwin10/bits/atomic_word.h"
	.file 61 "/usr/include/c++/4.2.1/bits/stringfwd.h"
	.file 62 "/usr/include/c++/4.2.1/bits/basic_string.tcc"
	.file 63 "/usr/include/c++/4.2.1/bits/locale_classes.h"
	.file 64 "/usr/include/c++/4.2.1/i686-apple-darwin10/bits/c++locale.h"
	.file 65 "/usr/include/c++/4.2.1/iosfwd"
	.file 66 "/usr/include/c++/4.2.1/streambuf"
	.file 67 "/usr/include/c++/4.2.1/bits/streambuf.tcc"
	.file 68 "/usr/include/wctype.h"
	.file 69 "/usr/include/c++/4.2.1/i686-apple-darwin10/bits/ctype_base.h"
	.file 70 "/usr/include/c++/4.2.1/bits/basic_ios.h"
	.file 71 "/usr/include/c++/4.2.1/bits/basic_ios.tcc"
	.file 72 "/usr/include/c++/4.2.1/bits/stl_iterator.h"
	.file 73 "/usr/include/c++/4.2.1/ostream"
	.file 74 "/usr/include/c++/4.2.1/bits/ostream.tcc"
	.file 75 "/Library/Frameworks/SFML.framework/Headers/Window/WindowListener.hpp"
	.file 76 "/Library/Frameworks/SFML.framework/Headers/Window/Input.hpp"
	.file 77 "/Library/Frameworks/SFML.framework/Headers/Window/VideoMode.hpp"
	.file 78 "/Library/Frameworks/SFML.framework/Headers/Window/WindowSettings.hpp"
	.file 79 "/usr/include/c++/4.2.1/bits/deque.tcc"
	.file 80 "/usr/include/c++/4.2.1/bits/stl_queue.h"
	.file 81 "/Library/Frameworks/SFML.framework/Headers/Window/Window.hpp"
	.file 82 "/Library/Frameworks/SFML.framework/Headers/Window/WindowHandle.hpp"
	.file 83 "/Library/Frameworks/SFML.framework/Headers/Graphics/Color.hpp"
	.file 84 "/Library/Frameworks/SFML.framework/Headers/Graphics/Rect.hpp"
	.file 85 "/Library/Frameworks/SFML.framework/Headers/Graphics/Rect.inl"
	.file 86 "/Library/Frameworks/SFML.framework/Headers/Graphics/Glyph.hpp"
	.file 87 "/Library/Frameworks/SFML.framework/Headers/System/Resource.hpp"
	.file 88 "/usr/include/c++/4.2.1/bits/vector.tcc"
	.file 89 "/Library/Frameworks/SFML.framework/Headers/Graphics/Image.hpp"
	.file 90 "/Library/Frameworks/SFML.framework/Headers/Graphics/Matrix3.hpp"
	.file 91 "/Library/Frameworks/SFML.framework/Headers/System/Vector2.hpp"
	.file 92 "/Library/Frameworks/SFML.framework/Headers/System/Vector2.inl"
	.file 93 "/Library/Frameworks/SFML.framework/Headers/Graphics/View.hpp"
	.file 94 "/Library/Frameworks/SFML.framework/Headers/Graphics/RenderTarget.hpp"
	.file 95 "/Library/Frameworks/SFML.framework/Headers/Graphics/RenderWindow.hpp"
	.file 96 "/Library/Frameworks/SFML.framework/Headers/Graphics/Font.hpp"
	.section __DWARF,__debug_info,regular,debug
	.long	0xfc3e
	.word	0x2
	.set L$set$527,Ldebug_abbrev0-Lsection__debug_abbrev
	.long L$set$527
	.byte	0x4
	.byte	0x1
	.ascii "GNU C++ 4.2.1 (Apple Inc. build 5664)\0"
	.byte	0x4
	.ascii "/Users/adrien/Programmation/C++/Untitled/fonctions.cpp\0"
	.long	0x0
	.set L$set$528,Ldebug_line0-Lsection__debug_line
	.long L$set$528
	.byte	0x2
	.ascii "sf\0"
	.byte	0xe
	.byte	0x7d
	.long	0x923
	.byte	0x3
	.set L$set$529,LASF0-Lsection__debug_str
	.long L$set$529
	.byte	0x1
	.byte	0x3
	.set L$set$530,LASF1-Lsection__debug_str
	.long L$set$530
	.byte	0x1
	.byte	0x4
	.ascii "Unicode\0"
	.byte	0x1
	.long	0xd3
	.byte	0x5
	.set L$set$531,LASF6-Lsection__debug_str
	.long L$set$531
	.byte	0x4
	.byte	0x12
	.byte	0x40
	.byte	0x6
	.byte	0x1
	.set L$set$532,LASF6-Lsection__debug_str
	.long L$set$532
	.byte	0x12
	.byte	0x51
	.byte	0x1
	.long	0xb9
	.byte	0x7
	.ascii "Uint8\0"
	.byte	0xe
	.byte	0x81
	.long	0xa36
	.byte	0x0
	.byte	0x8
	.byte	0x1
	.set L$set$533,LASF6-Lsection__debug_str
	.long L$set$533
	.byte	0x12
	.byte	0x53
	.byte	0x1
	.byte	0x7
	.ascii "Uint32\0"
	.byte	0xe
	.byte	0x9a
	.long	0xa7c
	.byte	0x0
	.byte	0x0
	.byte	0x0
	.byte	0x2
	.ascii "priv\0"
	.byte	0xf
	.byte	0x26
	.long	0xed
	.byte	0x9
	.ascii "WindowImpl\0"
	.byte	0x1
	.byte	0x0
	.byte	0x2
	.ascii "Key\0"
	.byte	0x10
	.byte	0x28
	.long	0x41c
	.byte	0xa
	.ascii "Code\0"
	.byte	0x4
	.byte	0x10
	.byte	0x29
	.byte	0xb
	.ascii "A\0"
	.byte	0xe1,0x0
	.byte	0xb
	.ascii "B\0"
	.byte	0xe2,0x0
	.byte	0xb
	.ascii "C\0"
	.byte	0xe3,0x0
	.byte	0xb
	.ascii "D\0"
	.byte	0xe4,0x0
	.byte	0xb
	.ascii "E\0"
	.byte	0xe5,0x0
	.byte	0xb
	.ascii "F\0"
	.byte	0xe6,0x0
	.byte	0xb
	.ascii "G\0"
	.byte	0xe7,0x0
	.byte	0xb
	.ascii "H\0"
	.byte	0xe8,0x0
	.byte	0xb
	.ascii "I\0"
	.byte	0xe9,0x0
	.byte	0xb
	.ascii "J\0"
	.byte	0xea,0x0
	.byte	0xb
	.ascii "K\0"
	.byte	0xeb,0x0
	.byte	0xb
	.ascii "L\0"
	.byte	0xec,0x0
	.byte	0xb
	.ascii "M\0"
	.byte	0xed,0x0
	.byte	0xb
	.ascii "N\0"
	.byte	0xee,0x0
	.byte	0xb
	.ascii "O\0"
	.byte	0xef,0x0
	.byte	0xb
	.ascii "P\0"
	.byte	0xf0,0x0
	.byte	0xb
	.ascii "Q\0"
	.byte	0xf1,0x0
	.byte	0xb
	.ascii "R\0"
	.byte	0xf2,0x0
	.byte	0xb
	.ascii "S\0"
	.byte	0xf3,0x0
	.byte	0xb
	.ascii "T\0"
	.byte	0xf4,0x0
	.byte	0xb
	.ascii "U\0"
	.byte	0xf5,0x0
	.byte	0xb
	.ascii "V\0"
	.byte	0xf6,0x0
	.byte	0xb
	.ascii "W\0"
	.byte	0xf7,0x0
	.byte	0xb
	.ascii "X\0"
	.byte	0xf8,0x0
	.byte	0xb
	.ascii "Y\0"
	.byte	0xf9,0x0
	.byte	0xb
	.ascii "Z\0"
	.byte	0xfa,0x0
	.byte	0xb
	.ascii "Num0\0"
	.byte	0x30
	.byte	0xb
	.ascii "Num1\0"
	.byte	0x31
	.byte	0xb
	.ascii "Num2\0"
	.byte	0x32
	.byte	0xb
	.ascii "Num3\0"
	.byte	0x33
	.byte	0xb
	.ascii "Num4\0"
	.byte	0x34
	.byte	0xb
	.ascii "Num5\0"
	.byte	0x35
	.byte	0xb
	.ascii "Num6\0"
	.byte	0x36
	.byte	0xb
	.ascii "Num7\0"
	.byte	0x37
	.byte	0xb
	.ascii "Num8\0"
	.byte	0x38
	.byte	0xb
	.ascii "Num9\0"
	.byte	0x39
	.byte	0xb
	.ascii "Escape\0"
	.byte	0x80,0x2
	.byte	0xb
	.ascii "LControl\0"
	.byte	0x81,0x2
	.byte	0xb
	.ascii "LShift\0"
	.byte	0x82,0x2
	.byte	0xb
	.ascii "LAlt\0"
	.byte	0x83,0x2
	.byte	0xb
	.ascii "LSystem\0"
	.byte	0x84,0x2
	.byte	0xb
	.ascii "RControl\0"
	.byte	0x85,0x2
	.byte	0xb
	.ascii "RShift\0"
	.byte	0x86,0x2
	.byte	0xb
	.ascii "RAlt\0"
	.byte	0x87,0x2
	.byte	0xb
	.ascii "RSystem\0"
	.byte	0x88,0x2
	.byte	0xb
	.ascii "Menu\0"
	.byte	0x89,0x2
	.byte	0xb
	.ascii "LBracket\0"
	.byte	0x8a,0x2
	.byte	0xb
	.ascii "RBracket\0"
	.byte	0x8b,0x2
	.byte	0xb
	.ascii "SemiColon\0"
	.byte	0x8c,0x2
	.byte	0xb
	.ascii "Comma\0"
	.byte	0x8d,0x2
	.byte	0xb
	.ascii "Period\0"
	.byte	0x8e,0x2
	.byte	0xb
	.ascii "Quote\0"
	.byte	0x8f,0x2
	.byte	0xb
	.ascii "Slash\0"
	.byte	0x90,0x2
	.byte	0xb
	.ascii "BackSlash\0"
	.byte	0x91,0x2
	.byte	0xb
	.ascii "Tilde\0"
	.byte	0x92,0x2
	.byte	0xb
	.ascii "Equal\0"
	.byte	0x93,0x2
	.byte	0xb
	.ascii "Dash\0"
	.byte	0x94,0x2
	.byte	0xb
	.ascii "Space\0"
	.byte	0x95,0x2
	.byte	0xb
	.ascii "Return\0"
	.byte	0x96,0x2
	.byte	0xb
	.ascii "Back\0"
	.byte	0x97,0x2
	.byte	0xb
	.ascii "Tab\0"
	.byte	0x98,0x2
	.byte	0xb
	.ascii "PageUp\0"
	.byte	0x99,0x2
	.byte	0xb
	.ascii "PageDown\0"
	.byte	0x9a,0x2
	.byte	0xb
	.ascii "End\0"
	.byte	0x9b,0x2
	.byte	0xb
	.ascii "Home\0"
	.byte	0x9c,0x2
	.byte	0xb
	.ascii "Insert\0"
	.byte	0x9d,0x2
	.byte	0xb
	.ascii "Delete\0"
	.byte	0x9e,0x2
	.byte	0xb
	.ascii "Add\0"
	.byte	0x9f,0x2
	.byte	0xb
	.ascii "Subtract\0"
	.byte	0xa0,0x2
	.byte	0xc
	.set L$set$534,LASF2-Lsection__debug_str
	.long L$set$534
	.byte	0xa1,0x2
	.byte	0xb
	.ascii "Divide\0"
	.byte	0xa2,0x2
	.byte	0xb
	.ascii "Left\0"
	.byte	0xa3,0x2
	.byte	0xc
	.set L$set$535,LASF3-Lsection__debug_str
	.long L$set$535
	.byte	0xa4,0x2
	.byte	0xb
	.ascii "Up\0"
	.byte	0xa5,0x2
	.byte	0xb
	.ascii "Down\0"
	.byte	0xa6,0x2
	.byte	0xb
	.ascii "Numpad0\0"
	.byte	0xa7,0x2
	.byte	0xb
	.ascii "Numpad1\0"
	.byte	0xa8,0x2
	.byte	0xb
	.ascii "Numpad2\0"
	.byte	0xa9,0x2
	.byte	0xb
	.ascii "Numpad3\0"
	.byte	0xaa,0x2
	.byte	0xb
	.ascii "Numpad4\0"
	.byte	0xab,0x2
	.byte	0xb
	.ascii "Numpad5\0"
	.byte	0xac,0x2
	.byte	0xb
	.ascii "Numpad6\0"
	.byte	0xad,0x2
	.byte	0xb
	.ascii "Numpad7\0"
	.byte	0xae,0x2
	.byte	0xb
	.ascii "Numpad8\0"
	.byte	0xaf,0x2
	.byte	0xb
	.ascii "Numpad9\0"
	.byte	0xb0,0x2
	.byte	0xb
	.ascii "F1\0"
	.byte	0xb1,0x2
	.byte	0xb
	.ascii "F2\0"
	.byte	0xb2,0x2
	.byte	0xb
	.ascii "F3\0"
	.byte	0xb3,0x2
	.byte	0xb
	.ascii "F4\0"
	.byte	0xb4,0x2
	.byte	0xb
	.ascii "F5\0"
	.byte	0xb5,0x2
	.byte	0xb
	.ascii "F6\0"
	.byte	0xb6,0x2
	.byte	0xb
	.ascii "F7\0"
	.byte	0xb7,0x2
	.byte	0xb
	.ascii "F8\0"
	.byte	0xb8,0x2
	.byte	0xb
	.ascii "F9\0"
	.byte	0xb9,0x2
	.byte	0xb
	.ascii "F10\0"
	.byte	0xba,0x2
	.byte	0xb
	.ascii "F11\0"
	.byte	0xbb,0x2
	.byte	0xb
	.ascii "F12\0"
	.byte	0xbc,0x2
	.byte	0xb
	.ascii "F13\0"
	.byte	0xbd,0x2
	.byte	0xb
	.ascii "F14\0"
	.byte	0xbe,0x2
	.byte	0xb
	.ascii "F15\0"
	.byte	0xbf,0x2
	.byte	0xb
	.ascii "Pause\0"
	.byte	0xc0,0x2
	.byte	0xb
	.ascii "Count\0"
	.byte	0xc1,0x2
	.byte	0x0
	.byte	0x0
	.byte	0x2
	.ascii "Mouse\0"
	.byte	0x10
	.byte	0x9a
	.long	0x46d
	.byte	0xd
	.set L$set$536,LASF4-Lsection__debug_str
	.long L$set$536
	.byte	0x4
	.byte	0x10
	.byte	0x9b
	.byte	0xb
	.ascii "Left\0"
	.byte	0x0
	.byte	0xc
	.set L$set$537,LASF3-Lsection__debug_str
	.long L$set$537
	.byte	0x1
	.byte	0xb
	.ascii "Middle\0"
	.byte	0x2
	.byte	0xb
	.ascii "XButton1\0"
	.byte	0x3
	.byte	0xb
	.ascii "XButton2\0"
	.byte	0x4
	.byte	0xb
	.ascii "ButtonCount\0"
	.byte	0x5
	.byte	0x0
	.byte	0x0
	.byte	0x2
	.ascii "Joy\0"
	.byte	0x10
	.byte	0xac
	.long	0x4c9
	.byte	0xa
	.ascii "Axis\0"
	.byte	0x4
	.byte	0x10
	.byte	0xad
	.byte	0xb
	.ascii "AxisX\0"
	.byte	0x0
	.byte	0xb
	.ascii "AxisY\0"
	.byte	0x1
	.byte	0xb
	.ascii "AxisZ\0"
	.byte	0x2
	.byte	0xb
	.ascii "AxisR\0"
	.byte	0x3
	.byte	0xb
	.ascii "AxisU\0"
	.byte	0x4
	.byte	0xb
	.ascii "AxisV\0"
	.byte	0x5
	.byte	0xb
	.ascii "AxisPOV\0"
	.byte	0x6
	.byte	0xb
	.ascii "AxisCount\0"
	.byte	0x7
	.byte	0x0
	.byte	0x0
	.byte	0x4
	.ascii "Event\0"
	.byte	0x1
	.long	0x82d
	.byte	0xe
	.ascii "KeyEvent\0"
	.byte	0x8
	.byte	0x10
	.byte	0xcd
	.long	0x526
	.byte	0xf
	.ascii "Code\0"
	.byte	0x10
	.byte	0xce
	.long	0xf8
	.byte	0x2
	.byte	0x23
	.byte	0x0
	.byte	0xf
	.ascii "Alt\0"
	.byte	0x10
	.byte	0xcf
	.long	0xe2a
	.byte	0x2
	.byte	0x23
	.byte	0x4
	.byte	0xf
	.ascii "Control\0"
	.byte	0x10
	.byte	0xd0
	.long	0xe2a
	.byte	0x2
	.byte	0x23
	.byte	0x5
	.byte	0xf
	.ascii "Shift\0"
	.byte	0x10
	.byte	0xd1
	.long	0xe2a
	.byte	0x2
	.byte	0x23
	.byte	0x6
	.byte	0x0
	.byte	0xe
	.ascii "TextEvent\0"
	.byte	0x4
	.byte	0x10
	.byte	0xd8
	.long	0x54b
	.byte	0xf
	.ascii "Unicode\0"
	.byte	0x10
	.byte	0xd9
	.long	0xc2
	.byte	0x2
	.byte	0x23
	.byte	0x0
	.byte	0x0
	.byte	0xe
	.ascii "MouseMoveEvent\0"
	.byte	0x8
	.byte	0x10
	.byte	0xe0
	.long	0x57b
	.byte	0xf
	.ascii "X\0"
	.byte	0x10
	.byte	0xe1
	.long	0xa20
	.byte	0x2
	.byte	0x23
	.byte	0x0
	.byte	0xf
	.ascii "Y\0"
	.byte	0x10
	.byte	0xe2
	.long	0xa20
	.byte	0x2
	.byte	0x23
	.byte	0x4
	.byte	0x0
	.byte	0xe
	.ascii "MouseButtonEvent\0"
	.byte	0xc
	.byte	0x10
	.byte	0xe9
	.long	0x5bb
	.byte	0x10
	.set L$set$538,LASF4-Lsection__debug_str
	.long L$set$538
	.byte	0x10
	.byte	0xea
	.long	0x429
	.byte	0x2
	.byte	0x23
	.byte	0x0
	.byte	0xf
	.ascii "X\0"
	.byte	0x10
	.byte	0xeb
	.long	0xa20
	.byte	0x2
	.byte	0x23
	.byte	0x4
	.byte	0xf
	.ascii "Y\0"
	.byte	0x10
	.byte	0xec
	.long	0xa20
	.byte	0x2
	.byte	0x23
	.byte	0x8
	.byte	0x0
	.byte	0xe
	.ascii "MouseWheelEvent\0"
	.byte	0x4
	.byte	0x10
	.byte	0xf3
	.long	0x5e4
	.byte	0xf
	.ascii "Delta\0"
	.byte	0x10
	.byte	0xf4
	.long	0xa20
	.byte	0x2
	.byte	0x23
	.byte	0x0
	.byte	0x0
	.byte	0xe
	.ascii "JoyMoveEvent\0"
	.byte	0xc
	.byte	0x10
	.byte	0xfb
	.long	0x62a
	.byte	0x10
	.set L$set$539,LASF5-Lsection__debug_str
	.long L$set$539
	.byte	0x10
	.byte	0xfc
	.long	0xa7c
	.byte	0x2
	.byte	0x23
	.byte	0x0
	.byte	0xf
	.ascii "Axis\0"
	.byte	0x10
	.byte	0xfd
	.long	0x478
	.byte	0x2
	.byte	0x23
	.byte	0x4
	.byte	0xf
	.ascii "Position\0"
	.byte	0x10
	.byte	0xfe
	.long	0x99b
	.byte	0x2
	.byte	0x23
	.byte	0x8
	.byte	0x0
	.byte	0x11
	.ascii "JoyButtonEvent\0"
	.byte	0x8
	.byte	0x10
	.word	0x105
	.long	0x661
	.byte	0x12
	.set L$set$540,LASF5-Lsection__debug_str
	.long L$set$540
	.byte	0x10
	.word	0x106
	.long	0xa7c
	.byte	0x2
	.byte	0x23
	.byte	0x0
	.byte	0x12
	.set L$set$541,LASF4-Lsection__debug_str
	.long L$set$541
	.byte	0x10
	.word	0x107
	.long	0xa7c
	.byte	0x2
	.byte	0x23
	.byte	0x4
	.byte	0x0
	.byte	0x11
	.ascii "SizeEvent\0"
	.byte	0x8
	.byte	0x10
	.word	0x10e
	.long	0x698
	.byte	0x13
	.ascii "Width\0"
	.byte	0x10
	.word	0x10f
	.long	0xa7c
	.byte	0x2
	.byte	0x23
	.byte	0x0
	.byte	0x13
	.ascii "Height\0"
	.byte	0x10
	.word	0x110
	.long	0xa7c
	.byte	0x2
	.byte	0x23
	.byte	0x4
	.byte	0x0
	.byte	0x14
	.ascii "EventType\0"
	.byte	0x4
	.byte	0x10
	.word	0x116
	.long	0x7a1
	.byte	0xb
	.ascii "Closed\0"
	.byte	0x0
	.byte	0xb
	.ascii "Resized\0"
	.byte	0x1
	.byte	0xb
	.ascii "LostFocus\0"
	.byte	0x2
	.byte	0xb
	.ascii "GainedFocus\0"
	.byte	0x3
	.byte	0xb
	.ascii "TextEntered\0"
	.byte	0x4
	.byte	0xb
	.ascii "KeyPressed\0"
	.byte	0x5
	.byte	0xb
	.ascii "KeyReleased\0"
	.byte	0x6
	.byte	0xb
	.ascii "MouseWheelMoved\0"
	.byte	0x7
	.byte	0xb
	.ascii "MouseButtonPressed\0"
	.byte	0x8
	.byte	0xb
	.ascii "MouseButtonReleased\0"
	.byte	0x9
	.byte	0xb
	.ascii "MouseMoved\0"
	.byte	0xa
	.byte	0xb
	.ascii "MouseEntered\0"
	.byte	0xb
	.byte	0xb
	.ascii "MouseLeft\0"
	.byte	0xc
	.byte	0xb
	.ascii "JoyButtonPressed\0"
	.byte	0xd
	.byte	0xb
	.ascii "JoyButtonReleased\0"
	.byte	0xe
	.byte	0xb
	.ascii "JoyMoved\0"
	.byte	0xf
	.byte	0xb
	.ascii "Count\0"
	.byte	0x10
	.byte	0x0
	.byte	0x15
	.ascii "$_51\0"
	.byte	0xc
	.byte	0x10
	.word	0x132
	.byte	0x16
	.ascii "Key\0"
	.byte	0x10
	.word	0x133
	.long	0x4d5
	.byte	0x17
	.set L$set$542,LASF6-Lsection__debug_str
	.long L$set$542
	.byte	0x10
	.word	0x134
	.long	0x526
	.byte	0x16
	.ascii "MouseMove\0"
	.byte	0x10
	.word	0x135
	.long	0x54b
	.byte	0x16
	.ascii "MouseButton\0"
	.byte	0x10
	.word	0x136
	.long	0x57b
	.byte	0x16
	.ascii "MouseWheel\0"
	.byte	0x10
	.word	0x137
	.long	0x5bb
	.byte	0x16
	.ascii "JoyMove\0"
	.byte	0x10
	.word	0x138
	.long	0x5e4
	.byte	0x16
	.ascii "JoyButton\0"
	.byte	0x10
	.word	0x139
	.long	0x62a
	.byte	0x16
	.ascii "Size\0"
	.byte	0x10
	.word	0x13a
	.long	0x661
	.byte	0x0
	.byte	0x0
	.byte	0x9
	.ascii "WindowListener\0"
	.byte	0x1
	.byte	0x3
	.set L$set$543,LASF7-Lsection__debug_str
	.long L$set$543
	.byte	0x1
	.byte	0x3
	.set L$set$544,LASF8-Lsection__debug_str
	.long L$set$544
	.byte	0x1
	.byte	0x3
	.set L$set$545,LASF9-Lsection__debug_str
	.long L$set$545
	.byte	0x1
	.byte	0x18
	.ascii "Style\0"
	.byte	0x25
	.byte	0x24
	.byte	0x3
	.set L$set$546,LASF10-Lsection__debug_str
	.long L$set$546
	.byte	0x1
	.byte	0x3
	.set L$set$547,LASF11-Lsection__debug_str
	.long L$set$547
	.byte	0x1
	.byte	0x9
	.ascii "Rect<int>\0"
	.byte	0x1
	.byte	0x9
	.ascii "Rect<float>\0"
	.byte	0x1
	.byte	0x3
	.set L$set$548,LASF12-Lsection__debug_str
	.long L$set$548
	.byte	0x1
	.byte	0x9
	.ascii "ResourcePtr<sf::Image>\0"
	.byte	0x1
	.byte	0x9
	.ascii "Resource<sf::Image>\0"
	.byte	0x1
	.byte	0x3
	.set L$set$549,LASF13-Lsection__debug_str
	.long L$set$549
	.byte	0x1
	.byte	0x3
	.set L$set$550,LASF14-Lsection__debug_str
	.long L$set$550
	.byte	0x1
	.byte	0x3
	.set L$set$551,LASF15-Lsection__debug_str
	.long L$set$551
	.byte	0x1
	.byte	0x9
	.ascii "Vector2<float>\0"
	.byte	0x1
	.byte	0x2
	.ascii "Blend\0"
	.byte	0x11
	.byte	0x2c
	.long	0x90a
	.byte	0xa
	.ascii "Mode\0"
	.byte	0x4
	.byte	0x11
	.byte	0x2d
	.byte	0xb
	.ascii "Alpha\0"
	.byte	0x0
	.byte	0xb
	.ascii "Add\0"
	.byte	0x1
	.byte	0xc
	.set L$set$552,LASF2-Lsection__debug_str
	.long L$set$552
	.byte	0x2
	.byte	0xb
	.ascii "None\0"
	.byte	0x3
	.byte	0x0
	.byte	0x0
	.byte	0x3
	.set L$set$553,LASF16-Lsection__debug_str
	.long L$set$553
	.byte	0x1
	.byte	0x3
	.set L$set$554,LASF17-Lsection__debug_str
	.long L$set$554
	.byte	0x1
	.byte	0x3
	.set L$set$555,LASF18-Lsection__debug_str
	.long L$set$555
	.byte	0x1
	.byte	0x3
	.set L$set$556,LASF19-Lsection__debug_str
	.long L$set$556
	.byte	0x1
	.byte	0x0
	.byte	0x19
	.long	0x7c
	.byte	0x8
	.byte	0x13
	.byte	0x28
	.long	0x98b
	.byte	0x1a
	.ascii "myStartTime\0"
	.byte	0x13
	.byte	0x44
	.long	0x98b
	.byte	0x2
	.byte	0x23
	.byte	0x0
	.byte	0x3
	.byte	0x6
	.byte	0x1
	.set L$set$557,LASF0-Lsection__debug_str
	.long L$set$557
	.byte	0x13
	.byte	0x2f
	.byte	0x1
	.long	0x95a
	.byte	0x1b
	.long	0x995
	.byte	0x1
	.byte	0x0
	.byte	0x1c
	.byte	0x1
	.set L$set$558,LASF21-Lsection__debug_str
	.long L$set$558
	.byte	0x13
	.byte	0x37
	.set L$set$559,LASF23-Lsection__debug_str
	.long L$set$559
	.long	0x99b
	.byte	0x1
	.long	0x976
	.byte	0x1b
	.long	0x9a4
	.byte	0x1
	.byte	0x0
	.byte	0x1d
	.byte	0x1
	.set L$set$560,LASF20-Lsection__debug_str
	.long L$set$560
	.byte	0x13
	.byte	0x3d
	.set L$set$561,LASF273-Lsection__debug_str
	.long L$set$561
	.byte	0x1
	.byte	0x1b
	.long	0x995
	.byte	0x1
	.byte	0x0
	.byte	0x0
	.byte	0x1e
	.byte	0x8
	.byte	0x4
	.ascii "double\0"
	.byte	0x1f
	.byte	0x4
	.long	0x923
	.byte	0x1e
	.byte	0x4
	.byte	0x4
	.ascii "float\0"
	.byte	0x1f
	.byte	0x4
	.long	0x9aa
	.byte	0x20
	.long	0x923
	.byte	0x19
	.long	0x82
	.byte	0x1
	.byte	0x14
	.byte	0x29
	.long	0xa09
	.byte	0x21
	.byte	0x1
	.set L$set$562,LASF1-Lsection__debug_str
	.long L$set$562
	.byte	0x14
	.byte	0x30
	.byte	0x2
	.byte	0x1
	.long	0x9d0
	.byte	0x1b
	.long	0xa09
	.byte	0x1
	.byte	0x0
	.byte	0x21
	.byte	0x1
	.set L$set$563,LASF1-Lsection__debug_str
	.long L$set$563
	.byte	0x14
	.byte	0x39
	.byte	0x3
	.byte	0x1
	.long	0x9ea
	.byte	0x1b
	.long	0xa09
	.byte	0x1
	.byte	0x22
	.long	0xa0f
	.byte	0x0
	.byte	0x23
	.byte	0x1
	.set L$set$564,LASF22-Lsection__debug_str
	.long L$set$564
	.byte	0x14
	.byte	0x40
	.set L$set$565,LASF24-Lsection__debug_str
	.long L$set$565
	.long	0xa1a
	.byte	0x3
	.byte	0x1
	.byte	0x1b
	.long	0xa09
	.byte	0x1
	.byte	0x22
	.long	0xa0f
	.byte	0x0
	.byte	0x0
	.byte	0x1f
	.byte	0x4
	.long	0x9af
	.byte	0x24
	.byte	0x4
	.long	0xa15
	.byte	0x20
	.long	0x9af
	.byte	0x24
	.byte	0x4
	.long	0x9af
	.byte	0x1e
	.byte	0x4
	.byte	0x5
	.ascii "int\0"
	.byte	0x1e
	.byte	0x1
	.byte	0x6
	.ascii "signed char\0"
	.byte	0x1e
	.byte	0x1
	.byte	0x8
	.ascii "unsigned char\0"
	.byte	0x1e
	.byte	0x2
	.byte	0x5
	.ascii "short int\0"
	.byte	0x1e
	.byte	0x2
	.byte	0x7
	.ascii "short unsigned int\0"
	.byte	0x7
	.ascii "__uint32_t\0"
	.byte	0x15
	.byte	0x2d
	.long	0xa7c
	.byte	0x1e
	.byte	0x4
	.byte	0x7
	.ascii "unsigned int\0"
	.byte	0x7
	.ascii "__int64_t\0"
	.byte	0x15
	.byte	0x2e
	.long	0xa9d
	.byte	0x1e
	.byte	0x8
	.byte	0x5
	.ascii "long long int\0"
	.byte	0x1e
	.byte	0x8
	.byte	0x7
	.ascii "long long unsigned int\0"
	.byte	0x1e
	.byte	0x4
	.byte	0x5
	.ascii "long int\0"
	.byte	0x25
	.ascii "$_0\0"
	.byte	0x80
	.byte	0x15
	.byte	0x4c
	.long	0xb04
	.byte	0x26
	.ascii "__mbstate8\0"
	.byte	0x15
	.byte	0x4d
	.long	0xb04
	.byte	0x26
	.ascii "_mbstateL\0"
	.byte	0x15
	.byte	0x4e
	.long	0xa9d
	.byte	0x0
	.byte	0x27
	.long	0xb17
	.long	0xb14
	.byte	0x28
	.long	0xb14
	.byte	0x7f
	.byte	0x0
	.byte	0x29
	.byte	0x4
	.byte	0x7
	.byte	0x1e
	.byte	0x1
	.byte	0x6
	.ascii "char\0"
	.byte	0x7
	.ascii "__mbstate_t\0"
	.byte	0x15
	.byte	0x4f
	.long	0xad4
	.byte	0x7
	.ascii "__darwin_mbstate_t\0"
	.byte	0x15
	.byte	0x51
	.long	0xb1f
	.byte	0x7
	.ascii "__darwin_size_t\0"
	.byte	0x15
	.byte	0x5a
	.long	0xb63
	.byte	0x1e
	.byte	0x4
	.byte	0x7
	.ascii "long unsigned int\0"
	.byte	0x7
	.ascii "__darwin_va_list\0"
	.byte	0x15
	.byte	0x60
	.long	0xb90
	.byte	0x2a
	.byte	0x4
	.ascii "__builtin_va_list\0"
	.long	0xb17
	.byte	0x7
	.ascii "__darwin_wchar_t\0"
	.byte	0x15
	.byte	0x66
	.long	0xa20
	.byte	0x7
	.ascii "__darwin_rune_t\0"
	.byte	0x15
	.byte	0x6b
	.long	0xba8
	.byte	0x7
	.ascii "__darwin_wint_t\0"
	.byte	0x15
	.byte	0x6e
	.long	0xa20
	.byte	0x7
	.ascii "__darwin_clock_t\0"
	.byte	0x15
	.byte	0x73
	.long	0xb63
	.byte	0x7
	.ascii "__darwin_time_t\0"
	.byte	0x15
	.byte	0x76
	.long	0xac8
	.byte	0x2b
	.byte	0x4
	.byte	0x27
	.long	0xb17
	.long	0xc2f
	.byte	0x28
	.long	0xb14
	.byte	0x3
	.byte	0x0
	.byte	0x27
	.long	0xb17
	.long	0xc3f
	.byte	0x28
	.long	0xb14
	.byte	0x7
	.byte	0x0
	.byte	0xe
	.ascii "_opaque_pthread_once_t\0"
	.byte	0x8
	.byte	0x16
	.byte	0x45
	.long	0xc82
	.byte	0xf
	.ascii "__sig\0"
	.byte	0x16
	.byte	0x45
	.long	0xac8
	.byte	0x2
	.byte	0x23
	.byte	0x0
	.byte	0xf
	.ascii "__opaque\0"
	.byte	0x16
	.byte	0x45
	.long	0xc1f
	.byte	0x2
	.byte	0x23
	.byte	0x4
	.byte	0x0
	.byte	0x7
	.ascii "__darwin_off_t\0"
	.byte	0x16
	.byte	0x6e
	.long	0xa8c
	.byte	0x7
	.ascii "__darwin_pthread_once_t\0"
	.byte	0x16
	.byte	0x7c
	.long	0xc3f
	.byte	0x7
	.ascii "__darwin_wctrans_t\0"
	.byte	0x17
	.byte	0x28
	.long	0xa20
	.byte	0x7
	.ascii "__darwin_wctype_t\0"
	.byte	0x17
	.byte	0x2c
	.long	0xb63
	.byte	0x7
	.ascii "clock_t\0"
	.byte	0x18
	.byte	0x4d
	.long	0xbee
	.byte	0x7
	.ascii "size_t\0"
	.byte	0x18
	.byte	0x52
	.long	0xb4c
	.byte	0x7
	.ascii "time_t\0"
	.byte	0x18
	.byte	0x57
	.long	0xc06
	.byte	0xe
	.ascii "tm\0"
	.byte	0x2c
	.byte	0x18
	.byte	0x5a
	.long	0xde7
	.byte	0xf
	.ascii "tm_sec\0"
	.byte	0x18
	.byte	0x5b
	.long	0xa20
	.byte	0x2
	.byte	0x23
	.byte	0x0
	.byte	0xf
	.ascii "tm_min\0"
	.byte	0x18
	.byte	0x5c
	.long	0xa20
	.byte	0x2
	.byte	0x23
	.byte	0x4
	.byte	0xf
	.ascii "tm_hour\0"
	.byte	0x18
	.byte	0x5d
	.long	0xa20
	.byte	0x2
	.byte	0x23
	.byte	0x8
	.byte	0xf
	.ascii "tm_mday\0"
	.byte	0x18
	.byte	0x5e
	.long	0xa20
	.byte	0x2
	.byte	0x23
	.byte	0xc
	.byte	0xf
	.ascii "tm_mon\0"
	.byte	0x18
	.byte	0x5f
	.long	0xa20
	.byte	0x2
	.byte	0x23
	.byte	0x10
	.byte	0xf
	.ascii "tm_year\0"
	.byte	0x18
	.byte	0x60
	.long	0xa20
	.byte	0x2
	.byte	0x23
	.byte	0x14
	.byte	0xf
	.ascii "tm_wday\0"
	.byte	0x18
	.byte	0x61
	.long	0xa20
	.byte	0x2
	.byte	0x23
	.byte	0x18
	.byte	0xf
	.ascii "tm_yday\0"
	.byte	0x18
	.byte	0x62
	.long	0xa20
	.byte	0x2
	.byte	0x23
	.byte	0x1c
	.byte	0xf
	.ascii "tm_isdst\0"
	.byte	0x18
	.byte	0x63
	.long	0xa20
	.byte	0x2
	.byte	0x23
	.byte	0x20
	.byte	0xf
	.ascii "tm_gmtoff\0"
	.byte	0x18
	.byte	0x64
	.long	0xac8
	.byte	0x2
	.byte	0x23
	.byte	0x24
	.byte	0xf
	.ascii "tm_zone\0"
	.byte	0x18
	.byte	0x65
	.long	0xde7
	.byte	0x2
	.byte	0x23
	.byte	0x28
	.byte	0x0
	.byte	0x1f
	.byte	0x4
	.long	0xb17
	.byte	0x7
	.ascii "pthread_once_t\0"
	.byte	0x19
	.byte	0x5e
	.long	0xc98
	.byte	0x2c
	.long	0xa20
	.long	0xe0e
	.byte	0x2d
	.byte	0x0
	.byte	0x1f
	.byte	0x4
	.long	0xe14
	.byte	0x2a
	.byte	0x4
	.ascii "__vtbl_ptr_type\0"
	.long	0xe03
	.byte	0x1e
	.byte	0x1
	.byte	0x2
	.ascii "bool\0"
	.byte	0x7
	.ascii "ptrdiff_t\0"
	.byte	0x1a
	.byte	0x98
	.long	0xa20
	.byte	0x2
	.ascii "std\0"
	.byte	0x1b
	.byte	0x0
	.long	0x2641
	.byte	0x2e
	.byte	0x1c
	.byte	0x37
	.long	0x2641
	.byte	0x2e
	.byte	0x1c
	.byte	0x38
	.long	0x2644
	.byte	0x9
	.ascii "__true_type\0"
	.byte	0x1
	.byte	0x9
	.ascii "__false_type\0"
	.byte	0x1
	.byte	0x2e
	.byte	0x1d
	.byte	0x3b
	.long	0x28e4
	.byte	0x2e
	.byte	0x1d
	.byte	0x3c
	.long	0x2b18
	.byte	0x2e
	.byte	0x1d
	.byte	0x3d
	.long	0x2b3f
	.byte	0x2e
	.byte	0x1e
	.byte	0x58
	.long	0x2b52
	.byte	0x2e
	.byte	0x1e
	.byte	0x5a
	.long	0x2b6e
	.byte	0x2e
	.byte	0x1e
	.byte	0x5d
	.long	0x2b8f
	.byte	0x2e
	.byte	0x1e
	.byte	0x5f
	.long	0x2bab
	.byte	0x2e
	.byte	0x1e
	.byte	0x62
	.long	0x2bc6
	.byte	0x2e
	.byte	0x1f
	.byte	0x64
	.long	0x2e32
	.byte	0x2e
	.byte	0x1f
	.byte	0x65
	.long	0x2e3e
	.byte	0x2e
	.byte	0x1f
	.byte	0x67
	.long	0x2e41
	.byte	0x2e
	.byte	0x1f
	.byte	0x68
	.long	0x2e5a
	.byte	0x2e
	.byte	0x1f
	.byte	0x69
	.long	0x2e71
	.byte	0x2e
	.byte	0x1f
	.byte	0x6a
	.long	0x2e88
	.byte	0x2e
	.byte	0x1f
	.byte	0x6b
	.long	0x2e9f
	.byte	0x2e
	.byte	0x1f
	.byte	0x6c
	.long	0x2eb6
	.byte	0x2e
	.byte	0x1f
	.byte	0x6d
	.long	0x2ecd
	.byte	0x2e
	.byte	0x1f
	.byte	0x6e
	.long	0x2eef
	.byte	0x2e
	.byte	0x1f
	.byte	0x6f
	.long	0x2f11
	.byte	0x2e
	.byte	0x1f
	.byte	0x73
	.long	0x2f32
	.byte	0x2e
	.byte	0x1f
	.byte	0x74
	.long	0x2f59
	.byte	0x2e
	.byte	0x1f
	.byte	0x76
	.long	0x2f7f
	.byte	0x2e
	.byte	0x1f
	.byte	0x77
	.long	0x2fa1
	.byte	0x2e
	.byte	0x1f
	.byte	0x78
	.long	0x2fc9
	.byte	0x2e
	.byte	0x1f
	.byte	0x7a
	.long	0x2fe1
	.byte	0x2e
	.byte	0x1f
	.byte	0x7b
	.long	0x2ff9
	.byte	0x2e
	.byte	0x1f
	.byte	0x7c
	.long	0x3007
	.byte	0x2e
	.byte	0x1f
	.byte	0x7d
	.long	0x301f
	.byte	0x2e
	.byte	0x1f
	.byte	0x82
	.long	0x3033
	.byte	0x2e
	.byte	0x1f
	.byte	0x83
	.long	0x304b
	.byte	0x2e
	.byte	0x1f
	.byte	0x84
	.long	0x3068
	.byte	0x2e
	.byte	0x1f
	.byte	0x86
	.long	0x307c
	.byte	0x2e
	.byte	0x1f
	.byte	0x87
	.long	0x3095
	.byte	0x2e
	.byte	0x1f
	.byte	0x8a
	.long	0x30bc
	.byte	0x2e
	.byte	0x1f
	.byte	0x8b
	.long	0x30ca
	.byte	0x2e
	.byte	0x1f
	.byte	0x8c
	.long	0x30e2
	.byte	0x2e
	.byte	0x1f
	.byte	0xb5
	.long	0x30ff
	.byte	0x2e
	.byte	0x1f
	.byte	0xb6
	.long	0x3122
	.byte	0x2e
	.byte	0x1f
	.byte	0xb7
	.long	0x3144
	.byte	0x2e
	.byte	0x1f
	.byte	0xb8
	.long	0x3161
	.byte	0x2e
	.byte	0x1f
	.byte	0xb9
	.long	0x3188
	.byte	0x2e
	.byte	0x20
	.byte	0x3c
	.long	0x2bee
	.byte	0x2e
	.byte	0x21
	.byte	0x46
	.long	0x34de
	.byte	0x2e
	.byte	0x21
	.byte	0x47
	.long	0x34f8
	.byte	0x2e
	.byte	0x21
	.byte	0x48
	.long	0x3512
	.byte	0x2e
	.byte	0x21
	.byte	0x49
	.long	0x352c
	.byte	0x2e
	.byte	0x21
	.byte	0x4a
	.long	0x3546
	.byte	0x2e
	.byte	0x21
	.byte	0x4b
	.long	0x3561
	.byte	0x2e
	.byte	0x21
	.byte	0x4c
	.long	0x357c
	.byte	0x2e
	.byte	0x21
	.byte	0x4d
	.long	0x3597
	.byte	0x2e
	.byte	0x21
	.byte	0x4e
	.long	0x35b2
	.byte	0x2e
	.byte	0x21
	.byte	0x4f
	.long	0x35cd
	.byte	0x2e
	.byte	0x21
	.byte	0x50
	.long	0x35e8
	.byte	0x2e
	.byte	0x21
	.byte	0x51
	.long	0x3603
	.byte	0x2e
	.byte	0x21
	.byte	0x52
	.long	0x361e
	.byte	0x2e
	.byte	0x22
	.byte	0x42
	.long	0x3639
	.byte	0x2e
	.byte	0x22
	.byte	0x43
	.long	0x363c
	.byte	0x2e
	.byte	0x22
	.byte	0x44
	.long	0xd15
	.byte	0x2e
	.byte	0x22
	.byte	0x46
	.long	0x363f
	.byte	0x2e
	.byte	0x22
	.byte	0x47
	.long	0x3650
	.byte	0x2e
	.byte	0x22
	.byte	0x48
	.long	0x366c
	.byte	0x2e
	.byte	0x22
	.byte	0x49
	.long	0x368d
	.byte	0x2e
	.byte	0x22
	.byte	0x4a
	.long	0x36aa
	.byte	0x2e
	.byte	0x22
	.byte	0x4b
	.long	0x36cc
	.byte	0x2e
	.byte	0x22
	.byte	0x4c
	.long	0x36ee
	.byte	0x2e
	.byte	0x22
	.byte	0x4d
	.long	0x3705
	.byte	0x2e
	.byte	0x22
	.byte	0x4e
	.long	0x371c
	.byte	0x2e
	.byte	0x23
	.byte	0x48
	.long	0x3746
	.byte	0x2e
	.byte	0x23
	.byte	0x92
	.long	0x3767
	.byte	0x2e
	.byte	0x23
	.byte	0x94
	.long	0x376a
	.byte	0x2e
	.byte	0x23
	.byte	0x95
	.long	0x3781
	.byte	0x2e
	.byte	0x23
	.byte	0x96
	.long	0x3798
	.byte	0x2e
	.byte	0x23
	.byte	0x97
	.long	0x37ca
	.byte	0x2e
	.byte	0x23
	.byte	0x98
	.long	0x37e6
	.byte	0x2e
	.byte	0x23
	.byte	0x99
	.long	0x380d
	.byte	0x2e
	.byte	0x23
	.byte	0x9a
	.long	0x3829
	.byte	0x2e
	.byte	0x23
	.byte	0x9b
	.long	0x3846
	.byte	0x2e
	.byte	0x23
	.byte	0x9c
	.long	0x3863
	.byte	0x2e
	.byte	0x23
	.byte	0x9d
	.long	0x387a
	.byte	0x2e
	.byte	0x23
	.byte	0x9e
	.long	0x3887
	.byte	0x2e
	.byte	0x23
	.byte	0x9f
	.long	0x38ae
	.byte	0x2e
	.byte	0x23
	.byte	0xa0
	.long	0x38d4
	.byte	0x2e
	.byte	0x23
	.byte	0xa1
	.long	0x38f6
	.byte	0x2e
	.byte	0x23
	.byte	0xa2
	.long	0x391c
	.byte	0x2e
	.byte	0x23
	.byte	0xa3
	.long	0x3938
	.byte	0x2e
	.byte	0x23
	.byte	0xa4
	.long	0x394f
	.byte	0x2e
	.byte	0x23
	.byte	0xa5
	.long	0x3971
	.byte	0x2e
	.byte	0x23
	.byte	0xa6
	.long	0x398e
	.byte	0x2e
	.byte	0x23
	.byte	0xa7
	.long	0x39aa
	.byte	0x2e
	.byte	0x23
	.byte	0xa9
	.long	0x39cb
	.byte	0x2e
	.byte	0x23
	.byte	0xab
	.long	0x39ec
	.byte	0x2e
	.byte	0x23
	.byte	0xad
	.long	0x3a12
	.byte	0x2e
	.byte	0x23
	.byte	0xaf
	.long	0x3a33
	.byte	0x2e
	.byte	0x23
	.byte	0xb1
	.long	0x3a4f
	.byte	0x2e
	.byte	0x23
	.byte	0xb3
	.long	0x3a6b
	.byte	0x2e
	.byte	0x23
	.byte	0xb4
	.long	0x3a8c
	.byte	0x2e
	.byte	0x23
	.byte	0xb5
	.long	0x3aa8
	.byte	0x2e
	.byte	0x23
	.byte	0xb6
	.long	0x3ac4
	.byte	0x2e
	.byte	0x23
	.byte	0xb7
	.long	0x3ae0
	.byte	0x2e
	.byte	0x23
	.byte	0xb8
	.long	0x3afc
	.byte	0x2e
	.byte	0x23
	.byte	0xb9
	.long	0x3b18
	.byte	0x2e
	.byte	0x23
	.byte	0xba
	.long	0x3b42
	.byte	0x2e
	.byte	0x23
	.byte	0xbb
	.long	0x3b59
	.byte	0x2e
	.byte	0x23
	.byte	0xbc
	.long	0x3b7a
	.byte	0x2e
	.byte	0x23
	.byte	0xbd
	.long	0x3b9b
	.byte	0x2e
	.byte	0x23
	.byte	0xbe
	.long	0x3bbc
	.byte	0x2e
	.byte	0x23
	.byte	0xbf
	.long	0x3be8
	.byte	0x2e
	.byte	0x23
	.byte	0xc0
	.long	0x3c04
	.byte	0x2e
	.byte	0x23
	.byte	0xc2
	.long	0x3c26
	.byte	0x2e
	.byte	0x23
	.byte	0xc4
	.long	0x3c42
	.byte	0x2e
	.byte	0x23
	.byte	0xc5
	.long	0x3c63
	.byte	0x2e
	.byte	0x23
	.byte	0xc6
	.long	0x3c84
	.byte	0x2e
	.byte	0x23
	.byte	0xc7
	.long	0x3ca5
	.byte	0x2e
	.byte	0x23
	.byte	0xc8
	.long	0x3cc6
	.byte	0x2e
	.byte	0x23
	.byte	0xc9
	.long	0x3cdd
	.byte	0x2e
	.byte	0x23
	.byte	0xca
	.long	0x3cfe
	.byte	0x2e
	.byte	0x23
	.byte	0xcb
	.long	0x3d1f
	.byte	0x2e
	.byte	0x23
	.byte	0xcc
	.long	0x3d40
	.byte	0x2e
	.byte	0x23
	.byte	0xcd
	.long	0x3d61
	.byte	0x2e
	.byte	0x23
	.byte	0xce
	.long	0x3d79
	.byte	0x2e
	.byte	0x23
	.byte	0xd0
	.long	0x3d91
	.byte	0x2e
	.byte	0x23
	.byte	0xd6
	.long	0x3dad
	.byte	0x2e
	.byte	0x23
	.byte	0xdc
	.long	0x3dc9
	.byte	0x2e
	.byte	0x23
	.byte	0xe2
	.long	0x3de5
	.byte	0x2e
	.byte	0x23
	.byte	0xe8
	.long	0x3e01
	.byte	0x2f
	.byte	0x23
	.word	0x10e
	.long	0x3e22
	.byte	0x2f
	.byte	0x23
	.word	0x10f
	.long	0x3e4d
	.byte	0x2f
	.byte	0x23
	.word	0x110
	.long	0x3e6e
	.byte	0x2e
	.byte	0x24
	.byte	0x6a
	.long	0x3eba
	.byte	0x2e
	.byte	0x24
	.byte	0x6b
	.long	0x3ef2
	.byte	0x2e
	.byte	0x24
	.byte	0x6f
	.long	0x3f3a
	.byte	0x2e
	.byte	0x24
	.byte	0x70
	.long	0x3f58
	.byte	0x2e
	.byte	0x24
	.byte	0x71
	.long	0x3f6f
	.byte	0x2e
	.byte	0x24
	.byte	0x72
	.long	0x3f86
	.byte	0x2e
	.byte	0x24
	.byte	0x73
	.long	0x3f9d
	.byte	0x2e
	.byte	0x24
	.byte	0x75
	.long	0x3fe2
	.byte	0x2e
	.byte	0x24
	.byte	0x77
	.long	0x3ffe
	.byte	0x2e
	.byte	0x24
	.byte	0x78
	.long	0x4011
	.byte	0x2e
	.byte	0x24
	.byte	0x7a
	.long	0x4028
	.byte	0x2e
	.byte	0x24
	.byte	0x7d
	.long	0x4044
	.byte	0x2e
	.byte	0x24
	.byte	0x7e
	.long	0x4060
	.byte	0x2e
	.byte	0x24
	.byte	0x7f
	.long	0x4081
	.byte	0x2e
	.byte	0x24
	.byte	0x81
	.long	0x40a2
	.byte	0x2e
	.byte	0x24
	.byte	0x82
	.long	0x40c4
	.byte	0x2e
	.byte	0x24
	.byte	0x83
	.long	0x40d1
	.byte	0x2e
	.byte	0x24
	.byte	0x84
	.long	0x40ed
	.byte	0x2e
	.byte	0x24
	.byte	0x85
	.long	0x4100
	.byte	0x2e
	.byte	0x24
	.byte	0x86
	.long	0x4120
	.byte	0x2e
	.byte	0x24
	.byte	0x87
	.long	0x4141
	.byte	0x2e
	.byte	0x24
	.byte	0x88
	.long	0x4162
	.byte	0x2e
	.byte	0x24
	.byte	0x8a
	.long	0x417d
	.byte	0x2e
	.byte	0x24
	.byte	0x8b
	.long	0x419e
	.byte	0x2e
	.byte	0x24
	.byte	0xce
	.long	0x3f2b
	.byte	0x2e
	.byte	0x24
	.byte	0xd0
	.long	0x426b
	.byte	0x2e
	.byte	0x24
	.byte	0xd1
	.long	0x2668
	.byte	0x2e
	.byte	0x24
	.byte	0xd3
	.long	0x427e
	.byte	0x2e
	.byte	0x24
	.byte	0xd4
	.long	0x2683
	.byte	0x2e
	.byte	0x24
	.byte	0xd5
	.long	0x41ba
	.byte	0x2e
	.byte	0x24
	.byte	0xd7
	.long	0x41d6
	.byte	0x2e
	.byte	0x24
	.byte	0xd8
	.long	0x422f
	.byte	0x2e
	.byte	0x24
	.byte	0xd9
	.long	0x41ed
	.byte	0x2e
	.byte	0x24
	.byte	0xda
	.long	0x420e
	.byte	0x2e
	.byte	0x24
	.byte	0xdb
	.long	0x424f
	.byte	0x18
	.ascii "__debug\0"
	.byte	0x26
	.byte	0x31
	.byte	0x9
	.ascii "char_traits<char>\0"
	.byte	0x1
	.byte	0x9
	.ascii "fpos<__mbstate_t>\0"
	.byte	0x1
	.byte	0x9
	.ascii "nothrow_t\0"
	.byte	0x1
	.byte	0x9
	.ascii "allocator<char>\0"
	.byte	0x1
	.byte	0x30
	.ascii "float_denorm_style\0"
	.byte	0x4
	.byte	0x27
	.byte	0xac
	.long	0x1396
	.byte	0xb
	.ascii "denorm_indeterminate\0"
	.byte	0x7f
	.byte	0xb
	.ascii "denorm_absent\0"
	.byte	0x0
	.byte	0xb
	.ascii "denorm_present\0"
	.byte	0x1
	.byte	0x0
	.byte	0x4
	.ascii "basic_string<char,std::char_traits<char>,std::allocator<char> >\0"
	.byte	0x1
	.long	0x141b
	.byte	0x31
	.set L$set$566,LASF25-Lsection__debug_str
	.long L$set$566
	.byte	0x4
	.byte	0x28
	.word	0x104
	.byte	0x32
	.long	0x4612
	.byte	0x2
	.byte	0x23
	.byte	0x0
	.byte	0x1
	.byte	0x13
	.ascii "_M_p\0"
	.byte	0x28
	.word	0x108
	.long	0xde7
	.byte	0x2
	.byte	0x23
	.byte	0x0
	.byte	0x33
	.byte	0x1
	.set L$set$567,LASF25-Lsection__debug_str
	.long L$set$567
	.byte	0x28
	.word	0x105
	.byte	0x1
	.byte	0x1b
	.long	0x4686
	.byte	0x1
	.byte	0x22
	.long	0xde7
	.byte	0x22
	.long	0x4671
	.byte	0x0
	.byte	0x0
	.byte	0x0
	.byte	0x9
	.ascii "reverse_iterator<__gnu_cxx::__normal_iterator<const char*, std::basic_string<char, std::char_traits<char>, std::allocator<char> > > >\0"
	.byte	0x1
	.byte	0x9
	.ascii "reverse_iterator<__gnu_cxx::__normal_iterator<char*, std::basic_string<char, std::char_traits<char>, std::allocator<char> > > >\0"
	.byte	0x1
	.byte	0x3
	.set L$set$568,LASF26-Lsection__debug_str
	.long L$set$568
	.byte	0x1
	.byte	0x30
	.ascii "_Ios_Fmtflags\0"
	.byte	0x4
	.byte	0x29
	.byte	0x37
	.long	0x1649
	.byte	0xb
	.ascii "_S_boolalpha\0"
	.byte	0x1
	.byte	0xb
	.ascii "_S_dec\0"
	.byte	0x2
	.byte	0xb
	.ascii "_S_fixed\0"
	.byte	0x4
	.byte	0xb
	.ascii "_S_hex\0"
	.byte	0x8
	.byte	0xb
	.ascii "_S_internal\0"
	.byte	0x10
	.byte	0xc
	.set L$set$569,LASF27-Lsection__debug_str
	.long L$set$569
	.byte	0x20
	.byte	0xb
	.ascii "_S_oct\0"
	.byte	0xc0,0x0
	.byte	0xc
	.set L$set$570,LASF28-Lsection__debug_str
	.long L$set$570
	.byte	0x80,0x1
	.byte	0xb
	.ascii "_S_scientific\0"
	.byte	0x80,0x2
	.byte	0xb
	.ascii "_S_showbase\0"
	.byte	0x80,0x4
	.byte	0xb
	.ascii "_S_showpoint\0"
	.byte	0x80,0x8
	.byte	0xb
	.ascii "_S_showpos\0"
	.byte	0x80,0x10
	.byte	0xb
	.ascii "_S_skipws\0"
	.byte	0x80,0x20
	.byte	0xb
	.ascii "_S_unitbuf\0"
	.byte	0x80,0xc0,0x0
	.byte	0xb
	.ascii "_S_uppercase\0"
	.byte	0x80,0x80,0x1
	.byte	0xb
	.ascii "_S_adjustfield\0"
	.byte	0xb0,0x1
	.byte	0xb
	.ascii "_S_basefield\0"
	.byte	0xca,0x0
	.byte	0xb
	.ascii "_S_floatfield\0"
	.byte	0x84,0x2
	.byte	0xb
	.ascii "_S_ios_fmtflags_end\0"
	.byte	0x80,0x80,0x4
	.byte	0x0
	.byte	0x30
	.ascii "_Ios_Openmode\0"
	.byte	0x4
	.byte	0x29
	.byte	0x6b
	.long	0x16af
	.byte	0xb
	.ascii "_S_app\0"
	.byte	0x1
	.byte	0xb
	.ascii "_S_ate\0"
	.byte	0x2
	.byte	0xb
	.ascii "_S_bin\0"
	.byte	0x4
	.byte	0xb
	.ascii "_S_in\0"
	.byte	0x8
	.byte	0xb
	.ascii "_S_out\0"
	.byte	0x10
	.byte	0xb
	.ascii "_S_trunc\0"
	.byte	0x20
	.byte	0xb
	.ascii "_S_ios_openmode_end\0"
	.byte	0x80,0x80,0x4
	.byte	0x0
	.byte	0x30
	.ascii "_Ios_Iostate\0"
	.byte	0x4
	.byte	0x29
	.byte	0x93
	.long	0x170e
	.byte	0xb
	.ascii "_S_goodbit\0"
	.byte	0x0
	.byte	0xb
	.ascii "_S_badbit\0"
	.byte	0x1
	.byte	0xb
	.ascii "_S_eofbit\0"
	.byte	0x2
	.byte	0xb
	.ascii "_S_failbit\0"
	.byte	0x4
	.byte	0xb
	.ascii "_S_ios_iostate_end\0"
	.byte	0x80,0x80,0x4
	.byte	0x0
	.byte	0x30
	.ascii "_Ios_Seekdir\0"
	.byte	0x4
	.byte	0x29
	.byte	0xb8
	.long	0x1756
	.byte	0xb
	.ascii "_S_beg\0"
	.byte	0x0
	.byte	0xb
	.ascii "_S_cur\0"
	.byte	0x1
	.byte	0xb
	.ascii "_S_end\0"
	.byte	0x2
	.byte	0xb
	.ascii "_S_ios_seekdir_end\0"
	.byte	0x80,0x80,0x4
	.byte	0x0
	.byte	0x34
	.set L$set$571,LASF29-Lsection__debug_str
	.long L$set$571
	.byte	0x1
	.long	0x193c
	.byte	0x14
	.ascii "event\0"
	.byte	0x4
	.byte	0x29
	.word	0x1a2
	.long	0x179c
	.byte	0xb
	.ascii "erase_event\0"
	.byte	0x0
	.byte	0xb
	.ascii "imbue_event\0"
	.byte	0x1
	.byte	0xb
	.ascii "copyfmt_event\0"
	.byte	0x2
	.byte	0x0
	.byte	0x35
	.set L$set$572,LASF30-Lsection__debug_str
	.long L$set$572
	.byte	0x10
	.byte	0x29
	.word	0x1d3
	.long	0x1842
	.byte	0x13
	.ascii "_M_next\0"
	.byte	0x29
	.word	0x1d5
	.long	0x6569
	.byte	0x2
	.byte	0x23
	.byte	0x0
	.byte	0x13
	.ascii "_M_fn\0"
	.byte	0x29
	.word	0x1d6
	.long	0x658a
	.byte	0x2
	.byte	0x23
	.byte	0x4
	.byte	0x12
	.set L$set$573,LASF31-Lsection__debug_str
	.long L$set$573
	.byte	0x29
	.word	0x1d7
	.long	0xa20
	.byte	0x2
	.byte	0x23
	.byte	0x8
	.byte	0x12
	.set L$set$574,LASF32-Lsection__debug_str
	.long L$set$574
	.byte	0x29
	.word	0x1d8
	.long	0x44a4
	.byte	0x2
	.byte	0x23
	.byte	0xc
	.byte	0x36
	.byte	0x1
	.set L$set$575,LASF30-Lsection__debug_str
	.long L$set$575
	.byte	0x29
	.word	0x1db
	.byte	0x1
	.long	0x180f
	.byte	0x1b
	.long	0x6569
	.byte	0x1
	.byte	0x22
	.long	0x658a
	.byte	0x22
	.long	0xa20
	.byte	0x22
	.long	0x6569
	.byte	0x0
	.byte	0x37
	.byte	0x1
	.set L$set$576,LASF33-Lsection__debug_str
	.long L$set$576
	.byte	0x29
	.word	0x1df
	.set L$set$577,LASF35-Lsection__debug_str
	.long L$set$577
	.byte	0x1
	.long	0x1828
	.byte	0x1b
	.long	0x6569
	.byte	0x1
	.byte	0x0
	.byte	0x38
	.byte	0x1
	.set L$set$578,LASF34-Lsection__debug_str
	.long L$set$578
	.byte	0x29
	.word	0x1e3
	.set L$set$579,LASF36-Lsection__debug_str
	.long L$set$579
	.long	0xa20
	.byte	0x1
	.byte	0x1b
	.long	0x6569
	.byte	0x1
	.byte	0x0
	.byte	0x0
	.byte	0x35
	.set L$set$580,LASF37-Lsection__debug_str
	.long L$set$580
	.byte	0x8
	.byte	0x29
	.word	0x1f1
	.long	0x1889
	.byte	0x13
	.ascii "_M_pword\0"
	.byte	0x29
	.word	0x1f2
	.long	0xc1d
	.byte	0x2
	.byte	0x23
	.byte	0x0
	.byte	0x13
	.ascii "_M_iword\0"
	.byte	0x29
	.word	0x1f3
	.long	0xac8
	.byte	0x2
	.byte	0x23
	.byte	0x4
	.byte	0x33
	.byte	0x1
	.set L$set$581,LASF37-Lsection__debug_str
	.long L$set$581
	.byte	0x29
	.word	0x1f4
	.byte	0x1
	.byte	0x1b
	.long	0x6590
	.byte	0x1
	.byte	0x0
	.byte	0x0
	.byte	0x31
	.set L$set$582,LASF38-Lsection__debug_str
	.long L$set$582
	.byte	0x1
	.byte	0x29
	.word	0x213
	.byte	0x39
	.set L$set$583,LASF39-Lsection__debug_str
	.long L$set$583
	.byte	0x29
	.word	0x21a
	.ascii "_ZNSt8ios_base4Init11_S_refcountE\0"
	.long	0x44a4
	.byte	0x1
	.byte	0x3
	.byte	0x1
	.byte	0x3a
	.ascii "_S_synced_with_stdio\0"
	.byte	0x29
	.word	0x21b
	.ascii "_ZNSt8ios_base4Init20_S_synced_with_stdioE\0"
	.long	0xe2a
	.byte	0x1
	.byte	0x3
	.byte	0x1
	.byte	0x36
	.byte	0x1
	.set L$set$584,LASF38-Lsection__debug_str
	.long L$set$584
	.byte	0x29
	.word	0x216
	.byte	0x1
	.long	0x1923
	.byte	0x1b
	.long	0x6596
	.byte	0x1
	.byte	0x0
	.byte	0x33
	.byte	0x1
	.set L$set$585,LASF40-Lsection__debug_str
	.long L$set$585
	.byte	0x29
	.word	0x217
	.byte	0x1
	.byte	0x1b
	.long	0x6596
	.byte	0x1
	.byte	0x1b
	.long	0xa20
	.byte	0x1
	.byte	0x0
	.byte	0x0
	.byte	0x0
	.byte	0x9
	.ascii "basic_streambuf<char,std::char_traits<char> >\0"
	.byte	0x1
	.byte	0x2e
	.byte	0x2a
	.byte	0x52
	.long	0x73b3
	.byte	0x2e
	.byte	0x2a
	.byte	0x54
	.long	0x73b6
	.byte	0x2e
	.byte	0x2a
	.byte	0x55
	.long	0x73b9
	.byte	0x2e
	.byte	0x2a
	.byte	0x57
	.long	0x73bc
	.byte	0x2e
	.byte	0x2a
	.byte	0x58
	.long	0x73d6
	.byte	0x2e
	.byte	0x2a
	.byte	0x5a
	.long	0x73f0
	.byte	0x2e
	.byte	0x2a
	.byte	0x5c
	.long	0x740a
	.byte	0x2e
	.byte	0x2a
	.byte	0x5d
	.long	0x7424
	.byte	0x2e
	.byte	0x2a
	.byte	0x5e
	.long	0x7443
	.byte	0x2e
	.byte	0x2a
	.byte	0x5f
	.long	0x745d
	.byte	0x2e
	.byte	0x2a
	.byte	0x60
	.long	0x7477
	.byte	0x2e
	.byte	0x2a
	.byte	0x61
	.long	0x7491
	.byte	0x2e
	.byte	0x2a
	.byte	0x62
	.long	0x74ab
	.byte	0x2e
	.byte	0x2a
	.byte	0x63
	.long	0x74c5
	.byte	0x2e
	.byte	0x2a
	.byte	0x64
	.long	0x74df
	.byte	0x2e
	.byte	0x2a
	.byte	0x65
	.long	0x74f9
	.byte	0x2e
	.byte	0x2a
	.byte	0x66
	.long	0x7513
	.byte	0x2e
	.byte	0x2a
	.byte	0x67
	.long	0x752f
	.byte	0x2e
	.byte	0x2a
	.byte	0x68
	.long	0x7549
	.byte	0x2e
	.byte	0x2a
	.byte	0x69
	.long	0x7563
	.byte	0x2e
	.byte	0x2a
	.byte	0x6a
	.long	0x757a
	.byte	0x9
	.ascii "ctype_base\0"
	.byte	0x1
	.byte	0x9
	.ascii "ctype<char>\0"
	.byte	0x1
	.byte	0x4
	.ascii "money_base\0"
	.byte	0x1
	.long	0x1a4b
	.byte	0x3b
	.ascii "pattern\0"
	.byte	0x4
	.byte	0x2b
	.word	0xdc6
	.byte	0x13
	.ascii "field\0"
	.byte	0x2b
	.word	0xdc6
	.long	0xc1f
	.byte	0x2
	.byte	0x23
	.byte	0x0
	.byte	0x0
	.byte	0x0
	.byte	0x9
	.ascii "basic_ios<char,std::char_traits<char> >\0"
	.byte	0x1
	.byte	0x9
	.ascii "basic_ostream<char,std::char_traits<char> >\0"
	.byte	0x1
	.byte	0x9
	.ascii "num_put<char,std::ostreambuf_iterator<char, std::char_traits<char> > >\0"
	.byte	0x1
	.byte	0x9
	.ascii "num_get<char,std::istreambuf_iterator<char, std::char_traits<char> > >\0"
	.byte	0x1
	.byte	0x9
	.ascii "istreambuf_iterator<char,std::char_traits<char> >\0"
	.byte	0x1
	.byte	0x9
	.ascii "ostreambuf_iterator<char,std::char_traits<char> >\0"
	.byte	0x1
	.byte	0x9
	.ascii "allocator<sf::Event>\0"
	.byte	0x1
	.byte	0x9
	.ascii "allocator<sf::Event*>\0"
	.byte	0x1
	.byte	0x4
	.ascii "_Deque_base<sf::Event,std::allocator<sf::Event> >\0"
	.byte	0x1
	.long	0x1c75
	.byte	0x31
	.set L$set$586,LASF41-Lsection__debug_str
	.long L$set$586
	.byte	0x28
	.byte	0x2c
	.word	0x193
	.byte	0x32
	.long	0x983e
	.byte	0x2
	.byte	0x23
	.byte	0x0
	.byte	0x1
	.byte	0x13
	.ascii "_M_map\0"
	.byte	0x2c
	.word	0x194
	.long	0x9ac5
	.byte	0x2
	.byte	0x23
	.byte	0x0
	.byte	0x13
	.ascii "_M_map_size\0"
	.byte	0x2c
	.word	0x195
	.long	0xcf9
	.byte	0x2
	.byte	0x23
	.byte	0x4
	.byte	0x12
	.set L$set$587,LASF42-Lsection__debug_str
	.long L$set$587
	.byte	0x2c
	.word	0x196
	.long	0x98a8
	.byte	0x2
	.byte	0x23
	.byte	0x8
	.byte	0x12
	.set L$set$588,LASF43-Lsection__debug_str
	.long L$set$588
	.byte	0x2c
	.word	0x197
	.long	0x98a8
	.byte	0x2
	.byte	0x23
	.byte	0x18
	.byte	0x33
	.byte	0x1
	.set L$set$589,LASF41-Lsection__debug_str
	.long L$set$589
	.byte	0x2c
	.word	0x199
	.byte	0x1
	.byte	0x1b
	.long	0x9ae8
	.byte	0x1
	.byte	0x22
	.long	0x989d
	.byte	0x0
	.byte	0x0
	.byte	0x0
	.byte	0x9
	.ascii "_Deque_iterator<sf::Event,sf::Event&,sf::Event*>\0"
	.byte	0x1
	.byte	0x9
	.ascii "_Deque_iterator<sf::Event,const sf::Event&,const sf::Event*>\0"
	.byte	0x1
	.byte	0x9
	.ascii "deque<sf::Event,std::allocator<sf::Event> >\0"
	.byte	0x1
	.byte	0x9
	.ascii "reverse_iterator<std::_Deque_iterator<sf::Event, const sf::Event&, const sf::Event*> >\0"
	.byte	0x1
	.byte	0x9
	.ascii "reverse_iterator<std::_Deque_iterator<sf::Event, sf::Event&, sf::Event*> >\0"
	.byte	0x1
	.byte	0x9
	.ascii "queue<sf::Event,std::deque<sf::Event, std::allocator<sf::Event> > >\0"
	.byte	0x1
	.byte	0x30
	.ascii "_Rb_tree_color\0"
	.byte	0x4
	.byte	0x3
	.byte	0x5d
	.long	0x1e2d
	.byte	0xb
	.ascii "_S_red\0"
	.byte	0x0
	.byte	0xb
	.ascii "_S_black\0"
	.byte	0x1
	.byte	0x0
	.byte	0x9
	.ascii "_Rb_tree_node_base\0"
	.byte	0x1
	.byte	0x9
	.ascii "allocator<sf::ResourcePtr<sf::Image>*>\0"
	.byte	0x1
	.byte	0x3
	.set L$set$590,LASF44-Lsection__debug_str
	.long L$set$590
	.byte	0x1
	.byte	0x9
	.ascii "_Rb_tree_node<sf::ResourcePtr<sf::Image>*>\0"
	.byte	0x1
	.byte	0x9
	.ascii "binary_function<sf::ResourcePtr<sf::Image>*,sf::ResourcePtr<sf::Image>*,bool>\0"
	.byte	0x1
	.byte	0x9
	.ascii "less<sf::ResourcePtr<sf::Image>*>\0"
	.byte	0x1
	.byte	0x4
	.ascii "_Rb_tree<sf::ResourcePtr<sf::Image>*,sf::ResourcePtr<sf::Image>*,std::_Identity<sf::ResourcePtr<sf::Image>*>,std::less<sf::ResourcePtr<sf::Image>*>,std::allocator<sf::ResourcePtr<sf::Image>*> >\0"
	.byte	0x1
	.long	0x2089
	.byte	0x3b
	.ascii "_Rb_tree_impl<std::less<sf::ResourcePtr<sf::Image>*>,false>\0"
	.byte	0x18
	.byte	0x3
	.word	0x19a
	.byte	0x32
	.long	0xb3a4
	.byte	0x2
	.byte	0x23
	.byte	0x0
	.byte	0x1
	.byte	0x13
	.ascii "_M_key_compare\0"
	.byte	0x3
	.word	0x19b
	.long	0xb416
	.byte	0x2
	.byte	0x23
	.byte	0x0
	.byte	0x13
	.ascii "_M_header\0"
	.byte	0x3
	.word	0x19c
	.long	0xac81
	.byte	0x2
	.byte	0x23
	.byte	0x4
	.byte	0x13
	.ascii "_M_node_count\0"
	.byte	0x3
	.word	0x19d
	.long	0xcf9
	.byte	0x2
	.byte	0x23
	.byte	0x14
	.byte	0x33
	.byte	0x1
	.set L$set$591,LASF45-Lsection__debug_str
	.long L$set$591
	.byte	0x3
	.word	0x1a0
	.byte	0x1
	.byte	0x1b
	.long	0xb45a
	.byte	0x1
	.byte	0x22
	.long	0xb403
	.byte	0x22
	.long	0xb460
	.byte	0x0
	.byte	0x0
	.byte	0x0
	.byte	0x9
	.ascii "_Rb_tree_iterator<sf::ResourcePtr<sf::Image>*>\0"
	.byte	0x1
	.byte	0x9
	.ascii "_Rb_tree_const_iterator<sf::ResourcePtr<sf::Image>*>\0"
	.byte	0x1
	.byte	0x9
	.ascii "reverse_iterator<std::_Rb_tree_iterator<sf::ResourcePtr<sf::Image>*> >\0"
	.byte	0x1
	.byte	0x9
	.ascii "reverse_iterator<std::_Rb_tree_const_iterator<sf::ResourcePtr<sf::Image>*> >\0"
	.byte	0x1
	.byte	0x9
	.ascii "pair<std::_Rb_tree_iterator<sf::ResourcePtr<sf::Image>*>,bool>\0"
	.byte	0x1
	.byte	0x9
	.ascii "pair<std::_Rb_tree_iterator<sf::ResourcePtr<sf::Image>*>,std::_Rb_tree_iterator<sf::ResourcePtr<sf::Image>*> >\0"
	.byte	0x1
	.byte	0x9
	.ascii "pair<std::_Rb_tree_const_iterator<sf::ResourcePtr<sf::Image>*>,std::_Rb_tree_const_iterator<sf::ResourcePtr<sf::Image>*> >\0"
	.byte	0x1
	.byte	0x9
	.ascii "set<sf::ResourcePtr<sf::Image>*,std::less<sf::ResourcePtr<sf::Image>*>,std::allocator<sf::ResourcePtr<sf::Image>*> >\0"
	.byte	0x1
	.byte	0x9
	.ascii "pair<std::_Rb_tree_const_iterator<sf::ResourcePtr<sf::Image>*>,bool>\0"
	.byte	0x1
	.byte	0x9
	.ascii "allocator<sf::Color>\0"
	.byte	0x1
	.byte	0x4
	.ascii "_Vector_base<sf::Color,std::allocator<sf::Color> >\0"
	.byte	0x1
	.long	0x2426
	.byte	0x5
	.set L$set$592,LASF46-Lsection__debug_str
	.long L$set$592
	.byte	0xc
	.byte	0x2d
	.byte	0x53
	.byte	0x32
	.long	0xc452
	.byte	0x2
	.byte	0x23
	.byte	0x0
	.byte	0x1
	.byte	0x10
	.set L$set$593,LASF42-Lsection__debug_str
	.long L$set$593
	.byte	0x2d
	.byte	0x54
	.long	0xac69
	.byte	0x2
	.byte	0x23
	.byte	0x0
	.byte	0x10
	.set L$set$594,LASF43-Lsection__debug_str
	.long L$set$594
	.byte	0x2d
	.byte	0x55
	.long	0xac69
	.byte	0x2
	.byte	0x23
	.byte	0x4
	.byte	0xf
	.ascii "_M_end_of_storage\0"
	.byte	0x2d
	.byte	0x56
	.long	0xac69
	.byte	0x2
	.byte	0x23
	.byte	0x8
	.byte	0x8
	.byte	0x1
	.set L$set$595,LASF46-Lsection__debug_str
	.long L$set$595
	.byte	0x2d
	.byte	0x57
	.byte	0x1
	.byte	0x1b
	.long	0xc4bc
	.byte	0x1
	.byte	0x22
	.long	0xc4b1
	.byte	0x0
	.byte	0x0
	.byte	0x0
	.byte	0x9
	.ascii "vector<sf::Color,std::allocator<sf::Color> >\0"
	.byte	0x1
	.byte	0x9
	.ascii "reverse_iterator<__gnu_cxx::__normal_iterator<const sf::Color*, std::vector<sf::Color, std::allocator<sf::Color> > > >\0"
	.byte	0x1
	.byte	0x9
	.ascii "reverse_iterator<__gnu_cxx::__normal_iterator<sf::Color*, std::vector<sf::Color, std::allocator<sf::Color> > > >\0"
	.byte	0x1
	.byte	0x9
	.ascii "unary_function<sf::ResourcePtr<sf::Image>*,sf::ResourcePtr<sf::Image>*>\0"
	.byte	0x1
	.byte	0x9
	.ascii "_Identity<sf::ResourcePtr<sf::Image>*>\0"
	.byte	0x1
	.byte	0x1c
	.byte	0x1
	.set L$set$596,LASF47-Lsection__debug_str
	.long L$set$596
	.byte	0x1
	.byte	0xb6
	.set L$set$597,LASF48-Lsection__debug_str
	.long L$set$597
	.long	0xe4aa
	.byte	0x1
	.long	0x25d4
	.byte	0x22
	.long	0xe4aa
	.byte	0x22
	.long	0xe4aa
	.byte	0x0
	.byte	0x3c
	.set L$set$598,LASF102-Lsection__debug_str
	.long L$set$598
	.byte	0x2
	.word	0x9fe
	.set L$set$599,LASF112-Lsection__debug_str
	.long L$set$599
	.long	0xe2a
	.byte	0x1
	.long	0x25f9
	.byte	0x22
	.long	0x2b34
	.byte	0x22
	.long	0xcf9
	.byte	0x22
	.long	0x655e
	.byte	0x0
	.byte	0x3d
	.ascii "nothrow\0"
	.byte	0x2e
	.byte	0x49
	.set L$set$600,LASF49-Lsection__debug_str
	.long L$set$600
	.long	0xf153
	.byte	0x1
	.byte	0x1
	.byte	0x3d
	.ascii "cout\0"
	.byte	0x9
	.byte	0x40
	.set L$set$601,LASF50-Lsection__debug_str
	.long L$set$601
	.long	0xf16d
	.byte	0x1
	.byte	0x1
	.byte	0x3e
	.ascii "__ioinit\0"
	.byte	0x9
	.byte	0x4d
	.ascii "_ZStL8__ioinit\0"
	.long	0x1889
	.byte	0x1
	.byte	0x0
	.byte	0x29
	.byte	0x4
	.byte	0x5
	.byte	0x29
	.byte	0x4
	.byte	0x7
	.byte	0x3f
	.long	0xe5c
	.byte	0x1
	.byte	0x2f
	.byte	0x61
	.byte	0x3f
	.long	0xe6a
	.byte	0x1
	.byte	0x2f
	.byte	0x62
	.byte	0x2
	.ascii "__gnu_cxx\0"
	.byte	0x2f
	.byte	0x4a
	.long	0x28e4
	.byte	0x1c
	.byte	0x1
	.set L$set$602,LASF51-Lsection__debug_str
	.long L$set$602
	.byte	0x24
	.byte	0xae
	.set L$set$603,LASF52-Lsection__debug_str
	.long L$set$603
	.long	0xa9d
	.byte	0x1
	.long	0x2683
	.byte	0x22
	.long	0xa9d
	.byte	0x0
	.byte	0x1c
	.byte	0x1
	.set L$set$604,LASF53-Lsection__debug_str
	.long L$set$604
	.byte	0x24
	.byte	0xb4
	.set L$set$605,LASF54-Lsection__debug_str
	.long L$set$605
	.long	0x3f2b
	.byte	0x1
	.long	0x26a3
	.byte	0x22
	.long	0xa9d
	.byte	0x22
	.long	0xa9d
	.byte	0x0
	.byte	0x18
	.ascii "__debug\0"
	.byte	0x26
	.byte	0x36
	.byte	0x9
	.ascii "new_allocator<char>\0"
	.byte	0x1
	.byte	0x9
	.ascii "__normal_iterator<char*,std::basic_string<char, std::char_traits<char>, std::allocator<char> > >\0"
	.byte	0x1
	.byte	0x9
	.ascii "__normal_iterator<const char*,std::basic_string<char, std::char_traits<char>, std::allocator<char> > >\0"
	.byte	0x1
	.byte	0x9
	.ascii "new_allocator<sf::Event>\0"
	.byte	0x1
	.byte	0x9
	.ascii "new_allocator<sf::ResourcePtr<sf::Image>*>\0"
	.byte	0x1
	.byte	0x9
	.ascii "new_allocator<std::_Rb_tree_node<sf::ResourcePtr<sf::Image>*> >\0"
	.byte	0x1
	.byte	0x9
	.ascii "new_allocator<sf::Color>\0"
	.byte	0x1
	.byte	0x9
	.ascii "__normal_iterator<sf::Color*,std::vector<sf::Color, std::allocator<sf::Color> > >\0"
	.byte	0x1
	.byte	0x9
	.ascii "__normal_iterator<const sf::Color*,std::vector<sf::Color, std::allocator<sf::Color> > >\0"
	.byte	0x1
	.byte	0x0
	.byte	0xe
	.ascii "lconv\0"
	.byte	0x38
	.byte	0x30
	.byte	0x2b
	.long	0x2b18
	.byte	0x10
	.set L$set$606,LASF55-Lsection__debug_str
	.long L$set$606
	.byte	0x30
	.byte	0x2c
	.long	0xde7
	.byte	0x2
	.byte	0x23
	.byte	0x0
	.byte	0x10
	.set L$set$607,LASF56-Lsection__debug_str
	.long L$set$607
	.byte	0x30
	.byte	0x2d
	.long	0xde7
	.byte	0x2
	.byte	0x23
	.byte	0x4
	.byte	0x10
	.set L$set$608,LASF57-Lsection__debug_str
	.long L$set$608
	.byte	0x30
	.byte	0x2e
	.long	0xde7
	.byte	0x2
	.byte	0x23
	.byte	0x8
	.byte	0xf
	.ascii "int_curr_symbol\0"
	.byte	0x30
	.byte	0x2f
	.long	0xde7
	.byte	0x2
	.byte	0x23
	.byte	0xc
	.byte	0xf
	.ascii "currency_symbol\0"
	.byte	0x30
	.byte	0x30
	.long	0xde7
	.byte	0x2
	.byte	0x23
	.byte	0x10
	.byte	0xf
	.ascii "mon_decimal_point\0"
	.byte	0x30
	.byte	0x31
	.long	0xde7
	.byte	0x2
	.byte	0x23
	.byte	0x14
	.byte	0xf
	.ascii "mon_thousands_sep\0"
	.byte	0x30
	.byte	0x32
	.long	0xde7
	.byte	0x2
	.byte	0x23
	.byte	0x18
	.byte	0xf
	.ascii "mon_grouping\0"
	.byte	0x30
	.byte	0x33
	.long	0xde7
	.byte	0x2
	.byte	0x23
	.byte	0x1c
	.byte	0x10
	.set L$set$609,LASF58-Lsection__debug_str
	.long L$set$609
	.byte	0x30
	.byte	0x34
	.long	0xde7
	.byte	0x2
	.byte	0x23
	.byte	0x20
	.byte	0x10
	.set L$set$610,LASF59-Lsection__debug_str
	.long L$set$610
	.byte	0x30
	.byte	0x35
	.long	0xde7
	.byte	0x2
	.byte	0x23
	.byte	0x24
	.byte	0xf
	.ascii "int_frac_digits\0"
	.byte	0x30
	.byte	0x36
	.long	0xb17
	.byte	0x2
	.byte	0x23
	.byte	0x28
	.byte	0x10
	.set L$set$611,LASF60-Lsection__debug_str
	.long L$set$611
	.byte	0x30
	.byte	0x37
	.long	0xb17
	.byte	0x2
	.byte	0x23
	.byte	0x29
	.byte	0xf
	.ascii "p_cs_precedes\0"
	.byte	0x30
	.byte	0x38
	.long	0xb17
	.byte	0x2
	.byte	0x23
	.byte	0x2a
	.byte	0xf
	.ascii "p_sep_by_space\0"
	.byte	0x30
	.byte	0x39
	.long	0xb17
	.byte	0x2
	.byte	0x23
	.byte	0x2b
	.byte	0xf
	.ascii "n_cs_precedes\0"
	.byte	0x30
	.byte	0x3a
	.long	0xb17
	.byte	0x2
	.byte	0x23
	.byte	0x2c
	.byte	0xf
	.ascii "n_sep_by_space\0"
	.byte	0x30
	.byte	0x3b
	.long	0xb17
	.byte	0x2
	.byte	0x23
	.byte	0x2d
	.byte	0xf
	.ascii "p_sign_posn\0"
	.byte	0x30
	.byte	0x3c
	.long	0xb17
	.byte	0x2
	.byte	0x23
	.byte	0x2e
	.byte	0xf
	.ascii "n_sign_posn\0"
	.byte	0x30
	.byte	0x3d
	.long	0xb17
	.byte	0x2
	.byte	0x23
	.byte	0x2f
	.byte	0xf
	.ascii "int_p_cs_precedes\0"
	.byte	0x30
	.byte	0x3e
	.long	0xb17
	.byte	0x2
	.byte	0x23
	.byte	0x30
	.byte	0xf
	.ascii "int_n_cs_precedes\0"
	.byte	0x30
	.byte	0x3f
	.long	0xb17
	.byte	0x2
	.byte	0x23
	.byte	0x31
	.byte	0xf
	.ascii "int_p_sep_by_space\0"
	.byte	0x30
	.byte	0x40
	.long	0xb17
	.byte	0x2
	.byte	0x23
	.byte	0x32
	.byte	0xf
	.ascii "int_n_sep_by_space\0"
	.byte	0x30
	.byte	0x41
	.long	0xb17
	.byte	0x2
	.byte	0x23
	.byte	0x33
	.byte	0xf
	.ascii "int_p_sign_posn\0"
	.byte	0x30
	.byte	0x42
	.long	0xb17
	.byte	0x2
	.byte	0x23
	.byte	0x34
	.byte	0xf
	.ascii "int_n_sign_posn\0"
	.byte	0x30
	.byte	0x43
	.long	0xb17
	.byte	0x2
	.byte	0x23
	.byte	0x35
	.byte	0x0
	.byte	0x40
	.byte	0x1
	.set L$set$612,LASF61-Lsection__debug_str
	.long L$set$612
	.byte	0x31
	.byte	0x35
	.long	0xde7
	.byte	0x1
	.long	0x2b34
	.byte	0x22
	.long	0xa20
	.byte	0x22
	.long	0x2b34
	.byte	0x0
	.byte	0x1f
	.byte	0x4
	.long	0x2b3a
	.byte	0x20
	.long	0xb17
	.byte	0x41
	.byte	0x1
	.set L$set$613,LASF85-Lsection__debug_str
	.long L$set$613
	.byte	0x30
	.byte	0x4b
	.long	0x2b4c
	.byte	0x1
	.byte	0x1f
	.byte	0x4
	.long	0x28e4
	.byte	0x40
	.byte	0x1
	.set L$set$614,LASF62-Lsection__debug_str
	.long L$set$614
	.byte	0x32
	.byte	0x5d
	.long	0xa20
	.byte	0x1
	.long	0x2b6e
	.byte	0x22
	.long	0x2b34
	.byte	0x22
	.long	0x2b34
	.byte	0x0
	.byte	0x40
	.byte	0x1
	.set L$set$615,LASF63-Lsection__debug_str
	.long L$set$615
	.byte	0x32
	.byte	0x6e
	.long	0xcf9
	.byte	0x1
	.long	0x2b8f
	.byte	0x22
	.long	0xde7
	.byte	0x22
	.long	0x2b34
	.byte	0x22
	.long	0xcf9
	.byte	0x0
	.byte	0x40
	.byte	0x1
	.set L$set$616,LASF64-Lsection__debug_str
	.long L$set$616
	.byte	0x32
	.byte	0x6d
	.long	0xde7
	.byte	0x1
	.long	0x2bab
	.byte	0x22
	.long	0xde7
	.byte	0x22
	.long	0x2b34
	.byte	0x0
	.byte	0x1c
	.byte	0x1
	.set L$set$617,LASF65-Lsection__debug_str
	.long L$set$617
	.byte	0x32
	.byte	0x60
	.set L$set$618,LASF66-Lsection__debug_str
	.long L$set$618
	.long	0xde7
	.byte	0x1
	.long	0x2bc6
	.byte	0x22
	.long	0xa20
	.byte	0x0
	.byte	0x40
	.byte	0x1
	.set L$set$619,LASF67-Lsection__debug_str
	.long L$set$619
	.byte	0x32
	.byte	0x51
	.long	0xc1d
	.byte	0x1
	.long	0x2be7
	.byte	0x22
	.long	0x2be7
	.byte	0x22
	.long	0xa20
	.byte	0x22
	.long	0xcf9
	.byte	0x0
	.byte	0x1f
	.byte	0x4
	.long	0x2bed
	.byte	0x42
	.byte	0x7
	.ascii "va_list\0"
	.byte	0x33
	.byte	0x46
	.long	0xb78
	.byte	0x7
	.ascii "fpos_t\0"
	.byte	0x33
	.byte	0x57
	.long	0xc82
	.byte	0xe
	.ascii "__sbuf\0"
	.byte	0x8
	.byte	0x33
	.byte	0x62
	.long	0x2c3b
	.byte	0xf
	.ascii "_base\0"
	.byte	0x33
	.byte	0x63
	.long	0x2c3b
	.byte	0x2
	.byte	0x23
	.byte	0x0
	.byte	0xf
	.ascii "_size\0"
	.byte	0x33
	.byte	0x64
	.long	0xa20
	.byte	0x2
	.byte	0x23
	.byte	0x4
	.byte	0x0
	.byte	0x1f
	.byte	0x4
	.long	0xa36
	.byte	0xe
	.ascii "__sFILE\0"
	.byte	0x58
	.byte	0x33
	.byte	0x84
	.long	0x2d8f
	.byte	0xf
	.ascii "_p\0"
	.byte	0x33
	.byte	0x85
	.long	0x2c3b
	.byte	0x2
	.byte	0x23
	.byte	0x0
	.byte	0xf
	.ascii "_r\0"
	.byte	0x33
	.byte	0x86
	.long	0xa20
	.byte	0x2
	.byte	0x23
	.byte	0x4
	.byte	0xf
	.ascii "_w\0"
	.byte	0x33
	.byte	0x87
	.long	0xa20
	.byte	0x2
	.byte	0x23
	.byte	0x8
	.byte	0xf
	.ascii "_flags\0"
	.byte	0x33
	.byte	0x88
	.long	0xa47
	.byte	0x2
	.byte	0x23
	.byte	0xc
	.byte	0xf
	.ascii "_file\0"
	.byte	0x33
	.byte	0x89
	.long	0xa47
	.byte	0x2
	.byte	0x23
	.byte	0xe
	.byte	0xf
	.ascii "_bf\0"
	.byte	0x33
	.byte	0x8a
	.long	0x2c0b
	.byte	0x2
	.byte	0x23
	.byte	0x10
	.byte	0xf
	.ascii "_lbfsize\0"
	.byte	0x33
	.byte	0x8b
	.long	0xa20
	.byte	0x2
	.byte	0x23
	.byte	0x18
	.byte	0xf
	.ascii "_cookie\0"
	.byte	0x33
	.byte	0x8e
	.long	0xc1d
	.byte	0x2
	.byte	0x23
	.byte	0x1c
	.byte	0xf
	.ascii "_close\0"
	.byte	0x33
	.byte	0x8f
	.long	0x2d9e
	.byte	0x2
	.byte	0x23
	.byte	0x20
	.byte	0xf
	.ascii "_read\0"
	.byte	0x33
	.byte	0x90
	.long	0x2dbd
	.byte	0x2
	.byte	0x23
	.byte	0x24
	.byte	0xf
	.ascii "_seek\0"
	.byte	0x33
	.byte	0x91
	.long	0x2ddc
	.byte	0x2
	.byte	0x23
	.byte	0x28
	.byte	0xf
	.ascii "_write\0"
	.byte	0x33
	.byte	0x92
	.long	0x2dfb
	.byte	0x2
	.byte	0x23
	.byte	0x2c
	.byte	0xf
	.ascii "_ub\0"
	.byte	0x33
	.byte	0x95
	.long	0x2c0b
	.byte	0x2
	.byte	0x23
	.byte	0x30
	.byte	0xf
	.ascii "_extra\0"
	.byte	0x33
	.byte	0x96
	.long	0x2e0c
	.byte	0x2
	.byte	0x23
	.byte	0x38
	.byte	0xf
	.ascii "_ur\0"
	.byte	0x33
	.byte	0x97
	.long	0xa20
	.byte	0x2
	.byte	0x23
	.byte	0x3c
	.byte	0xf
	.ascii "_ubuf\0"
	.byte	0x33
	.byte	0x9a
	.long	0x2e12
	.byte	0x2
	.byte	0x23
	.byte	0x40
	.byte	0xf
	.ascii "_nbuf\0"
	.byte	0x33
	.byte	0x9b
	.long	0x2e22
	.byte	0x2
	.byte	0x23
	.byte	0x43
	.byte	0xf
	.ascii "_lb\0"
	.byte	0x33
	.byte	0x9e
	.long	0x2c0b
	.byte	0x2
	.byte	0x23
	.byte	0x44
	.byte	0xf
	.ascii "_blksize\0"
	.byte	0x33
	.byte	0xa1
	.long	0xa20
	.byte	0x2
	.byte	0x23
	.byte	0x4c
	.byte	0xf
	.ascii "_offset\0"
	.byte	0x33
	.byte	0xa2
	.long	0x2bfd
	.byte	0x2
	.byte	0x23
	.byte	0x50
	.byte	0x0
	.byte	0x2c
	.long	0xa20
	.long	0x2d9e
	.byte	0x22
	.long	0xc1d
	.byte	0x0
	.byte	0x1f
	.byte	0x4
	.long	0x2d8f
	.byte	0x2c
	.long	0xa20
	.long	0x2dbd
	.byte	0x22
	.long	0xc1d
	.byte	0x22
	.long	0xde7
	.byte	0x22
	.long	0xa20
	.byte	0x0
	.byte	0x1f
	.byte	0x4
	.long	0x2da4
	.byte	0x2c
	.long	0x2bfd
	.long	0x2ddc
	.byte	0x22
	.long	0xc1d
	.byte	0x22
	.long	0x2bfd
	.byte	0x22
	.long	0xa20
	.byte	0x0
	.byte	0x1f
	.byte	0x4
	.long	0x2dc3
	.byte	0x2c
	.long	0xa20
	.long	0x2dfb
	.byte	0x22
	.long	0xc1d
	.byte	0x22
	.long	0x2b34
	.byte	0x22
	.long	0xa20
	.byte	0x0
	.byte	0x1f
	.byte	0x4
	.long	0x2de2
	.byte	0x9
	.ascii "__sFILEX\0"
	.byte	0x1
	.byte	0x1f
	.byte	0x4
	.long	0x2e01
	.byte	0x27
	.long	0xa36
	.long	0x2e22
	.byte	0x28
	.long	0xb14
	.byte	0x2
	.byte	0x0
	.byte	0x27
	.long	0xa36
	.long	0x2e32
	.byte	0x28
	.long	0xb14
	.byte	0x0
	.byte	0x0
	.byte	0x7
	.ascii "FILE\0"
	.byte	0x33
	.byte	0xa3
	.long	0x2c41
	.byte	0x29
	.byte	0x8
	.byte	0x5
	.byte	0x6
	.byte	0x1
	.set L$set$620,LASF68-Lsection__debug_str
	.long L$set$620
	.byte	0x33
	.byte	0xf9
	.byte	0x1
	.long	0x2e54
	.byte	0x22
	.long	0x2e54
	.byte	0x0
	.byte	0x1f
	.byte	0x4
	.long	0x2e32
	.byte	0x40
	.byte	0x1
	.set L$set$621,LASF69-Lsection__debug_str
	.long L$set$621
	.byte	0x33
	.byte	0xfa
	.long	0xa20
	.byte	0x1
	.long	0x2e71
	.byte	0x22
	.long	0x2e54
	.byte	0x0
	.byte	0x40
	.byte	0x1
	.set L$set$622,LASF70-Lsection__debug_str
	.long L$set$622
	.byte	0x33
	.byte	0xfb
	.long	0xa20
	.byte	0x1
	.long	0x2e88
	.byte	0x22
	.long	0x2e54
	.byte	0x0
	.byte	0x40
	.byte	0x1
	.set L$set$623,LASF71-Lsection__debug_str
	.long L$set$623
	.byte	0x33
	.byte	0xfc
	.long	0xa20
	.byte	0x1
	.long	0x2e9f
	.byte	0x22
	.long	0x2e54
	.byte	0x0
	.byte	0x40
	.byte	0x1
	.set L$set$624,LASF72-Lsection__debug_str
	.long L$set$624
	.byte	0x33
	.byte	0xfd
	.long	0xa20
	.byte	0x1
	.long	0x2eb6
	.byte	0x22
	.long	0x2e54
	.byte	0x0
	.byte	0x40
	.byte	0x1
	.set L$set$625,LASF73-Lsection__debug_str
	.long L$set$625
	.byte	0x33
	.byte	0xfe
	.long	0xa20
	.byte	0x1
	.long	0x2ecd
	.byte	0x22
	.long	0x2e54
	.byte	0x0
	.byte	0x40
	.byte	0x1
	.set L$set$626,LASF74-Lsection__debug_str
	.long L$set$626
	.byte	0x33
	.byte	0xff
	.long	0xa20
	.byte	0x1
	.long	0x2ee9
	.byte	0x22
	.long	0x2e54
	.byte	0x22
	.long	0x2ee9
	.byte	0x0
	.byte	0x1f
	.byte	0x4
	.long	0x2bfd
	.byte	0x43
	.byte	0x1
	.set L$set$627,LASF75-Lsection__debug_str
	.long L$set$627
	.byte	0x33
	.word	0x100
	.long	0xde7
	.byte	0x1
	.long	0x2f11
	.byte	0x22
	.long	0xde7
	.byte	0x22
	.long	0xa20
	.byte	0x22
	.long	0x2e54
	.byte	0x0
	.byte	0x44
	.byte	0x1
	.set L$set$628,LASF76-Lsection__debug_str
	.long L$set$628
	.byte	0x33
	.word	0x104
	.set L$set$629,LASF79-Lsection__debug_str
	.long L$set$629
	.long	0x2e54
	.byte	0x1
	.long	0x2f32
	.byte	0x22
	.long	0x2b34
	.byte	0x22
	.long	0x2b34
	.byte	0x0
	.byte	0x43
	.byte	0x1
	.set L$set$630,LASF77-Lsection__debug_str
	.long L$set$630
	.byte	0x33
	.word	0x109
	.long	0xcf9
	.byte	0x1
	.long	0x2f59
	.byte	0x22
	.long	0xc1d
	.byte	0x22
	.long	0xcf9
	.byte	0x22
	.long	0xcf9
	.byte	0x22
	.long	0x2e54
	.byte	0x0
	.byte	0x44
	.byte	0x1
	.set L$set$631,LASF78-Lsection__debug_str
	.long L$set$631
	.byte	0x33
	.word	0x10b
	.set L$set$632,LASF80-Lsection__debug_str
	.long L$set$632
	.long	0x2e54
	.byte	0x1
	.long	0x2f7f
	.byte	0x22
	.long	0x2b34
	.byte	0x22
	.long	0x2b34
	.byte	0x22
	.long	0x2e54
	.byte	0x0
	.byte	0x43
	.byte	0x1
	.set L$set$633,LASF81-Lsection__debug_str
	.long L$set$633
	.byte	0x33
	.word	0x10d
	.long	0xa20
	.byte	0x1
	.long	0x2fa1
	.byte	0x22
	.long	0x2e54
	.byte	0x22
	.long	0xac8
	.byte	0x22
	.long	0xa20
	.byte	0x0
	.byte	0x43
	.byte	0x1
	.set L$set$634,LASF82-Lsection__debug_str
	.long L$set$634
	.byte	0x33
	.word	0x10e
	.long	0xa20
	.byte	0x1
	.long	0x2fbe
	.byte	0x22
	.long	0x2e54
	.byte	0x22
	.long	0x2fbe
	.byte	0x0
	.byte	0x1f
	.byte	0x4
	.long	0x2fc4
	.byte	0x20
	.long	0x2bfd
	.byte	0x43
	.byte	0x1
	.set L$set$635,LASF83-Lsection__debug_str
	.long L$set$635
	.byte	0x33
	.word	0x10f
	.long	0xac8
	.byte	0x1
	.long	0x2fe1
	.byte	0x22
	.long	0x2e54
	.byte	0x0
	.byte	0x43
	.byte	0x1
	.set L$set$636,LASF84-Lsection__debug_str
	.long L$set$636
	.byte	0x33
	.word	0x111
	.long	0xa20
	.byte	0x1
	.long	0x2ff9
	.byte	0x22
	.long	0x2e54
	.byte	0x0
	.byte	0x45
	.byte	0x1
	.set L$set$637,LASF86-Lsection__debug_str
	.long L$set$637
	.byte	0x33
	.word	0x112
	.long	0xa20
	.byte	0x1
	.byte	0x43
	.byte	0x1
	.set L$set$638,LASF87-Lsection__debug_str
	.long L$set$638
	.byte	0x33
	.word	0x113
	.long	0xde7
	.byte	0x1
	.long	0x301f
	.byte	0x22
	.long	0xde7
	.byte	0x0
	.byte	0x36
	.byte	0x1
	.set L$set$639,LASF88-Lsection__debug_str
	.long L$set$639
	.byte	0x33
	.word	0x118
	.byte	0x1
	.long	0x3033
	.byte	0x22
	.long	0x2b34
	.byte	0x0
	.byte	0x43
	.byte	0x1
	.set L$set$640,LASF89-Lsection__debug_str
	.long L$set$640
	.byte	0x33
	.word	0x11d
	.long	0xa20
	.byte	0x1
	.long	0x304b
	.byte	0x22
	.long	0x2b34
	.byte	0x0
	.byte	0x43
	.byte	0x1
	.set L$set$641,LASF90-Lsection__debug_str
	.long L$set$641
	.byte	0x33
	.word	0x11e
	.long	0xa20
	.byte	0x1
	.long	0x3068
	.byte	0x22
	.long	0x2b34
	.byte	0x22
	.long	0x2b34
	.byte	0x0
	.byte	0x36
	.byte	0x1
	.set L$set$642,LASF91-Lsection__debug_str
	.long L$set$642
	.byte	0x33
	.word	0x11f
	.byte	0x1
	.long	0x307c
	.byte	0x22
	.long	0x2e54
	.byte	0x0
	.byte	0x36
	.byte	0x1
	.set L$set$643,LASF92-Lsection__debug_str
	.long L$set$643
	.byte	0x33
	.word	0x121
	.byte	0x1
	.long	0x3095
	.byte	0x22
	.long	0x2e54
	.byte	0x22
	.long	0xde7
	.byte	0x0
	.byte	0x43
	.byte	0x1
	.set L$set$644,LASF93-Lsection__debug_str
	.long L$set$644
	.byte	0x33
	.word	0x122
	.long	0xa20
	.byte	0x1
	.long	0x30bc
	.byte	0x22
	.long	0x2e54
	.byte	0x22
	.long	0xde7
	.byte	0x22
	.long	0xa20
	.byte	0x22
	.long	0xcf9
	.byte	0x0
	.byte	0x45
	.byte	0x1
	.set L$set$645,LASF94-Lsection__debug_str
	.long L$set$645
	.byte	0x33
	.word	0x125
	.long	0x2e54
	.byte	0x1
	.byte	0x43
	.byte	0x1
	.set L$set$646,LASF95-Lsection__debug_str
	.long L$set$646
	.byte	0x33
	.word	0x126
	.long	0xde7
	.byte	0x1
	.long	0x30e2
	.byte	0x22
	.long	0xde7
	.byte	0x0
	.byte	0x43
	.byte	0x1
	.set L$set$647,LASF96-Lsection__debug_str
	.long L$set$647
	.byte	0x33
	.word	0x127
	.long	0xa20
	.byte	0x1
	.long	0x30ff
	.byte	0x22
	.long	0xa20
	.byte	0x22
	.long	0x2e54
	.byte	0x0
	.byte	0x43
	.byte	0x1
	.set L$set$648,LASF97-Lsection__debug_str
	.long L$set$648
	.byte	0x33
	.word	0x161
	.long	0xa20
	.byte	0x1
	.long	0x3122
	.byte	0x22
	.long	0xde7
	.byte	0x22
	.long	0xcf9
	.byte	0x22
	.long	0x2b34
	.byte	0x2d
	.byte	0x0
	.byte	0x43
	.byte	0x1
	.set L$set$649,LASF98-Lsection__debug_str
	.long L$set$649
	.byte	0x33
	.word	0x163
	.long	0xa20
	.byte	0x1
	.long	0x3144
	.byte	0x22
	.long	0x2e54
	.byte	0x22
	.long	0x2b34
	.byte	0x22
	.long	0x2bee
	.byte	0x0
	.byte	0x43
	.byte	0x1
	.set L$set$650,LASF99-Lsection__debug_str
	.long L$set$650
	.byte	0x33
	.word	0x164
	.long	0xa20
	.byte	0x1
	.long	0x3161
	.byte	0x22
	.long	0x2b34
	.byte	0x22
	.long	0x2bee
	.byte	0x0
	.byte	0x43
	.byte	0x1
	.set L$set$651,LASF100-Lsection__debug_str
	.long L$set$651
	.byte	0x33
	.word	0x165
	.long	0xa20
	.byte	0x1
	.long	0x3188
	.byte	0x22
	.long	0xde7
	.byte	0x22
	.long	0xcf9
	.byte	0x22
	.long	0x2b34
	.byte	0x22
	.long	0x2bee
	.byte	0x0
	.byte	0x43
	.byte	0x1
	.set L$set$652,LASF101-Lsection__debug_str
	.long L$set$652
	.byte	0x33
	.word	0x166
	.long	0xa20
	.byte	0x1
	.long	0x31aa
	.byte	0x22
	.long	0x2b34
	.byte	0x22
	.long	0x2b34
	.byte	0x22
	.long	0x2bee
	.byte	0x0
	.byte	0x7
	.ascii "__gthread_once_t\0"
	.byte	0x34
	.byte	0x2f
	.long	0xded
	.byte	0x7
	.ascii "wint_t\0"
	.byte	0x35
	.byte	0x46
	.long	0xbd7
	.byte	0xe
	.ascii "$_33\0"
	.byte	0x10
	.byte	0x35
	.byte	0x51
	.long	0x3220
	.byte	0xf
	.ascii "__min\0"
	.byte	0x35
	.byte	0x52
	.long	0xbc0
	.byte	0x2
	.byte	0x23
	.byte	0x0
	.byte	0xf
	.ascii "__max\0"
	.byte	0x35
	.byte	0x53
	.long	0xbc0
	.byte	0x2
	.byte	0x23
	.byte	0x4
	.byte	0xf
	.ascii "__map\0"
	.byte	0x35
	.byte	0x54
	.long	0xbc0
	.byte	0x2
	.byte	0x23
	.byte	0x8
	.byte	0xf
	.ascii "__types\0"
	.byte	0x35
	.byte	0x55
	.long	0x3220
	.byte	0x2
	.byte	0x23
	.byte	0xc
	.byte	0x0
	.byte	0x1f
	.byte	0x4
	.long	0xa6a
	.byte	0x7
	.ascii "_RuneEntry\0"
	.byte	0x35
	.byte	0x56
	.long	0x31d0
	.byte	0xe
	.ascii "$_34\0"
	.byte	0x8
	.byte	0x35
	.byte	0x58
	.long	0x326d
	.byte	0xf
	.ascii "__nranges\0"
	.byte	0x35
	.byte	0x59
	.long	0xa20
	.byte	0x2
	.byte	0x23
	.byte	0x0
	.byte	0xf
	.ascii "__ranges\0"
	.byte	0x35
	.byte	0x5a
	.long	0x326d
	.byte	0x2
	.byte	0x23
	.byte	0x4
	.byte	0x0
	.byte	0x1f
	.byte	0x4
	.long	0x3226
	.byte	0x7
	.ascii "_RuneRange\0"
	.byte	0x35
	.byte	0x5b
	.long	0x3238
	.byte	0xe
	.ascii "$_35\0"
	.byte	0x14
	.byte	0x35
	.byte	0x5d
	.long	0x32b5
	.byte	0xf
	.ascii "__name\0"
	.byte	0x35
	.byte	0x5e
	.long	0x32b5
	.byte	0x2
	.byte	0x23
	.byte	0x0
	.byte	0xf
	.ascii "__mask\0"
	.byte	0x35
	.byte	0x5f
	.long	0xa6a
	.byte	0x2
	.byte	0x23
	.byte	0x10
	.byte	0x0
	.byte	0x27
	.long	0xb17
	.long	0x32c5
	.byte	0x28
	.long	0xb14
	.byte	0xd
	.byte	0x0
	.byte	0x7
	.ascii "_RuneCharClass\0"
	.byte	0x35
	.byte	0x60
	.long	0x3285
	.byte	0x46
	.ascii "$_36\0"
	.word	0xc5c
	.byte	0x35
	.byte	0x62
	.long	0x3446
	.byte	0xf
	.ascii "__magic\0"
	.byte	0x35
	.byte	0x63
	.long	0xc2f
	.byte	0x2
	.byte	0x23
	.byte	0x0
	.byte	0xf
	.ascii "__encoding\0"
	.byte	0x35
	.byte	0x64
	.long	0x3446
	.byte	0x2
	.byte	0x23
	.byte	0x8
	.byte	0xf
	.ascii "__sgetrune\0"
	.byte	0x35
	.byte	0x66
	.long	0x3475
	.byte	0x2
	.byte	0x23
	.byte	0x28
	.byte	0xf
	.ascii "__sputrune\0"
	.byte	0x35
	.byte	0x67
	.long	0x349f
	.byte	0x2
	.byte	0x23
	.byte	0x2c
	.byte	0xf
	.ascii "__invalid_rune\0"
	.byte	0x35
	.byte	0x68
	.long	0xbc0
	.byte	0x2
	.byte	0x23
	.byte	0x30
	.byte	0xf
	.ascii "__runetype\0"
	.byte	0x35
	.byte	0x6a
	.long	0x34a5
	.byte	0x2
	.byte	0x23
	.byte	0x34
	.byte	0xf
	.ascii "__maplower\0"
	.byte	0x35
	.byte	0x6b
	.long	0x34b5
	.byte	0x3
	.byte	0x23
	.byte	0xb4,0x8
	.byte	0xf
	.ascii "__mapupper\0"
	.byte	0x35
	.byte	0x6c
	.long	0x34b5
	.byte	0x3
	.byte	0x23
	.byte	0xb4,0x10
	.byte	0xf
	.ascii "__runetype_ext\0"
	.byte	0x35
	.byte	0x73
	.long	0x3273
	.byte	0x3
	.byte	0x23
	.byte	0xb4,0x18
	.byte	0xf
	.ascii "__maplower_ext\0"
	.byte	0x35
	.byte	0x74
	.long	0x3273
	.byte	0x3
	.byte	0x23
	.byte	0xbc,0x18
	.byte	0xf
	.ascii "__mapupper_ext\0"
	.byte	0x35
	.byte	0x75
	.long	0x3273
	.byte	0x3
	.byte	0x23
	.byte	0xc4,0x18
	.byte	0xf
	.ascii "__variable\0"
	.byte	0x35
	.byte	0x77
	.long	0xc1d
	.byte	0x3
	.byte	0x23
	.byte	0xcc,0x18
	.byte	0xf
	.ascii "__variable_len\0"
	.byte	0x35
	.byte	0x78
	.long	0xa20
	.byte	0x3
	.byte	0x23
	.byte	0xd0,0x18
	.byte	0xf
	.ascii "__ncharclasses\0"
	.byte	0x35
	.byte	0x7d
	.long	0xa20
	.byte	0x3
	.byte	0x23
	.byte	0xd4,0x18
	.byte	0xf
	.ascii "__charclasses\0"
	.byte	0x35
	.byte	0x7e
	.long	0x34c5
	.byte	0x3
	.byte	0x23
	.byte	0xd8,0x18
	.byte	0x0
	.byte	0x27
	.long	0xb17
	.long	0x3456
	.byte	0x28
	.long	0xb14
	.byte	0x1f
	.byte	0x0
	.byte	0x2c
	.long	0xbc0
	.long	0x346f
	.byte	0x22
	.long	0x2b34
	.byte	0x22
	.long	0xb4c
	.byte	0x22
	.long	0x346f
	.byte	0x0
	.byte	0x1f
	.byte	0x4
	.long	0x2b34
	.byte	0x1f
	.byte	0x4
	.long	0x3456
	.byte	0x2c
	.long	0xa20
	.long	0x3499
	.byte	0x22
	.long	0xbc0
	.byte	0x22
	.long	0xde7
	.byte	0x22
	.long	0xb4c
	.byte	0x22
	.long	0x3499
	.byte	0x0
	.byte	0x1f
	.byte	0x4
	.long	0xde7
	.byte	0x1f
	.byte	0x4
	.long	0x347b
	.byte	0x27
	.long	0xa6a
	.long	0x34b5
	.byte	0x28
	.long	0xb14
	.byte	0xff
	.byte	0x0
	.byte	0x27
	.long	0xbc0
	.long	0x34c5
	.byte	0x28
	.long	0xb14
	.byte	0xff
	.byte	0x0
	.byte	0x1f
	.byte	0x4
	.long	0x32c5
	.byte	0x7
	.ascii "_RuneLocale\0"
	.byte	0x35
	.byte	0x7f
	.long	0x32db
	.byte	0x47
	.set L$set$653,LASF103-Lsection__debug_str
	.long L$set$653
	.byte	0x36
	.byte	0xe5
	.set L$set$654,LASF105-Lsection__debug_str
	.long L$set$654
	.long	0xa20
	.byte	0x1
	.long	0x34f8
	.byte	0x22
	.long	0xa20
	.byte	0x0
	.byte	0x47
	.set L$set$655,LASF104-Lsection__debug_str
	.long L$set$655
	.byte	0x36
	.byte	0xeb
	.set L$set$656,LASF106-Lsection__debug_str
	.long L$set$656
	.long	0xa20
	.byte	0x1
	.long	0x3512
	.byte	0x22
	.long	0xa20
	.byte	0x0
	.byte	0x47
	.set L$set$657,LASF107-Lsection__debug_str
	.long L$set$657
	.byte	0x36
	.byte	0xf7
	.set L$set$658,LASF108-Lsection__debug_str
	.long L$set$658
	.long	0xa20
	.byte	0x1
	.long	0x352c
	.byte	0x22
	.long	0xa20
	.byte	0x0
	.byte	0x47
	.set L$set$659,LASF109-Lsection__debug_str
	.long L$set$659
	.byte	0x36
	.byte	0xfe
	.set L$set$660,LASF110-Lsection__debug_str
	.long L$set$660
	.long	0xa20
	.byte	0x1
	.long	0x3546
	.byte	0x22
	.long	0xa20
	.byte	0x0
	.byte	0x3c
	.set L$set$661,LASF111-Lsection__debug_str
	.long L$set$661
	.byte	0x36
	.word	0x104
	.set L$set$662,LASF113-Lsection__debug_str
	.long L$set$662
	.long	0xa20
	.byte	0x1
	.long	0x3561
	.byte	0x22
	.long	0xa20
	.byte	0x0
	.byte	0x3c
	.set L$set$663,LASF114-Lsection__debug_str
	.long L$set$663
	.byte	0x36
	.word	0x10a
	.set L$set$664,LASF115-Lsection__debug_str
	.long L$set$664
	.long	0xa20
	.byte	0x1
	.long	0x357c
	.byte	0x22
	.long	0xa20
	.byte	0x0
	.byte	0x3c
	.set L$set$665,LASF116-Lsection__debug_str
	.long L$set$665
	.byte	0x36
	.word	0x110
	.set L$set$666,LASF117-Lsection__debug_str
	.long L$set$666
	.long	0xa20
	.byte	0x1
	.long	0x3597
	.byte	0x22
	.long	0xa20
	.byte	0x0
	.byte	0x3c
	.set L$set$667,LASF118-Lsection__debug_str
	.long L$set$667
	.byte	0x36
	.word	0x116
	.set L$set$668,LASF119-Lsection__debug_str
	.long L$set$668
	.long	0xa20
	.byte	0x1
	.long	0x35b2
	.byte	0x22
	.long	0xa20
	.byte	0x0
	.byte	0x3c
	.set L$set$669,LASF120-Lsection__debug_str
	.long L$set$669
	.byte	0x36
	.word	0x11c
	.set L$set$670,LASF121-Lsection__debug_str
	.long L$set$670
	.long	0xa20
	.byte	0x1
	.long	0x35cd
	.byte	0x22
	.long	0xa20
	.byte	0x0
	.byte	0x3c
	.set L$set$671,LASF122-Lsection__debug_str
	.long L$set$671
	.byte	0x36
	.word	0x122
	.set L$set$672,LASF123-Lsection__debug_str
	.long L$set$672
	.long	0xa20
	.byte	0x1
	.long	0x35e8
	.byte	0x22
	.long	0xa20
	.byte	0x0
	.byte	0x3c
	.set L$set$673,LASF124-Lsection__debug_str
	.long L$set$673
	.byte	0x36
	.word	0x129
	.set L$set$674,LASF125-Lsection__debug_str
	.long L$set$674
	.long	0xa20
	.byte	0x1
	.long	0x3603
	.byte	0x22
	.long	0xa20
	.byte	0x0
	.byte	0x3c
	.set L$set$675,LASF126-Lsection__debug_str
	.long L$set$675
	.byte	0x36
	.word	0x135
	.set L$set$676,LASF127-Lsection__debug_str
	.long L$set$676
	.long	0xa20
	.byte	0x1
	.long	0x361e
	.byte	0x22
	.long	0xa20
	.byte	0x0
	.byte	0x3c
	.set L$set$677,LASF128-Lsection__debug_str
	.long L$set$677
	.byte	0x36
	.word	0x13b
	.set L$set$678,LASF129-Lsection__debug_str
	.long L$set$678
	.long	0xa20
	.byte	0x1
	.long	0x3639
	.byte	0x22
	.long	0xa20
	.byte	0x0
	.byte	0x29
	.byte	0x4
	.byte	0x7
	.byte	0x29
	.byte	0x4
	.byte	0x5
	.byte	0x48
	.byte	0x1
	.set L$set$679,LASF254-Lsection__debug_str
	.long L$set$679
	.byte	0x18
	.byte	0x7c
	.set L$set$680,LASF452-Lsection__debug_str
	.long L$set$680
	.long	0xcea
	.byte	0x1
	.byte	0x40
	.byte	0x1
	.set L$set$681,LASF130-Lsection__debug_str
	.long L$set$681
	.byte	0x18
	.byte	0x7e
	.long	0x98b
	.byte	0x1
	.long	0x366c
	.byte	0x22
	.long	0xd07
	.byte	0x22
	.long	0xd07
	.byte	0x0
	.byte	0x1c
	.byte	0x1
	.set L$set$682,LASF131-Lsection__debug_str
	.long L$set$682
	.byte	0x18
	.byte	0x82
	.set L$set$683,LASF132-Lsection__debug_str
	.long L$set$683
	.long	0xd07
	.byte	0x1
	.long	0x3687
	.byte	0x22
	.long	0x3687
	.byte	0x0
	.byte	0x1f
	.byte	0x4
	.long	0xd15
	.byte	0x40
	.byte	0x1
	.set L$set$684,LASF133-Lsection__debug_str
	.long L$set$684
	.byte	0x18
	.byte	0x85
	.long	0xd07
	.byte	0x1
	.long	0x36a4
	.byte	0x22
	.long	0x36a4
	.byte	0x0
	.byte	0x1f
	.byte	0x4
	.long	0xd07
	.byte	0x40
	.byte	0x1
	.set L$set$685,LASF134-Lsection__debug_str
	.long L$set$685
	.byte	0x18
	.byte	0x7b
	.long	0xde7
	.byte	0x1
	.long	0x36c1
	.byte	0x22
	.long	0x36c1
	.byte	0x0
	.byte	0x1f
	.byte	0x4
	.long	0x36c7
	.byte	0x20
	.long	0xd15
	.byte	0x40
	.byte	0x1
	.set L$set$686,LASF135-Lsection__debug_str
	.long L$set$686
	.byte	0x18
	.byte	0x7d
	.long	0xde7
	.byte	0x1
	.long	0x36e3
	.byte	0x22
	.long	0x36e3
	.byte	0x0
	.byte	0x1f
	.byte	0x4
	.long	0x36e9
	.byte	0x20
	.long	0xd07
	.byte	0x40
	.byte	0x1
	.set L$set$687,LASF136-Lsection__debug_str
	.long L$set$687
	.byte	0x18
	.byte	0x80
	.long	0x3687
	.byte	0x1
	.long	0x3705
	.byte	0x22
	.long	0x36e3
	.byte	0x0
	.byte	0x40
	.byte	0x1
	.set L$set$688,LASF137-Lsection__debug_str
	.long L$set$688
	.byte	0x18
	.byte	0x81
	.long	0x3687
	.byte	0x1
	.long	0x371c
	.byte	0x22
	.long	0x36e3
	.byte	0x0
	.byte	0x1c
	.byte	0x1
	.set L$set$689,LASF138-Lsection__debug_str
	.long L$set$689
	.byte	0x18
	.byte	0x83
	.set L$set$690,LASF139-Lsection__debug_str
	.long L$set$690
	.long	0xcf9
	.byte	0x1
	.long	0x3746
	.byte	0x22
	.long	0xde7
	.byte	0x22
	.long	0xcf9
	.byte	0x22
	.long	0x2b34
	.byte	0x22
	.long	0x36c1
	.byte	0x0
	.byte	0x7
	.ascii "mbstate_t\0"
	.byte	0x37
	.byte	0x53
	.long	0xb32
	.byte	0x7
	.ascii "wctype_t\0"
	.byte	0x38
	.byte	0x34
	.long	0xcd1
	.byte	0x29
	.byte	0x4
	.byte	0x5
	.byte	0x40
	.byte	0x1
	.set L$set$691,LASF140-Lsection__debug_str
	.long L$set$691
	.byte	0x37
	.byte	0x75
	.long	0x31c2
	.byte	0x1
	.long	0x3781
	.byte	0x22
	.long	0xa20
	.byte	0x0
	.byte	0x40
	.byte	0x1
	.set L$set$692,LASF141-Lsection__debug_str
	.long L$set$692
	.byte	0x37
	.byte	0x76
	.long	0x31c2
	.byte	0x1
	.long	0x3798
	.byte	0x22
	.long	0x2e54
	.byte	0x0
	.byte	0x40
	.byte	0x1
	.set L$set$693,LASF142-Lsection__debug_str
	.long L$set$693
	.byte	0x37
	.byte	0x77
	.long	0x37b9
	.byte	0x1
	.long	0x37b9
	.byte	0x22
	.long	0x37b9
	.byte	0x22
	.long	0xa20
	.byte	0x22
	.long	0x2e54
	.byte	0x0
	.byte	0x1f
	.byte	0x4
	.long	0x37bf
	.byte	0x1e
	.byte	0x4
	.byte	0x5
	.ascii "wchar_t\0"
	.byte	0x40
	.byte	0x1
	.set L$set$694,LASF143-Lsection__debug_str
	.long L$set$694
	.byte	0x37
	.byte	0x78
	.long	0x31c2
	.byte	0x1
	.long	0x37e6
	.byte	0x22
	.long	0x37bf
	.byte	0x22
	.long	0x2e54
	.byte	0x0
	.byte	0x40
	.byte	0x1
	.set L$set$695,LASF144-Lsection__debug_str
	.long L$set$695
	.byte	0x37
	.byte	0x79
	.long	0xa20
	.byte	0x1
	.long	0x3802
	.byte	0x22
	.long	0x3802
	.byte	0x22
	.long	0x2e54
	.byte	0x0
	.byte	0x1f
	.byte	0x4
	.long	0x3808
	.byte	0x20
	.long	0x37bf
	.byte	0x40
	.byte	0x1
	.set L$set$696,LASF145-Lsection__debug_str
	.long L$set$696
	.byte	0x37
	.byte	0x7a
	.long	0xa20
	.byte	0x1
	.long	0x3829
	.byte	0x22
	.long	0x2e54
	.byte	0x22
	.long	0xa20
	.byte	0x0
	.byte	0x40
	.byte	0x1
	.set L$set$697,LASF146-Lsection__debug_str
	.long L$set$697
	.byte	0x37
	.byte	0x7b
	.long	0xa20
	.byte	0x1
	.long	0x3846
	.byte	0x22
	.long	0x2e54
	.byte	0x22
	.long	0x3802
	.byte	0x2d
	.byte	0x0
	.byte	0x40
	.byte	0x1
	.set L$set$698,LASF147-Lsection__debug_str
	.long L$set$698
	.byte	0x37
	.byte	0x7c
	.long	0xa20
	.byte	0x1
	.long	0x3863
	.byte	0x22
	.long	0x2e54
	.byte	0x22
	.long	0x3802
	.byte	0x2d
	.byte	0x0
	.byte	0x40
	.byte	0x1
	.set L$set$699,LASF148-Lsection__debug_str
	.long L$set$699
	.byte	0x37
	.byte	0x7d
	.long	0x31c2
	.byte	0x1
	.long	0x387a
	.byte	0x22
	.long	0x2e54
	.byte	0x0
	.byte	0x41
	.byte	0x1
	.set L$set$700,LASF149-Lsection__debug_str
	.long L$set$700
	.byte	0x37
	.byte	0x7e
	.long	0x31c2
	.byte	0x1
	.byte	0x40
	.byte	0x1
	.set L$set$701,LASF150-Lsection__debug_str
	.long L$set$701
	.byte	0x37
	.byte	0x7f
	.long	0xcf9
	.byte	0x1
	.long	0x38a8
	.byte	0x22
	.long	0x2b34
	.byte	0x22
	.long	0xcf9
	.byte	0x22
	.long	0x38a8
	.byte	0x0
	.byte	0x1f
	.byte	0x4
	.long	0x3746
	.byte	0x40
	.byte	0x1
	.set L$set$702,LASF151-Lsection__debug_str
	.long L$set$702
	.byte	0x37
	.byte	0x81
	.long	0xcf9
	.byte	0x1
	.long	0x38d4
	.byte	0x22
	.long	0x37b9
	.byte	0x22
	.long	0x2b34
	.byte	0x22
	.long	0xcf9
	.byte	0x22
	.long	0x38a8
	.byte	0x0
	.byte	0x40
	.byte	0x1
	.set L$set$703,LASF152-Lsection__debug_str
	.long L$set$703
	.byte	0x37
	.byte	0x82
	.long	0xa20
	.byte	0x1
	.long	0x38eb
	.byte	0x22
	.long	0x38eb
	.byte	0x0
	.byte	0x1f
	.byte	0x4
	.long	0x38f1
	.byte	0x20
	.long	0x3746
	.byte	0x40
	.byte	0x1
	.set L$set$704,LASF153-Lsection__debug_str
	.long L$set$704
	.byte	0x37
	.byte	0x84
	.long	0xcf9
	.byte	0x1
	.long	0x391c
	.byte	0x22
	.long	0x37b9
	.byte	0x22
	.long	0x346f
	.byte	0x22
	.long	0xcf9
	.byte	0x22
	.long	0x38a8
	.byte	0x0
	.byte	0x40
	.byte	0x1
	.set L$set$705,LASF154-Lsection__debug_str
	.long L$set$705
	.byte	0x37
	.byte	0x85
	.long	0x31c2
	.byte	0x1
	.long	0x3938
	.byte	0x22
	.long	0x37bf
	.byte	0x22
	.long	0x2e54
	.byte	0x0
	.byte	0x40
	.byte	0x1
	.set L$set$706,LASF155-Lsection__debug_str
	.long L$set$706
	.byte	0x37
	.byte	0x86
	.long	0x31c2
	.byte	0x1
	.long	0x394f
	.byte	0x22
	.long	0x37bf
	.byte	0x0
	.byte	0x40
	.byte	0x1
	.set L$set$707,LASF156-Lsection__debug_str
	.long L$set$707
	.byte	0x37
	.byte	0x88
	.long	0xa20
	.byte	0x1
	.long	0x3971
	.byte	0x22
	.long	0x37b9
	.byte	0x22
	.long	0xcf9
	.byte	0x22
	.long	0x3802
	.byte	0x2d
	.byte	0x0
	.byte	0x40
	.byte	0x1
	.set L$set$708,LASF157-Lsection__debug_str
	.long L$set$708
	.byte	0x37
	.byte	0x89
	.long	0xa20
	.byte	0x1
	.long	0x398e
	.byte	0x22
	.long	0x3802
	.byte	0x22
	.long	0x3802
	.byte	0x2d
	.byte	0x0
	.byte	0x40
	.byte	0x1
	.set L$set$709,LASF158-Lsection__debug_str
	.long L$set$709
	.byte	0x37
	.byte	0x8a
	.long	0x31c2
	.byte	0x1
	.long	0x39aa
	.byte	0x22
	.long	0x31c2
	.byte	0x22
	.long	0x2e54
	.byte	0x0
	.byte	0x40
	.byte	0x1
	.set L$set$710,LASF159-Lsection__debug_str
	.long L$set$710
	.byte	0x37
	.byte	0x8c
	.long	0xa20
	.byte	0x1
	.long	0x39cb
	.byte	0x22
	.long	0x2e54
	.byte	0x22
	.long	0x3802
	.byte	0x22
	.long	0xb78
	.byte	0x0
	.byte	0x40
	.byte	0x1
	.set L$set$711,LASF160-Lsection__debug_str
	.long L$set$711
	.byte	0x37
	.byte	0xb5
	.long	0xa20
	.byte	0x1
	.long	0x39ec
	.byte	0x22
	.long	0x2e54
	.byte	0x22
	.long	0x3802
	.byte	0x22
	.long	0xb78
	.byte	0x0
	.byte	0x40
	.byte	0x1
	.set L$set$712,LASF161-Lsection__debug_str
	.long L$set$712
	.byte	0x37
	.byte	0x8e
	.long	0xa20
	.byte	0x1
	.long	0x3a12
	.byte	0x22
	.long	0x37b9
	.byte	0x22
	.long	0xcf9
	.byte	0x22
	.long	0x3802
	.byte	0x22
	.long	0xb78
	.byte	0x0
	.byte	0x40
	.byte	0x1
	.set L$set$713,LASF162-Lsection__debug_str
	.long L$set$713
	.byte	0x37
	.byte	0xb7
	.long	0xa20
	.byte	0x1
	.long	0x3a33
	.byte	0x22
	.long	0x3802
	.byte	0x22
	.long	0x3802
	.byte	0x22
	.long	0xb78
	.byte	0x0
	.byte	0x40
	.byte	0x1
	.set L$set$714,LASF163-Lsection__debug_str
	.long L$set$714
	.byte	0x37
	.byte	0x8f
	.long	0xa20
	.byte	0x1
	.long	0x3a4f
	.byte	0x22
	.long	0x3802
	.byte	0x22
	.long	0xb78
	.byte	0x0
	.byte	0x40
	.byte	0x1
	.set L$set$715,LASF164-Lsection__debug_str
	.long L$set$715
	.byte	0x37
	.byte	0xb8
	.long	0xa20
	.byte	0x1
	.long	0x3a6b
	.byte	0x22
	.long	0x3802
	.byte	0x22
	.long	0xb78
	.byte	0x0
	.byte	0x40
	.byte	0x1
	.set L$set$716,LASF165-Lsection__debug_str
	.long L$set$716
	.byte	0x37
	.byte	0x90
	.long	0xcf9
	.byte	0x1
	.long	0x3a8c
	.byte	0x22
	.long	0xde7
	.byte	0x22
	.long	0x37bf
	.byte	0x22
	.long	0x38a8
	.byte	0x0
	.byte	0x40
	.byte	0x1
	.set L$set$717,LASF166-Lsection__debug_str
	.long L$set$717
	.byte	0x37
	.byte	0x91
	.long	0x37b9
	.byte	0x1
	.long	0x3aa8
	.byte	0x22
	.long	0x37b9
	.byte	0x22
	.long	0x3802
	.byte	0x0
	.byte	0x40
	.byte	0x1
	.set L$set$718,LASF167-Lsection__debug_str
	.long L$set$718
	.byte	0x37
	.byte	0x93
	.long	0xa20
	.byte	0x1
	.long	0x3ac4
	.byte	0x22
	.long	0x3802
	.byte	0x22
	.long	0x3802
	.byte	0x0
	.byte	0x40
	.byte	0x1
	.set L$set$719,LASF168-Lsection__debug_str
	.long L$set$719
	.byte	0x37
	.byte	0x94
	.long	0xa20
	.byte	0x1
	.long	0x3ae0
	.byte	0x22
	.long	0x3802
	.byte	0x22
	.long	0x3802
	.byte	0x0
	.byte	0x40
	.byte	0x1
	.set L$set$720,LASF169-Lsection__debug_str
	.long L$set$720
	.byte	0x37
	.byte	0x95
	.long	0x37b9
	.byte	0x1
	.long	0x3afc
	.byte	0x22
	.long	0x37b9
	.byte	0x22
	.long	0x3802
	.byte	0x0
	.byte	0x40
	.byte	0x1
	.set L$set$721,LASF170-Lsection__debug_str
	.long L$set$721
	.byte	0x37
	.byte	0x96
	.long	0xcf9
	.byte	0x1
	.long	0x3b18
	.byte	0x22
	.long	0x3802
	.byte	0x22
	.long	0x3802
	.byte	0x0
	.byte	0x1c
	.byte	0x1
	.set L$set$722,LASF171-Lsection__debug_str
	.long L$set$722
	.byte	0x37
	.byte	0x98
	.set L$set$723,LASF172-Lsection__debug_str
	.long L$set$723
	.long	0xcf9
	.byte	0x1
	.long	0x3b42
	.byte	0x22
	.long	0x37b9
	.byte	0x22
	.long	0xcf9
	.byte	0x22
	.long	0x3802
	.byte	0x22
	.long	0x36c1
	.byte	0x0
	.byte	0x40
	.byte	0x1
	.set L$set$724,LASF173-Lsection__debug_str
	.long L$set$724
	.byte	0x37
	.byte	0x99
	.long	0xcf9
	.byte	0x1
	.long	0x3b59
	.byte	0x22
	.long	0x3802
	.byte	0x0
	.byte	0x40
	.byte	0x1
	.set L$set$725,LASF174-Lsection__debug_str
	.long L$set$725
	.byte	0x37
	.byte	0x9a
	.long	0x37b9
	.byte	0x1
	.long	0x3b7a
	.byte	0x22
	.long	0x37b9
	.byte	0x22
	.long	0x3802
	.byte	0x22
	.long	0xcf9
	.byte	0x0
	.byte	0x40
	.byte	0x1
	.set L$set$726,LASF175-Lsection__debug_str
	.long L$set$726
	.byte	0x37
	.byte	0x9b
	.long	0xa20
	.byte	0x1
	.long	0x3b9b
	.byte	0x22
	.long	0x3802
	.byte	0x22
	.long	0x3802
	.byte	0x22
	.long	0xcf9
	.byte	0x0
	.byte	0x40
	.byte	0x1
	.set L$set$727,LASF176-Lsection__debug_str
	.long L$set$727
	.byte	0x37
	.byte	0x9c
	.long	0x37b9
	.byte	0x1
	.long	0x3bbc
	.byte	0x22
	.long	0x37b9
	.byte	0x22
	.long	0x3802
	.byte	0x22
	.long	0xcf9
	.byte	0x0
	.byte	0x40
	.byte	0x1
	.set L$set$728,LASF177-Lsection__debug_str
	.long L$set$728
	.byte	0x37
	.byte	0xa0
	.long	0xcf9
	.byte	0x1
	.long	0x3be2
	.byte	0x22
	.long	0xde7
	.byte	0x22
	.long	0x3be2
	.byte	0x22
	.long	0xcf9
	.byte	0x22
	.long	0x38a8
	.byte	0x0
	.byte	0x1f
	.byte	0x4
	.long	0x3802
	.byte	0x40
	.byte	0x1
	.set L$set$729,LASF178-Lsection__debug_str
	.long L$set$729
	.byte	0x37
	.byte	0xa1
	.long	0xcf9
	.byte	0x1
	.long	0x3c04
	.byte	0x22
	.long	0x3802
	.byte	0x22
	.long	0x3802
	.byte	0x0
	.byte	0x40
	.byte	0x1
	.set L$set$730,LASF179-Lsection__debug_str
	.long L$set$730
	.byte	0x37
	.byte	0xa5
	.long	0x98b
	.byte	0x1
	.long	0x3c20
	.byte	0x22
	.long	0x3802
	.byte	0x22
	.long	0x3c20
	.byte	0x0
	.byte	0x1f
	.byte	0x4
	.long	0x37b9
	.byte	0x40
	.byte	0x1
	.set L$set$731,LASF180-Lsection__debug_str
	.long L$set$731
	.byte	0x37
	.byte	0xb9
	.long	0x99b
	.byte	0x1
	.long	0x3c42
	.byte	0x22
	.long	0x3802
	.byte	0x22
	.long	0x3c20
	.byte	0x0
	.byte	0x40
	.byte	0x1
	.set L$set$732,LASF181-Lsection__debug_str
	.long L$set$732
	.byte	0x37
	.byte	0xa7
	.long	0x37b9
	.byte	0x1
	.long	0x3c63
	.byte	0x22
	.long	0x37b9
	.byte	0x22
	.long	0x3802
	.byte	0x22
	.long	0x3c20
	.byte	0x0
	.byte	0x40
	.byte	0x1
	.set L$set$733,LASF182-Lsection__debug_str
	.long L$set$733
	.byte	0x37
	.byte	0xa8
	.long	0xac8
	.byte	0x1
	.long	0x3c84
	.byte	0x22
	.long	0x3802
	.byte	0x22
	.long	0x3c20
	.byte	0x22
	.long	0xa20
	.byte	0x0
	.byte	0x40
	.byte	0x1
	.set L$set$734,LASF183-Lsection__debug_str
	.long L$set$734
	.byte	0x37
	.byte	0xaa
	.long	0xb63
	.byte	0x1
	.long	0x3ca5
	.byte	0x22
	.long	0x3802
	.byte	0x22
	.long	0x3c20
	.byte	0x22
	.long	0xa20
	.byte	0x0
	.byte	0x40
	.byte	0x1
	.set L$set$735,LASF184-Lsection__debug_str
	.long L$set$735
	.byte	0x37
	.byte	0xa3
	.long	0xcf9
	.byte	0x1
	.long	0x3cc6
	.byte	0x22
	.long	0x37b9
	.byte	0x22
	.long	0x3802
	.byte	0x22
	.long	0xcf9
	.byte	0x0
	.byte	0x40
	.byte	0x1
	.set L$set$736,LASF185-Lsection__debug_str
	.long L$set$736
	.byte	0x37
	.byte	0xa4
	.long	0xa20
	.byte	0x1
	.long	0x3cdd
	.byte	0x22
	.long	0x31c2
	.byte	0x0
	.byte	0x40
	.byte	0x1
	.set L$set$737,LASF186-Lsection__debug_str
	.long L$set$737
	.byte	0x37
	.byte	0xac
	.long	0xa20
	.byte	0x1
	.long	0x3cfe
	.byte	0x22
	.long	0x3802
	.byte	0x22
	.long	0x3802
	.byte	0x22
	.long	0xcf9
	.byte	0x0
	.byte	0x40
	.byte	0x1
	.set L$set$738,LASF187-Lsection__debug_str
	.long L$set$738
	.byte	0x37
	.byte	0xad
	.long	0x37b9
	.byte	0x1
	.long	0x3d1f
	.byte	0x22
	.long	0x37b9
	.byte	0x22
	.long	0x3802
	.byte	0x22
	.long	0xcf9
	.byte	0x0
	.byte	0x40
	.byte	0x1
	.set L$set$739,LASF188-Lsection__debug_str
	.long L$set$739
	.byte	0x37
	.byte	0xae
	.long	0x37b9
	.byte	0x1
	.long	0x3d40
	.byte	0x22
	.long	0x37b9
	.byte	0x22
	.long	0x3802
	.byte	0x22
	.long	0xcf9
	.byte	0x0
	.byte	0x40
	.byte	0x1
	.set L$set$740,LASF189-Lsection__debug_str
	.long L$set$740
	.byte	0x37
	.byte	0xaf
	.long	0x37b9
	.byte	0x1
	.long	0x3d61
	.byte	0x22
	.long	0x37b9
	.byte	0x22
	.long	0x37bf
	.byte	0x22
	.long	0xcf9
	.byte	0x0
	.byte	0x40
	.byte	0x1
	.set L$set$741,LASF190-Lsection__debug_str
	.long L$set$741
	.byte	0x37
	.byte	0xb0
	.long	0xa20
	.byte	0x1
	.long	0x3d79
	.byte	0x22
	.long	0x3802
	.byte	0x2d
	.byte	0x0
	.byte	0x40
	.byte	0x1
	.set L$set$742,LASF191-Lsection__debug_str
	.long L$set$742
	.byte	0x37
	.byte	0xb1
	.long	0xa20
	.byte	0x1
	.long	0x3d91
	.byte	0x22
	.long	0x3802
	.byte	0x2d
	.byte	0x0
	.byte	0x40
	.byte	0x1
	.set L$set$743,LASF192-Lsection__debug_str
	.long L$set$743
	.byte	0x37
	.byte	0x92
	.long	0x37b9
	.byte	0x1
	.long	0x3dad
	.byte	0x22
	.long	0x3802
	.byte	0x22
	.long	0x37bf
	.byte	0x0
	.byte	0x40
	.byte	0x1
	.set L$set$744,LASF193-Lsection__debug_str
	.long L$set$744
	.byte	0x37
	.byte	0x9d
	.long	0x37b9
	.byte	0x1
	.long	0x3dc9
	.byte	0x22
	.long	0x3802
	.byte	0x22
	.long	0x3802
	.byte	0x0
	.byte	0x40
	.byte	0x1
	.set L$set$745,LASF194-Lsection__debug_str
	.long L$set$745
	.byte	0x37
	.byte	0x9e
	.long	0x37b9
	.byte	0x1
	.long	0x3de5
	.byte	0x22
	.long	0x3802
	.byte	0x22
	.long	0x37bf
	.byte	0x0
	.byte	0x40
	.byte	0x1
	.set L$set$746,LASF195-Lsection__debug_str
	.long L$set$746
	.byte	0x37
	.byte	0xa2
	.long	0x37b9
	.byte	0x1
	.long	0x3e01
	.byte	0x22
	.long	0x3802
	.byte	0x22
	.long	0x3802
	.byte	0x0
	.byte	0x40
	.byte	0x1
	.set L$set$747,LASF196-Lsection__debug_str
	.long L$set$747
	.byte	0x37
	.byte	0xab
	.long	0x37b9
	.byte	0x1
	.long	0x3e22
	.byte	0x22
	.long	0x3802
	.byte	0x22
	.long	0x37bf
	.byte	0x22
	.long	0xcf9
	.byte	0x0
	.byte	0x40
	.byte	0x1
	.set L$set$748,LASF197-Lsection__debug_str
	.long L$set$748
	.byte	0x37
	.byte	0xbb
	.long	0x3e3e
	.byte	0x1
	.long	0x3e3e
	.byte	0x22
	.long	0x3802
	.byte	0x22
	.long	0x3c20
	.byte	0x0
	.byte	0x1e
	.byte	0x10
	.byte	0x4
	.ascii "long double\0"
	.byte	0x40
	.byte	0x1
	.set L$set$749,LASF198-Lsection__debug_str
	.long L$set$749
	.byte	0x37
	.byte	0xbe
	.long	0xa9d
	.byte	0x1
	.long	0x3e6e
	.byte	0x22
	.long	0x3802
	.byte	0x22
	.long	0x3c20
	.byte	0x22
	.long	0xa20
	.byte	0x0
	.byte	0x40
	.byte	0x1
	.set L$set$750,LASF199-Lsection__debug_str
	.long L$set$750
	.byte	0x37
	.byte	0xc0
	.long	0xaae
	.byte	0x1
	.long	0x3e8f
	.byte	0x22
	.long	0x3802
	.byte	0x22
	.long	0x3c20
	.byte	0x22
	.long	0xa20
	.byte	0x0
	.byte	0xe
	.ascii "$_40\0"
	.byte	0x8
	.byte	0x39
	.byte	0x61
	.long	0x3eba
	.byte	0xf
	.ascii "quot\0"
	.byte	0x39
	.byte	0x62
	.long	0xa20
	.byte	0x2
	.byte	0x23
	.byte	0x0
	.byte	0xf
	.ascii "rem\0"
	.byte	0x39
	.byte	0x63
	.long	0xa20
	.byte	0x2
	.byte	0x23
	.byte	0x4
	.byte	0x0
	.byte	0x7
	.ascii "div_t\0"
	.byte	0x39
	.byte	0x64
	.long	0x3e8f
	.byte	0xe
	.ascii "$_41\0"
	.byte	0x8
	.byte	0x39
	.byte	0x66
	.long	0x3ef2
	.byte	0xf
	.ascii "quot\0"
	.byte	0x39
	.byte	0x67
	.long	0xac8
	.byte	0x2
	.byte	0x23
	.byte	0x0
	.byte	0xf
	.ascii "rem\0"
	.byte	0x39
	.byte	0x68
	.long	0xac8
	.byte	0x2
	.byte	0x23
	.byte	0x4
	.byte	0x0
	.byte	0x7
	.ascii "ldiv_t\0"
	.byte	0x39
	.byte	0x69
	.long	0x3ec7
	.byte	0xe
	.ascii "$_42\0"
	.byte	0x10
	.byte	0x39
	.byte	0x6c
	.long	0x3f2b
	.byte	0xf
	.ascii "quot\0"
	.byte	0x39
	.byte	0x6d
	.long	0xa9d
	.byte	0x2
	.byte	0x23
	.byte	0x0
	.byte	0xf
	.ascii "rem\0"
	.byte	0x39
	.byte	0x6e
	.long	0xa9d
	.byte	0x2
	.byte	0x23
	.byte	0x8
	.byte	0x0
	.byte	0x7
	.ascii "lldiv_t\0"
	.byte	0x39
	.byte	0x6f
	.long	0x3f00
	.byte	0x40
	.byte	0x1
	.set L$set$751,LASF200-Lsection__debug_str
	.long L$set$751
	.byte	0x39
	.byte	0x93
	.long	0xa20
	.byte	0x1
	.long	0x3f51
	.byte	0x22
	.long	0x3f51
	.byte	0x0
	.byte	0x1f
	.byte	0x4
	.long	0x3f57
	.byte	0x49
	.byte	0x40
	.byte	0x1
	.set L$set$752,LASF201-Lsection__debug_str
	.long L$set$752
	.byte	0x39
	.byte	0x94
	.long	0x98b
	.byte	0x1
	.long	0x3f6f
	.byte	0x22
	.long	0x2b34
	.byte	0x0
	.byte	0x40
	.byte	0x1
	.set L$set$753,LASF202-Lsection__debug_str
	.long L$set$753
	.byte	0x39
	.byte	0x95
	.long	0xa20
	.byte	0x1
	.long	0x3f86
	.byte	0x22
	.long	0x2b34
	.byte	0x0
	.byte	0x40
	.byte	0x1
	.set L$set$754,LASF203-Lsection__debug_str
	.long L$set$754
	.byte	0x39
	.byte	0x96
	.long	0xac8
	.byte	0x1
	.long	0x3f9d
	.byte	0x22
	.long	0x2b34
	.byte	0x0
	.byte	0x40
	.byte	0x1
	.set L$set$755,LASF204-Lsection__debug_str
	.long L$set$755
	.byte	0x39
	.byte	0x9c
	.long	0xc1d
	.byte	0x1
	.long	0x3fc8
	.byte	0x22
	.long	0x2be7
	.byte	0x22
	.long	0x2be7
	.byte	0x22
	.long	0xcf9
	.byte	0x22
	.long	0xcf9
	.byte	0x22
	.long	0x3fc8
	.byte	0x0
	.byte	0x1f
	.byte	0x4
	.long	0x3fce
	.byte	0x2c
	.long	0xa20
	.long	0x3fe2
	.byte	0x22
	.long	0x2be7
	.byte	0x22
	.long	0x2be7
	.byte	0x0
	.byte	0x40
	.byte	0x1
	.set L$set$756,LASF53-Lsection__debug_str
	.long L$set$756
	.byte	0x39
	.byte	0x9e
	.long	0x3eba
	.byte	0x1
	.long	0x3ffe
	.byte	0x22
	.long	0xa20
	.byte	0x22
	.long	0xa20
	.byte	0x0
	.byte	0x6
	.byte	0x1
	.set L$set$757,LASF205-Lsection__debug_str
	.long L$set$757
	.byte	0x39
	.byte	0xa0
	.byte	0x1
	.long	0x4011
	.byte	0x22
	.long	0xc1d
	.byte	0x0
	.byte	0x40
	.byte	0x1
	.set L$set$758,LASF206-Lsection__debug_str
	.long L$set$758
	.byte	0x39
	.byte	0xa1
	.long	0xde7
	.byte	0x1
	.long	0x4028
	.byte	0x22
	.long	0x2b34
	.byte	0x0
	.byte	0x40
	.byte	0x1
	.set L$set$759,LASF207-Lsection__debug_str
	.long L$set$759
	.byte	0x39
	.byte	0xa3
	.long	0x3ef2
	.byte	0x1
	.long	0x4044
	.byte	0x22
	.long	0xac8
	.byte	0x22
	.long	0xac8
	.byte	0x0
	.byte	0x40
	.byte	0x1
	.set L$set$760,LASF208-Lsection__debug_str
	.long L$set$760
	.byte	0x39
	.byte	0xaa
	.long	0xa20
	.byte	0x1
	.long	0x4060
	.byte	0x22
	.long	0x2b34
	.byte	0x22
	.long	0xcf9
	.byte	0x0
	.byte	0x40
	.byte	0x1
	.set L$set$761,LASF209-Lsection__debug_str
	.long L$set$761
	.byte	0x39
	.byte	0xab
	.long	0xcf9
	.byte	0x1
	.long	0x4081
	.byte	0x22
	.long	0x37b9
	.byte	0x22
	.long	0x2b34
	.byte	0x22
	.long	0xcf9
	.byte	0x0
	.byte	0x40
	.byte	0x1
	.set L$set$762,LASF210-Lsection__debug_str
	.long L$set$762
	.byte	0x39
	.byte	0xac
	.long	0xa20
	.byte	0x1
	.long	0x40a2
	.byte	0x22
	.long	0x37b9
	.byte	0x22
	.long	0x2b34
	.byte	0x22
	.long	0xcf9
	.byte	0x0
	.byte	0x6
	.byte	0x1
	.set L$set$763,LASF211-Lsection__debug_str
	.long L$set$763
	.byte	0x39
	.byte	0xaf
	.byte	0x1
	.long	0x40c4
	.byte	0x22
	.long	0xc1d
	.byte	0x22
	.long	0xcf9
	.byte	0x22
	.long	0xcf9
	.byte	0x22
	.long	0x3fc8
	.byte	0x0
	.byte	0x41
	.byte	0x1
	.set L$set$764,LASF212-Lsection__debug_str
	.long L$set$764
	.byte	0x39
	.byte	0xb0
	.long	0xa20
	.byte	0x1
	.byte	0x40
	.byte	0x1
	.set L$set$765,LASF213-Lsection__debug_str
	.long L$set$765
	.byte	0x39
	.byte	0xb1
	.long	0xc1d
	.byte	0x1
	.long	0x40ed
	.byte	0x22
	.long	0xc1d
	.byte	0x22
	.long	0xcf9
	.byte	0x0
	.byte	0x6
	.byte	0x1
	.set L$set$766,LASF214-Lsection__debug_str
	.long L$set$766
	.byte	0x39
	.byte	0xb2
	.byte	0x1
	.long	0x4100
	.byte	0x22
	.long	0xa7c
	.byte	0x0
	.byte	0x1c
	.byte	0x1
	.set L$set$767,LASF215-Lsection__debug_str
	.long L$set$767
	.byte	0x39
	.byte	0xb3
	.set L$set$768,LASF216-Lsection__debug_str
	.long L$set$768
	.long	0x98b
	.byte	0x1
	.long	0x4120
	.byte	0x22
	.long	0x2b34
	.byte	0x22
	.long	0x3499
	.byte	0x0
	.byte	0x40
	.byte	0x1
	.set L$set$769,LASF217-Lsection__debug_str
	.long L$set$769
	.byte	0x39
	.byte	0xb5
	.long	0xac8
	.byte	0x1
	.long	0x4141
	.byte	0x22
	.long	0x2b34
	.byte	0x22
	.long	0x3499
	.byte	0x22
	.long	0xa20
	.byte	0x0
	.byte	0x40
	.byte	0x1
	.set L$set$770,LASF218-Lsection__debug_str
	.long L$set$770
	.byte	0x39
	.byte	0xbd
	.long	0xb63
	.byte	0x1
	.long	0x4162
	.byte	0x22
	.long	0x2b34
	.byte	0x22
	.long	0x3499
	.byte	0x22
	.long	0xa20
	.byte	0x0
	.byte	0x1c
	.byte	0x1
	.set L$set$771,LASF219-Lsection__debug_str
	.long L$set$771
	.byte	0x39
	.byte	0xc2
	.set L$set$772,LASF220-Lsection__debug_str
	.long L$set$772
	.long	0xa20
	.byte	0x1
	.long	0x417d
	.byte	0x22
	.long	0x2b34
	.byte	0x0
	.byte	0x40
	.byte	0x1
	.set L$set$773,LASF221-Lsection__debug_str
	.long L$set$773
	.byte	0x39
	.byte	0xc3
	.long	0xcf9
	.byte	0x1
	.long	0x419e
	.byte	0x22
	.long	0xde7
	.byte	0x22
	.long	0x3802
	.byte	0x22
	.long	0xcf9
	.byte	0x0
	.byte	0x40
	.byte	0x1
	.set L$set$774,LASF222-Lsection__debug_str
	.long L$set$774
	.byte	0x39
	.byte	0xc4
	.long	0xa20
	.byte	0x1
	.long	0x41ba
	.byte	0x22
	.long	0xde7
	.byte	0x22
	.long	0x37bf
	.byte	0x0
	.byte	0x40
	.byte	0x1
	.set L$set$775,LASF223-Lsection__debug_str
	.long L$set$775
	.byte	0x39
	.byte	0xa7
	.long	0x3f2b
	.byte	0x1
	.long	0x41d6
	.byte	0x22
	.long	0xa9d
	.byte	0x22
	.long	0xa9d
	.byte	0x0
	.byte	0x40
	.byte	0x1
	.set L$set$776,LASF224-Lsection__debug_str
	.long L$set$776
	.byte	0x39
	.byte	0x99
	.long	0xa9d
	.byte	0x1
	.long	0x41ed
	.byte	0x22
	.long	0x2b34
	.byte	0x0
	.byte	0x40
	.byte	0x1
	.set L$set$777,LASF225-Lsection__debug_str
	.long L$set$777
	.byte	0x39
	.byte	0xba
	.long	0xa9d
	.byte	0x1
	.long	0x420e
	.byte	0x22
	.long	0x2b34
	.byte	0x22
	.long	0x3499
	.byte	0x22
	.long	0xa20
	.byte	0x0
	.byte	0x40
	.byte	0x1
	.set L$set$778,LASF226-Lsection__debug_str
	.long L$set$778
	.byte	0x39
	.byte	0xc0
	.long	0xaae
	.byte	0x1
	.long	0x422f
	.byte	0x22
	.long	0x2b34
	.byte	0x22
	.long	0x3499
	.byte	0x22
	.long	0xa20
	.byte	0x0
	.byte	0x1c
	.byte	0x1
	.set L$set$779,LASF227-Lsection__debug_str
	.long L$set$779
	.byte	0x39
	.byte	0xb4
	.set L$set$780,LASF228-Lsection__debug_str
	.long L$set$780
	.long	0x99b
	.byte	0x1
	.long	0x424f
	.byte	0x22
	.long	0x2b34
	.byte	0x22
	.long	0x3499
	.byte	0x0
	.byte	0x40
	.byte	0x1
	.set L$set$781,LASF229-Lsection__debug_str
	.long L$set$781
	.byte	0x39
	.byte	0xb7
	.long	0x3e3e
	.byte	0x1
	.long	0x426b
	.byte	0x22
	.long	0x2b34
	.byte	0x22
	.long	0x3499
	.byte	0x0
	.byte	0x6
	.byte	0x1
	.set L$set$782,LASF230-Lsection__debug_str
	.long L$set$782
	.byte	0x39
	.byte	0xc7
	.byte	0x1
	.long	0x427e
	.byte	0x22
	.long	0xa20
	.byte	0x0
	.byte	0x40
	.byte	0x1
	.set L$set$783,LASF231-Lsection__debug_str
	.long L$set$783
	.byte	0x39
	.byte	0xa6
	.long	0xa9d
	.byte	0x1
	.long	0x4295
	.byte	0x22
	.long	0xa9d
	.byte	0x0
	.byte	0x2
	.ascii "__gnu_debug\0"
	.byte	0x26
	.byte	0x3a
	.long	0x42b7
	.byte	0x4a
	.byte	0x26
	.byte	0x3b
	.long	0x12f1
	.byte	0x4a
	.byte	0x26
	.byte	0x3c
	.long	0x26a3
	.byte	0x0
	.byte	0x19
	.long	0x12fc
	.byte	0x1
	.byte	0x3a
	.byte	0xe9
	.long	0x448d
	.byte	0x7
	.ascii "streampos\0"
	.byte	0x3b
	.byte	0xd3
	.long	0x1310
	.byte	0x4b
	.byte	0x1
	.set L$set$784,LASF232-Lsection__debug_str
	.long L$set$784
	.byte	0x3a
	.byte	0xf1
	.set L$set$785,LASF266-Lsection__debug_str
	.long L$set$785
	.byte	0x1
	.long	0x42f0
	.byte	0x22
	.long	0x448d
	.byte	0x22
	.long	0x4493
	.byte	0x0
	.byte	0x1c
	.byte	0x1
	.set L$set$786,LASF233-Lsection__debug_str
	.long L$set$786
	.byte	0x3a
	.byte	0xf5
	.set L$set$787,LASF234-Lsection__debug_str
	.long L$set$787
	.long	0xe2a
	.byte	0x1
	.long	0x4310
	.byte	0x22
	.long	0x4493
	.byte	0x22
	.long	0x4493
	.byte	0x0
	.byte	0x1c
	.byte	0x1
	.set L$set$788,LASF235-Lsection__debug_str
	.long L$set$788
	.byte	0x3a
	.byte	0xf9
	.set L$set$789,LASF236-Lsection__debug_str
	.long L$set$789
	.long	0xe2a
	.byte	0x1
	.long	0x4330
	.byte	0x22
	.long	0x4493
	.byte	0x22
	.long	0x4493
	.byte	0x0
	.byte	0x1c
	.byte	0x1
	.set L$set$790,LASF237-Lsection__debug_str
	.long L$set$790
	.byte	0x3a
	.byte	0xfd
	.set L$set$791,LASF238-Lsection__debug_str
	.long L$set$791
	.long	0xa20
	.byte	0x1
	.long	0x4355
	.byte	0x22
	.long	0x2b34
	.byte	0x22
	.long	0x2b34
	.byte	0x22
	.long	0xcf9
	.byte	0x0
	.byte	0x44
	.byte	0x1
	.set L$set$792,LASF239-Lsection__debug_str
	.long L$set$792
	.byte	0x3a
	.word	0x101
	.set L$set$793,LASF240-Lsection__debug_str
	.long L$set$793
	.long	0xcf9
	.byte	0x1
	.long	0x4371
	.byte	0x22
	.long	0x2b34
	.byte	0x0
	.byte	0x44
	.byte	0x1
	.set L$set$794,LASF241-Lsection__debug_str
	.long L$set$794
	.byte	0x3a
	.word	0x105
	.set L$set$795,LASF242-Lsection__debug_str
	.long L$set$795
	.long	0x2b34
	.byte	0x1
	.long	0x4397
	.byte	0x22
	.long	0x2b34
	.byte	0x22
	.long	0xcf9
	.byte	0x22
	.long	0x4493
	.byte	0x0
	.byte	0x44
	.byte	0x1
	.set L$set$796,LASF243-Lsection__debug_str
	.long L$set$796
	.byte	0x3a
	.word	0x109
	.set L$set$797,LASF244-Lsection__debug_str
	.long L$set$797
	.long	0xde7
	.byte	0x1
	.long	0x43bd
	.byte	0x22
	.long	0xde7
	.byte	0x22
	.long	0x2b34
	.byte	0x22
	.long	0xcf9
	.byte	0x0
	.byte	0x44
	.byte	0x1
	.set L$set$798,LASF245-Lsection__debug_str
	.long L$set$798
	.byte	0x3a
	.word	0x10d
	.set L$set$799,LASF246-Lsection__debug_str
	.long L$set$799
	.long	0xde7
	.byte	0x1
	.long	0x43e3
	.byte	0x22
	.long	0xde7
	.byte	0x22
	.long	0x2b34
	.byte	0x22
	.long	0xcf9
	.byte	0x0
	.byte	0x44
	.byte	0x1
	.set L$set$800,LASF232-Lsection__debug_str
	.long L$set$800
	.byte	0x3a
	.word	0x111
	.set L$set$801,LASF247-Lsection__debug_str
	.long L$set$801
	.long	0xde7
	.byte	0x1
	.long	0x4409
	.byte	0x22
	.long	0xde7
	.byte	0x22
	.long	0xcf9
	.byte	0x22
	.long	0xb17
	.byte	0x0
	.byte	0x44
	.byte	0x1
	.set L$set$802,LASF248-Lsection__debug_str
	.long L$set$802
	.byte	0x3a
	.word	0x115
	.set L$set$803,LASF249-Lsection__debug_str
	.long L$set$803
	.long	0xb17
	.byte	0x1
	.long	0x4425
	.byte	0x22
	.long	0x4499
	.byte	0x0
	.byte	0x44
	.byte	0x1
	.set L$set$804,LASF250-Lsection__debug_str
	.long L$set$804
	.byte	0x3a
	.word	0x11b
	.set L$set$805,LASF251-Lsection__debug_str
	.long L$set$805
	.long	0xa20
	.byte	0x1
	.long	0x4441
	.byte	0x22
	.long	0x4493
	.byte	0x0
	.byte	0x44
	.byte	0x1
	.set L$set$806,LASF252-Lsection__debug_str
	.long L$set$806
	.byte	0x3a
	.word	0x11f
	.set L$set$807,LASF253-Lsection__debug_str
	.long L$set$807
	.long	0xe2a
	.byte	0x1
	.long	0x4462
	.byte	0x22
	.long	0x4499
	.byte	0x22
	.long	0x4499
	.byte	0x0
	.byte	0x4c
	.byte	0x1
	.set L$set$808,LASF255-Lsection__debug_str
	.long L$set$808
	.byte	0x3a
	.word	0x123
	.set L$set$809,LASF505-Lsection__debug_str
	.long L$set$809
	.long	0xa20
	.byte	0x1
	.byte	0x38
	.byte	0x1
	.set L$set$810,LASF256-Lsection__debug_str
	.long L$set$810
	.byte	0x3a
	.word	0x126
	.set L$set$811,LASF257-Lsection__debug_str
	.long L$set$811
	.long	0xa20
	.byte	0x1
	.byte	0x22
	.long	0x4499
	.byte	0x0
	.byte	0x0
	.byte	0x24
	.byte	0x4
	.long	0xb17
	.byte	0x24
	.byte	0x4
	.long	0x2b3a
	.byte	0x24
	.byte	0x4
	.long	0x449f
	.byte	0x20
	.long	0xa20
	.byte	0x7
	.ascii "_Atomic_word\0"
	.byte	0x3c
	.byte	0x25
	.long	0xa20
	.byte	0x3f
	.long	0x1324
	.byte	0x1
	.byte	0x2e
	.byte	0x47
	.byte	0x29
	.byte	0x4
	.byte	0x7
	.byte	0x29
	.byte	0x4
	.byte	0x5
	.byte	0x19
	.long	0x26ae
	.byte	0x1
	.byte	0x6
	.byte	0x36
	.long	0x45fb
	.byte	0x6
	.byte	0x1
	.set L$set$812,LASF258-Lsection__debug_str
	.long L$set$812
	.byte	0x6
	.byte	0x44
	.byte	0x1
	.long	0x44e6
	.byte	0x1b
	.long	0x45fb
	.byte	0x1
	.byte	0x0
	.byte	0x6
	.byte	0x1
	.set L$set$813,LASF258-Lsection__debug_str
	.long L$set$813
	.byte	0x6
	.byte	0x46
	.byte	0x1
	.long	0x44ff
	.byte	0x1b
	.long	0x45fb
	.byte	0x1
	.byte	0x22
	.long	0x4601
	.byte	0x0
	.byte	0x6
	.byte	0x1
	.set L$set$814,LASF259-Lsection__debug_str
	.long L$set$814
	.byte	0x6
	.byte	0x4b
	.byte	0x1
	.long	0x4519
	.byte	0x1b
	.long	0x45fb
	.byte	0x1
	.byte	0x1b
	.long	0xa20
	.byte	0x1
	.byte	0x0
	.byte	0x1c
	.byte	0x1
	.set L$set$815,LASF260-Lsection__debug_str
	.long L$set$815
	.byte	0x6
	.byte	0x4e
	.set L$set$816,LASF261-Lsection__debug_str
	.long L$set$816
	.long	0xde7
	.byte	0x1
	.long	0x453a
	.byte	0x1b
	.long	0x460c
	.byte	0x1
	.byte	0x22
	.long	0x448d
	.byte	0x0
	.byte	0x1c
	.byte	0x1
	.set L$set$817,LASF260-Lsection__debug_str
	.long L$set$817
	.byte	0x6
	.byte	0x51
	.set L$set$818,LASF262-Lsection__debug_str
	.long L$set$818
	.long	0x2b34
	.byte	0x1
	.long	0x455b
	.byte	0x1b
	.long	0x460c
	.byte	0x1
	.byte	0x22
	.long	0x4493
	.byte	0x0
	.byte	0x1c
	.byte	0x1
	.set L$set$819,LASF263-Lsection__debug_str
	.long L$set$819
	.byte	0x6
	.byte	0x56
	.set L$set$820,LASF264-Lsection__debug_str
	.long L$set$820
	.long	0xde7
	.byte	0x1
	.long	0x4581
	.byte	0x1b
	.long	0x45fb
	.byte	0x1
	.byte	0x22
	.long	0xb63
	.byte	0x22
	.long	0x2be7
	.byte	0x0
	.byte	0x4b
	.byte	0x1
	.set L$set$821,LASF265-Lsection__debug_str
	.long L$set$821
	.byte	0x6
	.byte	0x60
	.set L$set$822,LASF267-Lsection__debug_str
	.long L$set$822
	.byte	0x1
	.long	0x45a3
	.byte	0x1b
	.long	0x45fb
	.byte	0x1
	.byte	0x22
	.long	0xde7
	.byte	0x22
	.long	0xb63
	.byte	0x0
	.byte	0x1c
	.byte	0x1
	.set L$set$823,LASF268-Lsection__debug_str
	.long L$set$823
	.byte	0x6
	.byte	0x64
	.set L$set$824,LASF269-Lsection__debug_str
	.long L$set$824
	.long	0xcf9
	.byte	0x1
	.long	0x45bf
	.byte	0x1b
	.long	0x460c
	.byte	0x1
	.byte	0x0
	.byte	0x4b
	.byte	0x1
	.set L$set$825,LASF270-Lsection__debug_str
	.long L$set$825
	.byte	0x6
	.byte	0x6a
	.set L$set$826,LASF271-Lsection__debug_str
	.long L$set$826
	.byte	0x1
	.long	0x45e1
	.byte	0x1b
	.long	0x45fb
	.byte	0x1
	.byte	0x22
	.long	0xde7
	.byte	0x22
	.long	0x4493
	.byte	0x0
	.byte	0x1d
	.byte	0x1
	.set L$set$827,LASF272-Lsection__debug_str
	.long L$set$827
	.byte	0x6
	.byte	0x6e
	.set L$set$828,LASF274-Lsection__debug_str
	.long L$set$828
	.byte	0x1
	.byte	0x1b
	.long	0x45fb
	.byte	0x1
	.byte	0x22
	.long	0xde7
	.byte	0x0
	.byte	0x0
	.byte	0x1f
	.byte	0x4
	.long	0x44c6
	.byte	0x24
	.byte	0x4
	.long	0x4607
	.byte	0x20
	.long	0x44c6
	.byte	0x1f
	.byte	0x4
	.long	0x4607
	.byte	0x19
	.long	0x1330
	.byte	0x1
	.byte	0x3d
	.byte	0x31
	.long	0x466b
	.byte	0x32
	.long	0x44c6
	.byte	0x2
	.byte	0x23
	.byte	0x0
	.byte	0x1
	.byte	0x6
	.byte	0x1
	.set L$set$829,LASF275-Lsection__debug_str
	.long L$set$829
	.byte	0x7
	.byte	0x64
	.byte	0x1
	.long	0x463b
	.byte	0x1b
	.long	0x466b
	.byte	0x1
	.byte	0x0
	.byte	0x6
	.byte	0x1
	.set L$set$830,LASF275-Lsection__debug_str
	.long L$set$830
	.byte	0x7
	.byte	0x66
	.byte	0x1
	.long	0x4654
	.byte	0x1b
	.long	0x466b
	.byte	0x1
	.byte	0x22
	.long	0x4671
	.byte	0x0
	.byte	0x8
	.byte	0x1
	.set L$set$831,LASF276-Lsection__debug_str
	.long L$set$831
	.byte	0x7
	.byte	0x6c
	.byte	0x1
	.byte	0x1b
	.long	0x466b
	.byte	0x1
	.byte	0x1b
	.long	0xa20
	.byte	0x1
	.byte	0x0
	.byte	0x0
	.byte	0x1f
	.byte	0x4
	.long	0x4612
	.byte	0x24
	.byte	0x4
	.long	0x4677
	.byte	0x20
	.long	0x4612
	.byte	0x20
	.long	0xe2a
	.byte	0x20
	.long	0x1342
	.byte	0x1f
	.byte	0x4
	.long	0x13dc
	.byte	0x19
	.long	0x1396
	.byte	0x4
	.byte	0x3d
	.byte	0x38
	.long	0x599f
	.byte	0x4d
	.ascii "npos\0"
	.byte	0x28
	.word	0x110
	.set L$set$832,LASF1662-Lsection__debug_str
	.long L$set$832
	.long	0x599f
	.byte	0x1
	.byte	0x1
	.byte	0x4e
	.ascii "_M_dataplus\0"
	.byte	0x28
	.word	0x114
	.long	0x13dc
	.byte	0x2
	.byte	0x23
	.byte	0x0
	.byte	0x3
	.byte	0x9
	.ascii "_Rep_base\0"
	.byte	0x1
	.byte	0x9
	.ascii "_Rep\0"
	.byte	0x1
	.byte	0x4f
	.byte	0x1
	.set L$set$833,LASF277-Lsection__debug_str
	.long L$set$833
	.byte	0x28
	.word	0x117
	.set L$set$834,LASF278-Lsection__debug_str
	.long L$set$834
	.long	0xde7
	.byte	0x3
	.byte	0x1
	.long	0x46f4
	.byte	0x1b
	.long	0x59a4
	.byte	0x1
	.byte	0x0
	.byte	0x4f
	.byte	0x1
	.set L$set$835,LASF277-Lsection__debug_str
	.long L$set$835
	.byte	0x28
	.word	0x11b
	.set L$set$836,LASF279-Lsection__debug_str
	.long L$set$836
	.long	0xde7
	.byte	0x3
	.byte	0x1
	.long	0x4717
	.byte	0x1b
	.long	0x59af
	.byte	0x1
	.byte	0x22
	.long	0xde7
	.byte	0x0
	.byte	0x4f
	.byte	0x1
	.set L$set$837,LASF280-Lsection__debug_str
	.long L$set$837
	.byte	0x28
	.word	0x11f
	.set L$set$838,LASF281-Lsection__debug_str
	.long L$set$838
	.long	0x59b5
	.byte	0x3
	.byte	0x1
	.long	0x4735
	.byte	0x1b
	.long	0x59a4
	.byte	0x1
	.byte	0x0
	.byte	0x4f
	.byte	0x1
	.set L$set$839,LASF282-Lsection__debug_str
	.long L$set$839
	.byte	0x28
	.word	0x125
	.set L$set$840,LASF283-Lsection__debug_str
	.long L$set$840
	.long	0x26c4
	.byte	0x3
	.byte	0x1
	.long	0x4753
	.byte	0x1b
	.long	0x59a4
	.byte	0x1
	.byte	0x0
	.byte	0x4f
	.byte	0x1
	.set L$set$841,LASF284-Lsection__debug_str
	.long L$set$841
	.byte	0x28
	.word	0x129
	.set L$set$842,LASF285-Lsection__debug_str
	.long L$set$842
	.long	0x26c4
	.byte	0x3
	.byte	0x1
	.long	0x4771
	.byte	0x1b
	.long	0x59a4
	.byte	0x1
	.byte	0x0
	.byte	0x50
	.byte	0x1
	.set L$set$843,LASF286-Lsection__debug_str
	.long L$set$843
	.byte	0x28
	.word	0x12d
	.set L$set$844,LASF287-Lsection__debug_str
	.long L$set$844
	.byte	0x3
	.byte	0x1
	.long	0x478b
	.byte	0x1b
	.long	0x59af
	.byte	0x1
	.byte	0x0
	.byte	0x4f
	.byte	0x1
	.set L$set$845,LASF288-Lsection__debug_str
	.long L$set$845
	.byte	0x28
	.word	0x134
	.set L$set$846,LASF289-Lsection__debug_str
	.long L$set$846
	.long	0xcf9
	.byte	0x3
	.byte	0x1
	.long	0x47b3
	.byte	0x1b
	.long	0x59a4
	.byte	0x1
	.byte	0x22
	.long	0xb63
	.byte	0x22
	.long	0x2b34
	.byte	0x0
	.byte	0x50
	.byte	0x1
	.set L$set$847,LASF290-Lsection__debug_str
	.long L$set$847
	.byte	0x28
	.word	0x13c
	.set L$set$848,LASF291-Lsection__debug_str
	.long L$set$848
	.byte	0x3
	.byte	0x1
	.long	0x47dc
	.byte	0x1b
	.long	0x59a4
	.byte	0x1
	.byte	0x22
	.long	0xb63
	.byte	0x22
	.long	0xb63
	.byte	0x22
	.long	0x2b34
	.byte	0x0
	.byte	0x4f
	.byte	0x1
	.set L$set$849,LASF292-Lsection__debug_str
	.long L$set$849
	.byte	0x28
	.word	0x144
	.set L$set$850,LASF293-Lsection__debug_str
	.long L$set$850
	.long	0xcf9
	.byte	0x3
	.byte	0x1
	.long	0x4804
	.byte	0x1b
	.long	0x59a4
	.byte	0x1
	.byte	0x22
	.long	0xb63
	.byte	0x22
	.long	0xb63
	.byte	0x0
	.byte	0x4f
	.byte	0x1
	.set L$set$851,LASF294-Lsection__debug_str
	.long L$set$851
	.byte	0x28
	.word	0x14c
	.set L$set$852,LASF295-Lsection__debug_str
	.long L$set$852
	.long	0xe2a
	.byte	0x3
	.byte	0x1
	.long	0x4827
	.byte	0x1b
	.long	0x59a4
	.byte	0x1
	.byte	0x22
	.long	0x2b34
	.byte	0x0
	.byte	0x50
	.byte	0x1
	.set L$set$853,LASF296-Lsection__debug_str
	.long L$set$853
	.byte	0x28
	.word	0x155
	.set L$set$854,LASF297-Lsection__debug_str
	.long L$set$854
	.byte	0x3
	.byte	0x1
	.long	0x484a
	.byte	0x22
	.long	0xde7
	.byte	0x22
	.long	0x2b34
	.byte	0x22
	.long	0xb63
	.byte	0x0
	.byte	0x50
	.byte	0x1
	.set L$set$855,LASF298-Lsection__debug_str
	.long L$set$855
	.byte	0x28
	.word	0x15e
	.set L$set$856,LASF299-Lsection__debug_str
	.long L$set$856
	.byte	0x3
	.byte	0x1
	.long	0x486d
	.byte	0x22
	.long	0xde7
	.byte	0x22
	.long	0x2b34
	.byte	0x22
	.long	0xb63
	.byte	0x0
	.byte	0x50
	.byte	0x1
	.set L$set$857,LASF300-Lsection__debug_str
	.long L$set$857
	.byte	0x28
	.word	0x167
	.set L$set$858,LASF301-Lsection__debug_str
	.long L$set$858
	.byte	0x3
	.byte	0x1
	.long	0x4890
	.byte	0x22
	.long	0xde7
	.byte	0x22
	.long	0xb63
	.byte	0x22
	.long	0xb17
	.byte	0x0
	.byte	0x50
	.byte	0x1
	.set L$set$859,LASF302-Lsection__debug_str
	.long L$set$859
	.byte	0x28
	.word	0x17a
	.set L$set$860,LASF303-Lsection__debug_str
	.long L$set$860
	.byte	0x3
	.byte	0x1
	.long	0x48b3
	.byte	0x22
	.long	0xde7
	.byte	0x22
	.long	0x26c4
	.byte	0x22
	.long	0x26c4
	.byte	0x0
	.byte	0x50
	.byte	0x1
	.set L$set$861,LASF302-Lsection__debug_str
	.long L$set$861
	.byte	0x28
	.word	0x17e
	.set L$set$862,LASF304-Lsection__debug_str
	.long L$set$862
	.byte	0x3
	.byte	0x1
	.long	0x48d6
	.byte	0x22
	.long	0xde7
	.byte	0x22
	.long	0x2727
	.byte	0x22
	.long	0x2727
	.byte	0x0
	.byte	0x50
	.byte	0x1
	.set L$set$863,LASF302-Lsection__debug_str
	.long L$set$863
	.byte	0x28
	.word	0x182
	.set L$set$864,LASF305-Lsection__debug_str
	.long L$set$864
	.byte	0x3
	.byte	0x1
	.long	0x48f9
	.byte	0x22
	.long	0xde7
	.byte	0x22
	.long	0xde7
	.byte	0x22
	.long	0xde7
	.byte	0x0
	.byte	0x50
	.byte	0x1
	.set L$set$865,LASF302-Lsection__debug_str
	.long L$set$865
	.byte	0x28
	.word	0x186
	.set L$set$866,LASF306-Lsection__debug_str
	.long L$set$866
	.byte	0x3
	.byte	0x1
	.long	0x491c
	.byte	0x22
	.long	0xde7
	.byte	0x22
	.long	0x2b34
	.byte	0x22
	.long	0x2b34
	.byte	0x0
	.byte	0x4f
	.byte	0x1
	.set L$set$867,LASF307-Lsection__debug_str
	.long L$set$867
	.byte	0x28
	.word	0x18a
	.set L$set$868,LASF308-Lsection__debug_str
	.long L$set$868
	.long	0xa20
	.byte	0x3
	.byte	0x1
	.long	0x493e
	.byte	0x22
	.long	0xb63
	.byte	0x22
	.long	0xb63
	.byte	0x0
	.byte	0x50
	.byte	0x1
	.set L$set$869,LASF309-Lsection__debug_str
	.long L$set$869
	.byte	0x3e
	.word	0x1c3
	.set L$set$870,LASF310-Lsection__debug_str
	.long L$set$870
	.byte	0x3
	.byte	0x1
	.long	0x4967
	.byte	0x1b
	.long	0x59af
	.byte	0x1
	.byte	0x22
	.long	0xb63
	.byte	0x22
	.long	0xb63
	.byte	0x22
	.long	0xb63
	.byte	0x0
	.byte	0x50
	.byte	0x1
	.set L$set$871,LASF311-Lsection__debug_str
	.long L$set$871
	.byte	0x3e
	.word	0x1b5
	.set L$set$872,LASF312-Lsection__debug_str
	.long L$set$872
	.byte	0x3
	.byte	0x1
	.long	0x4981
	.byte	0x1b
	.long	0x59af
	.byte	0x1
	.byte	0x0
	.byte	0x51
	.byte	0x1
	.set L$set$873,LASF451-Lsection__debug_str
	.long L$set$873
	.byte	0x28
	.word	0x19a
	.set L$set$874,LASF526-Lsection__debug_str
	.long L$set$874
	.long	0x59bb
	.byte	0x3
	.byte	0x1
	.byte	0x36
	.byte	0x1
	.set L$set$875,LASF313-Lsection__debug_str
	.long L$set$875
	.byte	0x28
	.word	0x811
	.byte	0x1
	.long	0x49a9
	.byte	0x1b
	.long	0x59af
	.byte	0x1
	.byte	0x0
	.byte	0x6
	.byte	0x1
	.set L$set$876,LASF313-Lsection__debug_str
	.long L$set$876
	.byte	0x3e
	.byte	0xbf
	.byte	0x1
	.long	0x49c2
	.byte	0x1b
	.long	0x59af
	.byte	0x1
	.byte	0x22
	.long	0x4671
	.byte	0x0
	.byte	0x6
	.byte	0x1
	.set L$set$877,LASF313-Lsection__debug_str
	.long L$set$877
	.byte	0x3e
	.byte	0xb7
	.byte	0x1
	.long	0x49db
	.byte	0x1b
	.long	0x59af
	.byte	0x1
	.byte	0x22
	.long	0x59c1
	.byte	0x0
	.byte	0x6
	.byte	0x1
	.set L$set$878,LASF313-Lsection__debug_str
	.long L$set$878
	.byte	0x3e
	.byte	0xc5
	.byte	0x1
	.long	0x49fe
	.byte	0x1b
	.long	0x59af
	.byte	0x1
	.byte	0x22
	.long	0x59c1
	.byte	0x22
	.long	0xb63
	.byte	0x22
	.long	0xb63
	.byte	0x0
	.byte	0x6
	.byte	0x1
	.set L$set$879,LASF313-Lsection__debug_str
	.long L$set$879
	.byte	0x3e
	.byte	0xd0
	.byte	0x1
	.long	0x4a26
	.byte	0x1b
	.long	0x59af
	.byte	0x1
	.byte	0x22
	.long	0x59c1
	.byte	0x22
	.long	0xb63
	.byte	0x22
	.long	0xb63
	.byte	0x22
	.long	0x4671
	.byte	0x0
	.byte	0x6
	.byte	0x1
	.set L$set$880,LASF313-Lsection__debug_str
	.long L$set$880
	.byte	0x3e
	.byte	0xdb
	.byte	0x1
	.long	0x4a49
	.byte	0x1b
	.long	0x59af
	.byte	0x1
	.byte	0x22
	.long	0x2b34
	.byte	0x22
	.long	0xb63
	.byte	0x22
	.long	0x4671
	.byte	0x0
	.byte	0x6
	.byte	0x1
	.set L$set$881,LASF313-Lsection__debug_str
	.long L$set$881
	.byte	0x3e
	.byte	0xe2
	.byte	0x1
	.long	0x4a67
	.byte	0x1b
	.long	0x59af
	.byte	0x1
	.byte	0x22
	.long	0x2b34
	.byte	0x22
	.long	0x4671
	.byte	0x0
	.byte	0x6
	.byte	0x1
	.set L$set$882,LASF313-Lsection__debug_str
	.long L$set$882
	.byte	0x3e
	.byte	0xe9
	.byte	0x1
	.long	0x4a8a
	.byte	0x1b
	.long	0x59af
	.byte	0x1
	.byte	0x22
	.long	0xb63
	.byte	0x22
	.long	0xb17
	.byte	0x22
	.long	0x4671
	.byte	0x0
	.byte	0x36
	.byte	0x1
	.set L$set$883,LASF314-Lsection__debug_str
	.long L$set$883
	.byte	0x28
	.word	0x1ec
	.byte	0x1
	.long	0x4aa5
	.byte	0x1b
	.long	0x59af
	.byte	0x1
	.byte	0x1b
	.long	0xa20
	.byte	0x1
	.byte	0x0
	.byte	0x44
	.byte	0x1
	.set L$set$884,LASF22-Lsection__debug_str
	.long L$set$884
	.byte	0x28
	.word	0x1f4
	.set L$set$885,LASF315-Lsection__debug_str
	.long L$set$885
	.long	0x59c7
	.byte	0x1
	.long	0x4ac7
	.byte	0x1b
	.long	0x59af
	.byte	0x1
	.byte	0x22
	.long	0x59c1
	.byte	0x0
	.byte	0x44
	.byte	0x1
	.set L$set$886,LASF22-Lsection__debug_str
	.long L$set$886
	.byte	0x28
	.word	0x1fc
	.set L$set$887,LASF316-Lsection__debug_str
	.long L$set$887
	.long	0x59c7
	.byte	0x1
	.long	0x4ae9
	.byte	0x1b
	.long	0x59af
	.byte	0x1
	.byte	0x22
	.long	0x2b34
	.byte	0x0
	.byte	0x44
	.byte	0x1
	.set L$set$888,LASF22-Lsection__debug_str
	.long L$set$888
	.byte	0x28
	.word	0x207
	.set L$set$889,LASF317-Lsection__debug_str
	.long L$set$889
	.long	0x59c7
	.byte	0x1
	.long	0x4b0b
	.byte	0x1b
	.long	0x59af
	.byte	0x1
	.byte	0x22
	.long	0xb17
	.byte	0x0
	.byte	0x44
	.byte	0x1
	.set L$set$890,LASF318-Lsection__debug_str
	.long L$set$890
	.byte	0x28
	.word	0x213
	.set L$set$891,LASF319-Lsection__debug_str
	.long L$set$891
	.long	0x26c4
	.byte	0x1
	.long	0x4b28
	.byte	0x1b
	.long	0x59af
	.byte	0x1
	.byte	0x0
	.byte	0x44
	.byte	0x1
	.set L$set$892,LASF318-Lsection__debug_str
	.long L$set$892
	.byte	0x28
	.word	0x21e
	.set L$set$893,LASF320-Lsection__debug_str
	.long L$set$893
	.long	0x2727
	.byte	0x1
	.long	0x4b45
	.byte	0x1b
	.long	0x59a4
	.byte	0x1
	.byte	0x0
	.byte	0x44
	.byte	0x1
	.set L$set$894,LASF321-Lsection__debug_str
	.long L$set$894
	.byte	0x28
	.word	0x226
	.set L$set$895,LASF322-Lsection__debug_str
	.long L$set$895
	.long	0x26c4
	.byte	0x1
	.long	0x4b62
	.byte	0x1b
	.long	0x59af
	.byte	0x1
	.byte	0x0
	.byte	0x44
	.byte	0x1
	.set L$set$896,LASF321-Lsection__debug_str
	.long L$set$896
	.byte	0x28
	.word	0x231
	.set L$set$897,LASF323-Lsection__debug_str
	.long L$set$897
	.long	0x2727
	.byte	0x1
	.long	0x4b7f
	.byte	0x1b
	.long	0x59a4
	.byte	0x1
	.byte	0x0
	.byte	0x44
	.byte	0x1
	.set L$set$898,LASF324-Lsection__debug_str
	.long L$set$898
	.byte	0x28
	.word	0x23a
	.set L$set$899,LASF325-Lsection__debug_str
	.long L$set$899
	.long	0x14a3
	.byte	0x1
	.long	0x4b9c
	.byte	0x1b
	.long	0x59af
	.byte	0x1
	.byte	0x0
	.byte	0x44
	.byte	0x1
	.set L$set$900,LASF324-Lsection__debug_str
	.long L$set$900
	.byte	0x28
	.word	0x243
	.set L$set$901,LASF326-Lsection__debug_str
	.long L$set$901
	.long	0x141b
	.byte	0x1
	.long	0x4bb9
	.byte	0x1b
	.long	0x59a4
	.byte	0x1
	.byte	0x0
	.byte	0x44
	.byte	0x1
	.set L$set$902,LASF327-Lsection__debug_str
	.long L$set$902
	.byte	0x28
	.word	0x24c
	.set L$set$903,LASF328-Lsection__debug_str
	.long L$set$903
	.long	0x14a3
	.byte	0x1
	.long	0x4bd6
	.byte	0x1b
	.long	0x59af
	.byte	0x1
	.byte	0x0
	.byte	0x44
	.byte	0x1
	.set L$set$904,LASF327-Lsection__debug_str
	.long L$set$904
	.byte	0x28
	.word	0x255
	.set L$set$905,LASF329-Lsection__debug_str
	.long L$set$905
	.long	0x141b
	.byte	0x1
	.long	0x4bf3
	.byte	0x1b
	.long	0x59a4
	.byte	0x1
	.byte	0x0
	.byte	0x44
	.byte	0x1
	.set L$set$906,LASF330-Lsection__debug_str
	.long L$set$906
	.byte	0x28
	.word	0x25d
	.set L$set$907,LASF331-Lsection__debug_str
	.long L$set$907
	.long	0xcf9
	.byte	0x1
	.long	0x4c10
	.byte	0x1b
	.long	0x59a4
	.byte	0x1
	.byte	0x0
	.byte	0x44
	.byte	0x1
	.set L$set$908,LASF239-Lsection__debug_str
	.long L$set$908
	.byte	0x28
	.word	0x263
	.set L$set$909,LASF332-Lsection__debug_str
	.long L$set$909
	.long	0xcf9
	.byte	0x1
	.long	0x4c2d
	.byte	0x1b
	.long	0x59a4
	.byte	0x1
	.byte	0x0
	.byte	0x44
	.byte	0x1
	.set L$set$910,LASF268-Lsection__debug_str
	.long L$set$910
	.byte	0x28
	.word	0x268
	.set L$set$911,LASF333-Lsection__debug_str
	.long L$set$911
	.long	0xcf9
	.byte	0x1
	.long	0x4c4a
	.byte	0x1b
	.long	0x59a4
	.byte	0x1
	.byte	0x0
	.byte	0x37
	.byte	0x1
	.set L$set$912,LASF334-Lsection__debug_str
	.long L$set$912
	.byte	0x3e
	.word	0x26e
	.set L$set$913,LASF335-Lsection__debug_str
	.long L$set$913
	.byte	0x1
	.long	0x4c6d
	.byte	0x1b
	.long	0x59af
	.byte	0x1
	.byte	0x22
	.long	0xb63
	.byte	0x22
	.long	0xb17
	.byte	0x0
	.byte	0x37
	.byte	0x1
	.set L$set$914,LASF334-Lsection__debug_str
	.long L$set$914
	.byte	0x28
	.word	0x283
	.set L$set$915,LASF336-Lsection__debug_str
	.long L$set$915
	.byte	0x1
	.long	0x4c8b
	.byte	0x1b
	.long	0x59af
	.byte	0x1
	.byte	0x22
	.long	0xb63
	.byte	0x0
	.byte	0x44
	.byte	0x1
	.set L$set$916,LASF337-Lsection__debug_str
	.long L$set$916
	.byte	0x28
	.word	0x28b
	.set L$set$917,LASF338-Lsection__debug_str
	.long L$set$917
	.long	0xcf9
	.byte	0x1
	.long	0x4ca8
	.byte	0x1b
	.long	0x59a4
	.byte	0x1
	.byte	0x0
	.byte	0x37
	.byte	0x1
	.set L$set$918,LASF339-Lsection__debug_str
	.long L$set$918
	.byte	0x3e
	.word	0x1e4
	.set L$set$919,LASF340-Lsection__debug_str
	.long L$set$919
	.byte	0x1
	.long	0x4cc6
	.byte	0x1b
	.long	0x59af
	.byte	0x1
	.byte	0x22
	.long	0xb63
	.byte	0x0
	.byte	0x37
	.byte	0x1
	.set L$set$920,LASF341-Lsection__debug_str
	.long L$set$920
	.byte	0x28
	.word	0x2a6
	.set L$set$921,LASF342-Lsection__debug_str
	.long L$set$921
	.byte	0x1
	.long	0x4cdf
	.byte	0x1b
	.long	0x59af
	.byte	0x1
	.byte	0x0
	.byte	0x44
	.byte	0x1
	.set L$set$922,LASF343-Lsection__debug_str
	.long L$set$922
	.byte	0x28
	.word	0x2ad
	.set L$set$923,LASF344-Lsection__debug_str
	.long L$set$923
	.long	0xe2a
	.byte	0x1
	.long	0x4cfc
	.byte	0x1b
	.long	0x59a4
	.byte	0x1
	.byte	0x0
	.byte	0x44
	.byte	0x1
	.set L$set$924,LASF345-Lsection__debug_str
	.long L$set$924
	.byte	0x28
	.word	0x2bc
	.set L$set$925,LASF346-Lsection__debug_str
	.long L$set$925
	.long	0x4493
	.byte	0x1
	.long	0x4d1e
	.byte	0x1b
	.long	0x59a4
	.byte	0x1
	.byte	0x22
	.long	0xb63
	.byte	0x0
	.byte	0x44
	.byte	0x1
	.set L$set$926,LASF345-Lsection__debug_str
	.long L$set$926
	.byte	0x28
	.word	0x2cd
	.set L$set$927,LASF347-Lsection__debug_str
	.long L$set$927
	.long	0x448d
	.byte	0x1
	.long	0x4d40
	.byte	0x1b
	.long	0x59af
	.byte	0x1
	.byte	0x22
	.long	0xb63
	.byte	0x0
	.byte	0x44
	.byte	0x1
	.set L$set$928,LASF348-Lsection__debug_str
	.long L$set$928
	.byte	0x28
	.word	0x2e2
	.set L$set$929,LASF349-Lsection__debug_str
	.long L$set$929
	.long	0x4493
	.byte	0x1
	.long	0x4d62
	.byte	0x1b
	.long	0x59a4
	.byte	0x1
	.byte	0x22
	.long	0xb63
	.byte	0x0
	.byte	0x44
	.byte	0x1
	.set L$set$930,LASF348-Lsection__debug_str
	.long L$set$930
	.byte	0x28
	.word	0x2f5
	.set L$set$931,LASF350-Lsection__debug_str
	.long L$set$931
	.long	0x448d
	.byte	0x1
	.long	0x4d84
	.byte	0x1b
	.long	0x59af
	.byte	0x1
	.byte	0x22
	.long	0xb63
	.byte	0x0
	.byte	0x44
	.byte	0x1
	.set L$set$932,LASF351-Lsection__debug_str
	.long L$set$932
	.byte	0x28
	.word	0x304
	.set L$set$933,LASF352-Lsection__debug_str
	.long L$set$933
	.long	0x59c7
	.byte	0x1
	.long	0x4da6
	.byte	0x1b
	.long	0x59af
	.byte	0x1
	.byte	0x22
	.long	0x59c1
	.byte	0x0
	.byte	0x44
	.byte	0x1
	.set L$set$934,LASF351-Lsection__debug_str
	.long L$set$934
	.byte	0x28
	.word	0x30d
	.set L$set$935,LASF353-Lsection__debug_str
	.long L$set$935
	.long	0x59c7
	.byte	0x1
	.long	0x4dc8
	.byte	0x1b
	.long	0x59af
	.byte	0x1
	.byte	0x22
	.long	0x2b34
	.byte	0x0
	.byte	0x44
	.byte	0x1
	.set L$set$936,LASF351-Lsection__debug_str
	.long L$set$936
	.byte	0x28
	.word	0x316
	.set L$set$937,LASF354-Lsection__debug_str
	.long L$set$937
	.long	0x59c7
	.byte	0x1
	.long	0x4dea
	.byte	0x1b
	.long	0x59af
	.byte	0x1
	.byte	0x22
	.long	0xb17
	.byte	0x0
	.byte	0x44
	.byte	0x1
	.set L$set$938,LASF355-Lsection__debug_str
	.long L$set$938
	.byte	0x3e
	.word	0x14a
	.set L$set$939,LASF356-Lsection__debug_str
	.long L$set$939
	.long	0x59c7
	.byte	0x1
	.long	0x4e0c
	.byte	0x1b
	.long	0x59af
	.byte	0x1
	.byte	0x22
	.long	0x59c1
	.byte	0x0
	.byte	0x44
	.byte	0x1
	.set L$set$940,LASF355-Lsection__debug_str
	.long L$set$940
	.byte	0x3e
	.word	0x15b
	.set L$set$941,LASF357-Lsection__debug_str
	.long L$set$941
	.long	0x59c7
	.byte	0x1
	.long	0x4e38
	.byte	0x1b
	.long	0x59af
	.byte	0x1
	.byte	0x22
	.long	0x59c1
	.byte	0x22
	.long	0xb63
	.byte	0x22
	.long	0xb63
	.byte	0x0
	.byte	0x44
	.byte	0x1
	.set L$set$942,LASF355-Lsection__debug_str
	.long L$set$942
	.byte	0x3e
	.word	0x12f
	.set L$set$943,LASF358-Lsection__debug_str
	.long L$set$943
	.long	0x59c7
	.byte	0x1
	.long	0x4e5f
	.byte	0x1b
	.long	0x59af
	.byte	0x1
	.byte	0x22
	.long	0x2b34
	.byte	0x22
	.long	0xb63
	.byte	0x0
	.byte	0x44
	.byte	0x1
	.set L$set$944,LASF355-Lsection__debug_str
	.long L$set$944
	.byte	0x28
	.word	0x342
	.set L$set$945,LASF359-Lsection__debug_str
	.long L$set$945
	.long	0x59c7
	.byte	0x1
	.long	0x4e81
	.byte	0x1b
	.long	0x59af
	.byte	0x1
	.byte	0x22
	.long	0x2b34
	.byte	0x0
	.byte	0x44
	.byte	0x1
	.set L$set$946,LASF355-Lsection__debug_str
	.long L$set$946
	.byte	0x3e
	.word	0x11e
	.set L$set$947,LASF360-Lsection__debug_str
	.long L$set$947
	.long	0x59c7
	.byte	0x1
	.long	0x4ea8
	.byte	0x1b
	.long	0x59af
	.byte	0x1
	.byte	0x22
	.long	0xb63
	.byte	0x22
	.long	0xb17
	.byte	0x0
	.byte	0x37
	.byte	0x1
	.set L$set$948,LASF361-Lsection__debug_str
	.long L$set$948
	.byte	0x28
	.word	0x365
	.set L$set$949,LASF362-Lsection__debug_str
	.long L$set$949
	.byte	0x1
	.long	0x4ec6
	.byte	0x1b
	.long	0x59af
	.byte	0x1
	.byte	0x22
	.long	0xb17
	.byte	0x0
	.byte	0x1c
	.byte	0x1
	.set L$set$950,LASF232-Lsection__debug_str
	.long L$set$950
	.byte	0x3e
	.byte	0xf8
	.set L$set$951,LASF363-Lsection__debug_str
	.long L$set$951
	.long	0x59c7
	.byte	0x1
	.long	0x4ee7
	.byte	0x1b
	.long	0x59af
	.byte	0x1
	.byte	0x22
	.long	0x59c1
	.byte	0x0
	.byte	0x44
	.byte	0x1
	.set L$set$952,LASF232-Lsection__debug_str
	.long L$set$952
	.byte	0x28
	.word	0x383
	.set L$set$953,LASF364-Lsection__debug_str
	.long L$set$953
	.long	0x59c7
	.byte	0x1
	.long	0x4f13
	.byte	0x1b
	.long	0x59af
	.byte	0x1
	.byte	0x22
	.long	0x59c1
	.byte	0x22
	.long	0xb63
	.byte	0x22
	.long	0xb63
	.byte	0x0
	.byte	0x44
	.byte	0x1
	.set L$set$954,LASF232-Lsection__debug_str
	.long L$set$954
	.byte	0x3e
	.word	0x108
	.set L$set$955,LASF365-Lsection__debug_str
	.long L$set$955
	.long	0x59c7
	.byte	0x1
	.long	0x4f3a
	.byte	0x1b
	.long	0x59af
	.byte	0x1
	.byte	0x22
	.long	0x2b34
	.byte	0x22
	.long	0xb63
	.byte	0x0
	.byte	0x44
	.byte	0x1
	.set L$set$956,LASF232-Lsection__debug_str
	.long L$set$956
	.byte	0x28
	.word	0x39f
	.set L$set$957,LASF366-Lsection__debug_str
	.long L$set$957
	.long	0x59c7
	.byte	0x1
	.long	0x4f5c
	.byte	0x1b
	.long	0x59af
	.byte	0x1
	.byte	0x22
	.long	0x2b34
	.byte	0x0
	.byte	0x44
	.byte	0x1
	.set L$set$958,LASF232-Lsection__debug_str
	.long L$set$958
	.byte	0x28
	.word	0x3af
	.set L$set$959,LASF367-Lsection__debug_str
	.long L$set$959
	.long	0x59c7
	.byte	0x1
	.long	0x4f83
	.byte	0x1b
	.long	0x59af
	.byte	0x1
	.byte	0x22
	.long	0xb63
	.byte	0x22
	.long	0xb17
	.byte	0x0
	.byte	0x37
	.byte	0x1
	.set L$set$960,LASF368-Lsection__debug_str
	.long L$set$960
	.byte	0x28
	.word	0x3cc
	.set L$set$961,LASF369-Lsection__debug_str
	.long L$set$961
	.byte	0x1
	.long	0x4fab
	.byte	0x1b
	.long	0x59af
	.byte	0x1
	.byte	0x22
	.long	0x26c4
	.byte	0x22
	.long	0xb63
	.byte	0x22
	.long	0xb17
	.byte	0x0
	.byte	0x44
	.byte	0x1
	.set L$set$962,LASF368-Lsection__debug_str
	.long L$set$962
	.byte	0x28
	.word	0x3eb
	.set L$set$963,LASF370-Lsection__debug_str
	.long L$set$963
	.long	0x59c7
	.byte	0x1
	.long	0x4fd2
	.byte	0x1b
	.long	0x59af
	.byte	0x1
	.byte	0x22
	.long	0xb63
	.byte	0x22
	.long	0x59c1
	.byte	0x0
	.byte	0x44
	.byte	0x1
	.set L$set$964,LASF368-Lsection__debug_str
	.long L$set$964
	.byte	0x28
	.word	0x402
	.set L$set$965,LASF371-Lsection__debug_str
	.long L$set$965
	.long	0x59c7
	.byte	0x1
	.long	0x5003
	.byte	0x1b
	.long	0x59af
	.byte	0x1
	.byte	0x22
	.long	0xb63
	.byte	0x22
	.long	0x59c1
	.byte	0x22
	.long	0xb63
	.byte	0x22
	.long	0xb63
	.byte	0x0
	.byte	0x44
	.byte	0x1
	.set L$set$966,LASF368-Lsection__debug_str
	.long L$set$966
	.byte	0x3e
	.word	0x16d
	.set L$set$967,LASF372-Lsection__debug_str
	.long L$set$967
	.long	0x59c7
	.byte	0x1
	.long	0x502f
	.byte	0x1b
	.long	0x59af
	.byte	0x1
	.byte	0x22
	.long	0xb63
	.byte	0x22
	.long	0x2b34
	.byte	0x22
	.long	0xb63
	.byte	0x0
	.byte	0x44
	.byte	0x1
	.set L$set$968,LASF368-Lsection__debug_str
	.long L$set$968
	.byte	0x28
	.word	0x42a
	.set L$set$969,LASF373-Lsection__debug_str
	.long L$set$969
	.long	0x59c7
	.byte	0x1
	.long	0x5056
	.byte	0x1b
	.long	0x59af
	.byte	0x1
	.byte	0x22
	.long	0xb63
	.byte	0x22
	.long	0x2b34
	.byte	0x0
	.byte	0x44
	.byte	0x1
	.set L$set$970,LASF368-Lsection__debug_str
	.long L$set$970
	.byte	0x28
	.word	0x441
	.set L$set$971,LASF374-Lsection__debug_str
	.long L$set$971
	.long	0x59c7
	.byte	0x1
	.long	0x5082
	.byte	0x1b
	.long	0x59af
	.byte	0x1
	.byte	0x22
	.long	0xb63
	.byte	0x22
	.long	0xb63
	.byte	0x22
	.long	0xb17
	.byte	0x0
	.byte	0x44
	.byte	0x1
	.set L$set$972,LASF368-Lsection__debug_str
	.long L$set$972
	.byte	0x28
	.word	0x452
	.set L$set$973,LASF375-Lsection__debug_str
	.long L$set$973
	.long	0x26c4
	.byte	0x1
	.long	0x50a9
	.byte	0x1b
	.long	0x59af
	.byte	0x1
	.byte	0x22
	.long	0x26c4
	.byte	0x22
	.long	0xb17
	.byte	0x0
	.byte	0x44
	.byte	0x1
	.set L$set$974,LASF376-Lsection__debug_str
	.long L$set$974
	.byte	0x28
	.word	0x46a
	.set L$set$975,LASF377-Lsection__debug_str
	.long L$set$975
	.long	0x59c7
	.byte	0x1
	.long	0x50d0
	.byte	0x1b
	.long	0x59af
	.byte	0x1
	.byte	0x22
	.long	0xb63
	.byte	0x22
	.long	0xb63
	.byte	0x0
	.byte	0x44
	.byte	0x1
	.set L$set$976,LASF376-Lsection__debug_str
	.long L$set$976
	.byte	0x28
	.word	0x47a
	.set L$set$977,LASF378-Lsection__debug_str
	.long L$set$977
	.long	0x26c4
	.byte	0x1
	.long	0x50f2
	.byte	0x1b
	.long	0x59af
	.byte	0x1
	.byte	0x22
	.long	0x26c4
	.byte	0x0
	.byte	0x44
	.byte	0x1
	.set L$set$978,LASF376-Lsection__debug_str
	.long L$set$978
	.byte	0x28
	.word	0x48e
	.set L$set$979,LASF379-Lsection__debug_str
	.long L$set$979
	.long	0x26c4
	.byte	0x1
	.long	0x5119
	.byte	0x1b
	.long	0x59af
	.byte	0x1
	.byte	0x22
	.long	0x26c4
	.byte	0x22
	.long	0x26c4
	.byte	0x0
	.byte	0x44
	.byte	0x1
	.set L$set$980,LASF380-Lsection__debug_str
	.long L$set$980
	.byte	0x28
	.word	0x4a9
	.set L$set$981,LASF381-Lsection__debug_str
	.long L$set$981
	.long	0x59c7
	.byte	0x1
	.long	0x5145
	.byte	0x1b
	.long	0x59af
	.byte	0x1
	.byte	0x22
	.long	0xb63
	.byte	0x22
	.long	0xb63
	.byte	0x22
	.long	0x59c1
	.byte	0x0
	.byte	0x44
	.byte	0x1
	.set L$set$982,LASF380-Lsection__debug_str
	.long L$set$982
	.byte	0x28
	.word	0x4c0
	.set L$set$983,LASF382-Lsection__debug_str
	.long L$set$983
	.long	0x59c7
	.byte	0x1
	.long	0x517b
	.byte	0x1b
	.long	0x59af
	.byte	0x1
	.byte	0x22
	.long	0xb63
	.byte	0x22
	.long	0xb63
	.byte	0x22
	.long	0x59c1
	.byte	0x22
	.long	0xb63
	.byte	0x22
	.long	0xb63
	.byte	0x0
	.byte	0x44
	.byte	0x1
	.set L$set$984,LASF380-Lsection__debug_str
	.long L$set$984
	.byte	0x3e
	.word	0x18d
	.set L$set$985,LASF383-Lsection__debug_str
	.long L$set$985
	.long	0x59c7
	.byte	0x1
	.long	0x51ac
	.byte	0x1b
	.long	0x59af
	.byte	0x1
	.byte	0x22
	.long	0xb63
	.byte	0x22
	.long	0xb63
	.byte	0x22
	.long	0x2b34
	.byte	0x22
	.long	0xb63
	.byte	0x0
	.byte	0x44
	.byte	0x1
	.set L$set$986,LASF380-Lsection__debug_str
	.long L$set$986
	.byte	0x28
	.word	0x4ea
	.set L$set$987,LASF384-Lsection__debug_str
	.long L$set$987
	.long	0x59c7
	.byte	0x1
	.long	0x51d8
	.byte	0x1b
	.long	0x59af
	.byte	0x1
	.byte	0x22
	.long	0xb63
	.byte	0x22
	.long	0xb63
	.byte	0x22
	.long	0x2b34
	.byte	0x0
	.byte	0x44
	.byte	0x1
	.set L$set$988,LASF380-Lsection__debug_str
	.long L$set$988
	.byte	0x28
	.word	0x501
	.set L$set$989,LASF385-Lsection__debug_str
	.long L$set$989
	.long	0x59c7
	.byte	0x1
	.long	0x5209
	.byte	0x1b
	.long	0x59af
	.byte	0x1
	.byte	0x22
	.long	0xb63
	.byte	0x22
	.long	0xb63
	.byte	0x22
	.long	0xb63
	.byte	0x22
	.long	0xb17
	.byte	0x0
	.byte	0x44
	.byte	0x1
	.set L$set$990,LASF380-Lsection__debug_str
	.long L$set$990
	.byte	0x28
	.word	0x513
	.set L$set$991,LASF386-Lsection__debug_str
	.long L$set$991
	.long	0x59c7
	.byte	0x1
	.long	0x5235
	.byte	0x1b
	.long	0x59af
	.byte	0x1
	.byte	0x22
	.long	0x26c4
	.byte	0x22
	.long	0x26c4
	.byte	0x22
	.long	0x59c1
	.byte	0x0
	.byte	0x44
	.byte	0x1
	.set L$set$992,LASF380-Lsection__debug_str
	.long L$set$992
	.byte	0x28
	.word	0x525
	.set L$set$993,LASF387-Lsection__debug_str
	.long L$set$993
	.long	0x59c7
	.byte	0x1
	.long	0x5266
	.byte	0x1b
	.long	0x59af
	.byte	0x1
	.byte	0x22
	.long	0x26c4
	.byte	0x22
	.long	0x26c4
	.byte	0x22
	.long	0x2b34
	.byte	0x22
	.long	0xb63
	.byte	0x0
	.byte	0x44
	.byte	0x1
	.set L$set$994,LASF380-Lsection__debug_str
	.long L$set$994
	.byte	0x28
	.word	0x53a
	.set L$set$995,LASF388-Lsection__debug_str
	.long L$set$995
	.long	0x59c7
	.byte	0x1
	.long	0x5292
	.byte	0x1b
	.long	0x59af
	.byte	0x1
	.byte	0x22
	.long	0x26c4
	.byte	0x22
	.long	0x26c4
	.byte	0x22
	.long	0x2b34
	.byte	0x0
	.byte	0x44
	.byte	0x1
	.set L$set$996,LASF380-Lsection__debug_str
	.long L$set$996
	.byte	0x28
	.word	0x54f
	.set L$set$997,LASF389-Lsection__debug_str
	.long L$set$997
	.long	0x59c7
	.byte	0x1
	.long	0x52c3
	.byte	0x1b
	.long	0x59af
	.byte	0x1
	.byte	0x22
	.long	0x26c4
	.byte	0x22
	.long	0x26c4
	.byte	0x22
	.long	0xb63
	.byte	0x22
	.long	0xb17
	.byte	0x0
	.byte	0x44
	.byte	0x1
	.set L$set$998,LASF380-Lsection__debug_str
	.long L$set$998
	.byte	0x28
	.word	0x573
	.set L$set$999,LASF390-Lsection__debug_str
	.long L$set$999
	.long	0x59c7
	.byte	0x1
	.long	0x52f4
	.byte	0x1b
	.long	0x59af
	.byte	0x1
	.byte	0x22
	.long	0x26c4
	.byte	0x22
	.long	0x26c4
	.byte	0x22
	.long	0xde7
	.byte	0x22
	.long	0xde7
	.byte	0x0
	.byte	0x44
	.byte	0x1
	.set L$set$1000,LASF380-Lsection__debug_str
	.long L$set$1000
	.byte	0x28
	.word	0x57e
	.set L$set$1001,LASF391-Lsection__debug_str
	.long L$set$1001
	.long	0x59c7
	.byte	0x1
	.long	0x5325
	.byte	0x1b
	.long	0x59af
	.byte	0x1
	.byte	0x22
	.long	0x26c4
	.byte	0x22
	.long	0x26c4
	.byte	0x22
	.long	0x2b34
	.byte	0x22
	.long	0x2b34
	.byte	0x0
	.byte	0x44
	.byte	0x1
	.set L$set$1002,LASF380-Lsection__debug_str
	.long L$set$1002
	.byte	0x28
	.word	0x588
	.set L$set$1003,LASF392-Lsection__debug_str
	.long L$set$1003
	.long	0x59c7
	.byte	0x1
	.long	0x5356
	.byte	0x1b
	.long	0x59af
	.byte	0x1
	.byte	0x22
	.long	0x26c4
	.byte	0x22
	.long	0x26c4
	.byte	0x22
	.long	0x26c4
	.byte	0x22
	.long	0x26c4
	.byte	0x0
	.byte	0x44
	.byte	0x1
	.set L$set$1004,LASF380-Lsection__debug_str
	.long L$set$1004
	.byte	0x28
	.word	0x593
	.set L$set$1005,LASF393-Lsection__debug_str
	.long L$set$1005
	.long	0x59c7
	.byte	0x1
	.long	0x5387
	.byte	0x1b
	.long	0x59af
	.byte	0x1
	.byte	0x22
	.long	0x26c4
	.byte	0x22
	.long	0x26c4
	.byte	0x22
	.long	0x2727
	.byte	0x22
	.long	0x2727
	.byte	0x0
	.byte	0x4f
	.byte	0x1
	.set L$set$1006,LASF394-Lsection__debug_str
	.long L$set$1006
	.byte	0x3e
	.word	0x28b
	.set L$set$1007,LASF395-Lsection__debug_str
	.long L$set$1007
	.long	0x59c7
	.byte	0x3
	.byte	0x1
	.long	0x53b9
	.byte	0x1b
	.long	0x59af
	.byte	0x1
	.byte	0x22
	.long	0xb63
	.byte	0x22
	.long	0xb63
	.byte	0x22
	.long	0xb63
	.byte	0x22
	.long	0xb17
	.byte	0x0
	.byte	0x4f
	.byte	0x1
	.set L$set$1008,LASF396-Lsection__debug_str
	.long L$set$1008
	.byte	0x3e
	.word	0x298
	.set L$set$1009,LASF397-Lsection__debug_str
	.long L$set$1009
	.long	0x59c7
	.byte	0x3
	.byte	0x1
	.long	0x53eb
	.byte	0x1b
	.long	0x59af
	.byte	0x1
	.byte	0x22
	.long	0xb63
	.byte	0x22
	.long	0xb63
	.byte	0x22
	.long	0x2b34
	.byte	0x22
	.long	0xb63
	.byte	0x0
	.byte	0x52
	.byte	0x1
	.set L$set$1010,LASF398-Lsection__debug_str
	.long L$set$1010
	.byte	0x3e
	.byte	0xa6
	.set L$set$1011,LASF1361-Lsection__debug_str
	.long L$set$1011
	.long	0xde7
	.byte	0x3
	.byte	0x1
	.long	0x5411
	.byte	0x22
	.long	0xb63
	.byte	0x22
	.long	0xb17
	.byte	0x22
	.long	0x4671
	.byte	0x0
	.byte	0x44
	.byte	0x1
	.set L$set$1012,LASF245-Lsection__debug_str
	.long L$set$1012
	.byte	0x3e
	.word	0x2c1
	.set L$set$1013,LASF399-Lsection__debug_str
	.long L$set$1013
	.long	0xcf9
	.byte	0x1
	.long	0x543d
	.byte	0x1b
	.long	0x59a4
	.byte	0x1
	.byte	0x22
	.long	0xde7
	.byte	0x22
	.long	0xb63
	.byte	0x22
	.long	0xb63
	.byte	0x0
	.byte	0x37
	.byte	0x1
	.set L$set$1014,LASF400-Lsection__debug_str
	.long L$set$1014
	.byte	0x3e
	.word	0x1f5
	.set L$set$1015,LASF401-Lsection__debug_str
	.long L$set$1015
	.byte	0x1
	.long	0x545b
	.byte	0x1b
	.long	0x59af
	.byte	0x1
	.byte	0x22
	.long	0x59c7
	.byte	0x0
	.byte	0x44
	.byte	0x1
	.set L$set$1016,LASF402-Lsection__debug_str
	.long L$set$1016
	.byte	0x28
	.word	0x5fc
	.set L$set$1017,LASF403-Lsection__debug_str
	.long L$set$1017
	.long	0x2b34
	.byte	0x1
	.long	0x5478
	.byte	0x1b
	.long	0x59a4
	.byte	0x1
	.byte	0x0
	.byte	0x44
	.byte	0x1
	.set L$set$1018,LASF404-Lsection__debug_str
	.long L$set$1018
	.byte	0x28
	.word	0x606
	.set L$set$1019,LASF405-Lsection__debug_str
	.long L$set$1019
	.long	0x2b34
	.byte	0x1
	.long	0x5495
	.byte	0x1b
	.long	0x59a4
	.byte	0x1
	.byte	0x0
	.byte	0x44
	.byte	0x1
	.set L$set$1020,LASF406-Lsection__debug_str
	.long L$set$1020
	.byte	0x28
	.word	0x60d
	.set L$set$1021,LASF407-Lsection__debug_str
	.long L$set$1021
	.long	0x4612
	.byte	0x1
	.long	0x54b2
	.byte	0x1b
	.long	0x59a4
	.byte	0x1
	.byte	0x0
	.byte	0x44
	.byte	0x1
	.set L$set$1022,LASF241-Lsection__debug_str
	.long L$set$1022
	.byte	0x3e
	.word	0x2cf
	.set L$set$1023,LASF408-Lsection__debug_str
	.long L$set$1023
	.long	0xcf9
	.byte	0x1
	.long	0x54de
	.byte	0x1b
	.long	0x59a4
	.byte	0x1
	.byte	0x22
	.long	0x2b34
	.byte	0x22
	.long	0xb63
	.byte	0x22
	.long	0xb63
	.byte	0x0
	.byte	0x44
	.byte	0x1
	.set L$set$1024,LASF241-Lsection__debug_str
	.long L$set$1024
	.byte	0x28
	.word	0x629
	.set L$set$1025,LASF409-Lsection__debug_str
	.long L$set$1025
	.long	0xcf9
	.byte	0x1
	.long	0x5505
	.byte	0x1b
	.long	0x59a4
	.byte	0x1
	.byte	0x22
	.long	0x59c1
	.byte	0x22
	.long	0xb63
	.byte	0x0
	.byte	0x44
	.byte	0x1
	.set L$set$1026,LASF241-Lsection__debug_str
	.long L$set$1026
	.byte	0x28
	.word	0x637
	.set L$set$1027,LASF410-Lsection__debug_str
	.long L$set$1027
	.long	0xcf9
	.byte	0x1
	.long	0x552c
	.byte	0x1b
	.long	0x59a4
	.byte	0x1
	.byte	0x22
	.long	0x2b34
	.byte	0x22
	.long	0xb63
	.byte	0x0
	.byte	0x44
	.byte	0x1
	.set L$set$1028,LASF241-Lsection__debug_str
	.long L$set$1028
	.byte	0x3e
	.word	0x2e6
	.set L$set$1029,LASF411-Lsection__debug_str
	.long L$set$1029
	.long	0xcf9
	.byte	0x1
	.long	0x5553
	.byte	0x1b
	.long	0x59a4
	.byte	0x1
	.byte	0x22
	.long	0xb17
	.byte	0x22
	.long	0xb63
	.byte	0x0
	.byte	0x44
	.byte	0x1
	.set L$set$1030,LASF412-Lsection__debug_str
	.long L$set$1030
	.byte	0x28
	.word	0x655
	.set L$set$1031,LASF413-Lsection__debug_str
	.long L$set$1031
	.long	0xcf9
	.byte	0x1
	.long	0x557a
	.byte	0x1b
	.long	0x59a4
	.byte	0x1
	.byte	0x22
	.long	0x59c1
	.byte	0x22
	.long	0xb63
	.byte	0x0
	.byte	0x44
	.byte	0x1
	.set L$set$1032,LASF412-Lsection__debug_str
	.long L$set$1032
	.byte	0x3e
	.word	0x2f8
	.set L$set$1033,LASF414-Lsection__debug_str
	.long L$set$1033
	.long	0xcf9
	.byte	0x1
	.long	0x55a6
	.byte	0x1b
	.long	0x59a4
	.byte	0x1
	.byte	0x22
	.long	0x2b34
	.byte	0x22
	.long	0xb63
	.byte	0x22
	.long	0xb63
	.byte	0x0
	.byte	0x44
	.byte	0x1
	.set L$set$1034,LASF412-Lsection__debug_str
	.long L$set$1034
	.byte	0x28
	.word	0x671
	.set L$set$1035,LASF415-Lsection__debug_str
	.long L$set$1035
	.long	0xcf9
	.byte	0x1
	.long	0x55cd
	.byte	0x1b
	.long	0x59a4
	.byte	0x1
	.byte	0x22
	.long	0x2b34
	.byte	0x22
	.long	0xb63
	.byte	0x0
	.byte	0x44
	.byte	0x1
	.set L$set$1036,LASF412-Lsection__debug_str
	.long L$set$1036
	.byte	0x3e
	.word	0x30d
	.set L$set$1037,LASF416-Lsection__debug_str
	.long L$set$1037
	.long	0xcf9
	.byte	0x1
	.long	0x55f4
	.byte	0x1b
	.long	0x59a4
	.byte	0x1
	.byte	0x22
	.long	0xb17
	.byte	0x22
	.long	0xb63
	.byte	0x0
	.byte	0x44
	.byte	0x1
	.set L$set$1038,LASF417-Lsection__debug_str
	.long L$set$1038
	.byte	0x28
	.word	0x68f
	.set L$set$1039,LASF418-Lsection__debug_str
	.long L$set$1039
	.long	0xcf9
	.byte	0x1
	.long	0x561b
	.byte	0x1b
	.long	0x59a4
	.byte	0x1
	.byte	0x22
	.long	0x59c1
	.byte	0x22
	.long	0xb63
	.byte	0x0
	.byte	0x44
	.byte	0x1
	.set L$set$1040,LASF417-Lsection__debug_str
	.long L$set$1040
	.byte	0x3e
	.word	0x31e
	.set L$set$1041,LASF419-Lsection__debug_str
	.long L$set$1041
	.long	0xcf9
	.byte	0x1
	.long	0x5647
	.byte	0x1b
	.long	0x59a4
	.byte	0x1
	.byte	0x22
	.long	0x2b34
	.byte	0x22
	.long	0xb63
	.byte	0x22
	.long	0xb63
	.byte	0x0
	.byte	0x44
	.byte	0x1
	.set L$set$1042,LASF417-Lsection__debug_str
	.long L$set$1042
	.byte	0x28
	.word	0x6ab
	.set L$set$1043,LASF420-Lsection__debug_str
	.long L$set$1043
	.long	0xcf9
	.byte	0x1
	.long	0x566e
	.byte	0x1b
	.long	0x59a4
	.byte	0x1
	.byte	0x22
	.long	0x2b34
	.byte	0x22
	.long	0xb63
	.byte	0x0
	.byte	0x44
	.byte	0x1
	.set L$set$1044,LASF417-Lsection__debug_str
	.long L$set$1044
	.byte	0x28
	.word	0x6be
	.set L$set$1045,LASF421-Lsection__debug_str
	.long L$set$1045
	.long	0xcf9
	.byte	0x1
	.long	0x5695
	.byte	0x1b
	.long	0x59a4
	.byte	0x1
	.byte	0x22
	.long	0xb17
	.byte	0x22
	.long	0xb63
	.byte	0x0
	.byte	0x44
	.byte	0x1
	.set L$set$1046,LASF422-Lsection__debug_str
	.long L$set$1046
	.byte	0x28
	.word	0x6cc
	.set L$set$1047,LASF423-Lsection__debug_str
	.long L$set$1047
	.long	0xcf9
	.byte	0x1
	.long	0x56bc
	.byte	0x1b
	.long	0x59a4
	.byte	0x1
	.byte	0x22
	.long	0x59c1
	.byte	0x22
	.long	0xb63
	.byte	0x0
	.byte	0x44
	.byte	0x1
	.set L$set$1048,LASF422-Lsection__debug_str
	.long L$set$1048
	.byte	0x3e
	.word	0x32d
	.set L$set$1049,LASF424-Lsection__debug_str
	.long L$set$1049
	.long	0xcf9
	.byte	0x1
	.long	0x56e8
	.byte	0x1b
	.long	0x59a4
	.byte	0x1
	.byte	0x22
	.long	0x2b34
	.byte	0x22
	.long	0xb63
	.byte	0x22
	.long	0xb63
	.byte	0x0
	.byte	0x44
	.byte	0x1
	.set L$set$1050,LASF422-Lsection__debug_str
	.long L$set$1050
	.byte	0x28
	.word	0x6e8
	.set L$set$1051,LASF425-Lsection__debug_str
	.long L$set$1051
	.long	0xcf9
	.byte	0x1
	.long	0x570f
	.byte	0x1b
	.long	0x59a4
	.byte	0x1
	.byte	0x22
	.long	0x2b34
	.byte	0x22
	.long	0xb63
	.byte	0x0
	.byte	0x44
	.byte	0x1
	.set L$set$1052,LASF422-Lsection__debug_str
	.long L$set$1052
	.byte	0x28
	.word	0x6fb
	.set L$set$1053,LASF426-Lsection__debug_str
	.long L$set$1053
	.long	0xcf9
	.byte	0x1
	.long	0x5736
	.byte	0x1b
	.long	0x59a4
	.byte	0x1
	.byte	0x22
	.long	0xb17
	.byte	0x22
	.long	0xb63
	.byte	0x0
	.byte	0x44
	.byte	0x1
	.set L$set$1054,LASF427-Lsection__debug_str
	.long L$set$1054
	.byte	0x28
	.word	0x709
	.set L$set$1055,LASF428-Lsection__debug_str
	.long L$set$1055
	.long	0xcf9
	.byte	0x1
	.long	0x575d
	.byte	0x1b
	.long	0x59a4
	.byte	0x1
	.byte	0x22
	.long	0x59c1
	.byte	0x22
	.long	0xb63
	.byte	0x0
	.byte	0x44
	.byte	0x1
	.set L$set$1056,LASF427-Lsection__debug_str
	.long L$set$1056
	.byte	0x3e
	.word	0x342
	.set L$set$1057,LASF429-Lsection__debug_str
	.long L$set$1057
	.long	0xcf9
	.byte	0x1
	.long	0x5789
	.byte	0x1b
	.long	0x59a4
	.byte	0x1
	.byte	0x22
	.long	0x2b34
	.byte	0x22
	.long	0xb63
	.byte	0x22
	.long	0xb63
	.byte	0x0
	.byte	0x44
	.byte	0x1
	.set L$set$1058,LASF427-Lsection__debug_str
	.long L$set$1058
	.byte	0x28
	.word	0x726
	.set L$set$1059,LASF430-Lsection__debug_str
	.long L$set$1059
	.long	0xcf9
	.byte	0x1
	.long	0x57b0
	.byte	0x1b
	.long	0x59a4
	.byte	0x1
	.byte	0x22
	.long	0x2b34
	.byte	0x22
	.long	0xb63
	.byte	0x0
	.byte	0x44
	.byte	0x1
	.set L$set$1060,LASF427-Lsection__debug_str
	.long L$set$1060
	.byte	0x3e
	.word	0x34e
	.set L$set$1061,LASF431-Lsection__debug_str
	.long L$set$1061
	.long	0xcf9
	.byte	0x1
	.long	0x57d7
	.byte	0x1b
	.long	0x59a4
	.byte	0x1
	.byte	0x22
	.long	0xb17
	.byte	0x22
	.long	0xb63
	.byte	0x0
	.byte	0x44
	.byte	0x1
	.set L$set$1062,LASF432-Lsection__debug_str
	.long L$set$1062
	.byte	0x28
	.word	0x744
	.set L$set$1063,LASF433-Lsection__debug_str
	.long L$set$1063
	.long	0xcf9
	.byte	0x1
	.long	0x57fe
	.byte	0x1b
	.long	0x59a4
	.byte	0x1
	.byte	0x22
	.long	0x59c1
	.byte	0x22
	.long	0xb63
	.byte	0x0
	.byte	0x44
	.byte	0x1
	.set L$set$1064,LASF432-Lsection__debug_str
	.long L$set$1064
	.byte	0x3e
	.word	0x359
	.set L$set$1065,LASF434-Lsection__debug_str
	.long L$set$1065
	.long	0xcf9
	.byte	0x1
	.long	0x582a
	.byte	0x1b
	.long	0x59a4
	.byte	0x1
	.byte	0x22
	.long	0x2b34
	.byte	0x22
	.long	0xb63
	.byte	0x22
	.long	0xb63
	.byte	0x0
	.byte	0x44
	.byte	0x1
	.set L$set$1066,LASF432-Lsection__debug_str
	.long L$set$1066
	.byte	0x28
	.word	0x761
	.set L$set$1067,LASF435-Lsection__debug_str
	.long L$set$1067
	.long	0xcf9
	.byte	0x1
	.long	0x5851
	.byte	0x1b
	.long	0x59a4
	.byte	0x1
	.byte	0x22
	.long	0x2b34
	.byte	0x22
	.long	0xb63
	.byte	0x0
	.byte	0x44
	.byte	0x1
	.set L$set$1068,LASF432-Lsection__debug_str
	.long L$set$1068
	.byte	0x3e
	.word	0x36e
	.set L$set$1069,LASF436-Lsection__debug_str
	.long L$set$1069
	.long	0xcf9
	.byte	0x1
	.long	0x5878
	.byte	0x1b
	.long	0x59a4
	.byte	0x1
	.byte	0x22
	.long	0xb17
	.byte	0x22
	.long	0xb63
	.byte	0x0
	.byte	0x44
	.byte	0x1
	.set L$set$1070,LASF437-Lsection__debug_str
	.long L$set$1070
	.byte	0x28
	.word	0x781
	.set L$set$1071,LASF438-Lsection__debug_str
	.long L$set$1071
	.long	0x468c
	.byte	0x1
	.long	0x589f
	.byte	0x1b
	.long	0x59a4
	.byte	0x1
	.byte	0x22
	.long	0xb63
	.byte	0x22
	.long	0xb63
	.byte	0x0
	.byte	0x44
	.byte	0x1
	.set L$set$1072,LASF237-Lsection__debug_str
	.long L$set$1072
	.byte	0x28
	.word	0x793
	.set L$set$1073,LASF439-Lsection__debug_str
	.long L$set$1073
	.long	0xa20
	.byte	0x1
	.long	0x58c1
	.byte	0x1b
	.long	0x59a4
	.byte	0x1
	.byte	0x22
	.long	0x59c1
	.byte	0x0
	.byte	0x44
	.byte	0x1
	.set L$set$1074,LASF237-Lsection__debug_str
	.long L$set$1074
	.byte	0x3e
	.word	0x382
	.set L$set$1075,LASF440-Lsection__debug_str
	.long L$set$1075
	.long	0xa20
	.byte	0x1
	.long	0x58ed
	.byte	0x1b
	.long	0x59a4
	.byte	0x1
	.byte	0x22
	.long	0xb63
	.byte	0x22
	.long	0xb63
	.byte	0x22
	.long	0x59c1
	.byte	0x0
	.byte	0x44
	.byte	0x1
	.set L$set$1076,LASF237-Lsection__debug_str
	.long L$set$1076
	.byte	0x3e
	.word	0x392
	.set L$set$1077,LASF441-Lsection__debug_str
	.long L$set$1077
	.long	0xa20
	.byte	0x1
	.long	0x5923
	.byte	0x1b
	.long	0x59a4
	.byte	0x1
	.byte	0x22
	.long	0xb63
	.byte	0x22
	.long	0xb63
	.byte	0x22
	.long	0x59c1
	.byte	0x22
	.long	0xb63
	.byte	0x22
	.long	0xb63
	.byte	0x0
	.byte	0x44
	.byte	0x1
	.set L$set$1078,LASF237-Lsection__debug_str
	.long L$set$1078
	.byte	0x3e
	.word	0x3a3
	.set L$set$1079,LASF442-Lsection__debug_str
	.long L$set$1079
	.long	0xa20
	.byte	0x1
	.long	0x5945
	.byte	0x1b
	.long	0x59a4
	.byte	0x1
	.byte	0x22
	.long	0x2b34
	.byte	0x0
	.byte	0x44
	.byte	0x1
	.set L$set$1080,LASF237-Lsection__debug_str
	.long L$set$1080
	.byte	0x3e
	.word	0x3b2
	.set L$set$1081,LASF443-Lsection__debug_str
	.long L$set$1081
	.long	0xa20
	.byte	0x1
	.long	0x5971
	.byte	0x1b
	.long	0x59a4
	.byte	0x1
	.byte	0x22
	.long	0xb63
	.byte	0x22
	.long	0xb63
	.byte	0x22
	.long	0x2b34
	.byte	0x0
	.byte	0x38
	.byte	0x1
	.set L$set$1082,LASF237-Lsection__debug_str
	.long L$set$1082
	.byte	0x3e
	.word	0x3c3
	.set L$set$1083,LASF444-Lsection__debug_str
	.long L$set$1083
	.long	0xa20
	.byte	0x1
	.byte	0x1b
	.long	0x59a4
	.byte	0x1
	.byte	0x22
	.long	0xb63
	.byte	0x22
	.long	0xb63
	.byte	0x22
	.long	0x2b34
	.byte	0x22
	.long	0xb63
	.byte	0x0
	.byte	0x0
	.byte	0x20
	.long	0xcf9
	.byte	0x1f
	.byte	0x4
	.long	0x59aa
	.byte	0x20
	.long	0x468c
	.byte	0x1f
	.byte	0x4
	.long	0x468c
	.byte	0x1f
	.byte	0x4
	.long	0x46cf
	.byte	0x24
	.byte	0x4
	.long	0x46cf
	.byte	0x24
	.byte	0x4
	.long	0x59aa
	.byte	0x24
	.byte	0x4
	.long	0x468c
	.byte	0x19
	.long	0x46c3
	.byte	0xc
	.byte	0x28
	.byte	0x94
	.long	0x5a12
	.byte	0xf
	.ascii "_M_length\0"
	.byte	0x28
	.byte	0x95
	.long	0xcf9
	.byte	0x2
	.byte	0x23
	.byte	0x0
	.byte	0xf
	.ascii "_M_capacity\0"
	.byte	0x28
	.byte	0x96
	.long	0xcf9
	.byte	0x2
	.byte	0x23
	.byte	0x4
	.byte	0x10
	.set L$set$1084,LASF32-Lsection__debug_str
	.long L$set$1084
	.byte	0x28
	.byte	0x97
	.long	0x44a4
	.byte	0x2
	.byte	0x23
	.byte	0x8
	.byte	0x0
	.byte	0x19
	.long	0x46cf
	.byte	0xc
	.byte	0x28
	.byte	0x9b
	.long	0x5bd3
	.byte	0x32
	.long	0x59cd
	.byte	0x2
	.byte	0x23
	.byte	0x0
	.byte	0x1
	.byte	0x53
	.set L$set$1085,LASF445-Lsection__debug_str
	.long L$set$1085
	.byte	0x3e
	.byte	0x40
	.set L$set$1086,LASF447-Lsection__debug_str
	.long L$set$1086
	.long	0x599f
	.byte	0x1
	.byte	0x1
	.byte	0x53
	.set L$set$1087,LASF446-Lsection__debug_str
	.long L$set$1087
	.byte	0x3e
	.byte	0x45
	.set L$set$1088,LASF448-Lsection__debug_str
	.long L$set$1088
	.long	0x2b3a
	.byte	0x1
	.byte	0x1
	.byte	0x53
	.set L$set$1089,LASF449-Lsection__debug_str
	.long L$set$1089
	.byte	0x3e
	.byte	0x51
	.set L$set$1090,LASF450-Lsection__debug_str
	.long L$set$1090
	.long	0x5bd3
	.byte	0x1
	.byte	0x1
	.byte	0x48
	.byte	0x1
	.set L$set$1091,LASF451-Lsection__debug_str
	.long L$set$1091
	.byte	0x28
	.byte	0xb4
	.set L$set$1092,LASF453-Lsection__debug_str
	.long L$set$1092
	.long	0x59bb
	.byte	0x1
	.byte	0x1c
	.byte	0x1
	.set L$set$1093,LASF454-Lsection__debug_str
	.long L$set$1093
	.byte	0x28
	.byte	0xbe
	.set L$set$1094,LASF455-Lsection__debug_str
	.long L$set$1094
	.long	0xe2a
	.byte	0x1
	.long	0x5a87
	.byte	0x1b
	.long	0x5be3
	.byte	0x1
	.byte	0x0
	.byte	0x1c
	.byte	0x1
	.set L$set$1095,LASF456-Lsection__debug_str
	.long L$set$1095
	.byte	0x28
	.byte	0xc2
	.set L$set$1096,LASF457-Lsection__debug_str
	.long L$set$1096
	.long	0xe2a
	.byte	0x1
	.long	0x5aa3
	.byte	0x1b
	.long	0x5be3
	.byte	0x1
	.byte	0x0
	.byte	0x4b
	.byte	0x1
	.set L$set$1097,LASF458-Lsection__debug_str
	.long L$set$1097
	.byte	0x28
	.byte	0xc6
	.set L$set$1098,LASF459-Lsection__debug_str
	.long L$set$1098
	.byte	0x1
	.long	0x5abb
	.byte	0x1b
	.long	0x59b5
	.byte	0x1
	.byte	0x0
	.byte	0x4b
	.byte	0x1
	.set L$set$1099,LASF460-Lsection__debug_str
	.long L$set$1099
	.byte	0x28
	.byte	0xca
	.set L$set$1100,LASF461-Lsection__debug_str
	.long L$set$1100
	.byte	0x1
	.long	0x5ad3
	.byte	0x1b
	.long	0x59b5
	.byte	0x1
	.byte	0x0
	.byte	0x4b
	.byte	0x1
	.set L$set$1101,LASF462-Lsection__debug_str
	.long L$set$1101
	.byte	0x28
	.byte	0xce
	.set L$set$1102,LASF463-Lsection__debug_str
	.long L$set$1102
	.byte	0x1
	.long	0x5af0
	.byte	0x1b
	.long	0x59b5
	.byte	0x1
	.byte	0x22
	.long	0xb63
	.byte	0x0
	.byte	0x1c
	.byte	0x1
	.set L$set$1103,LASF464-Lsection__debug_str
	.long L$set$1103
	.byte	0x28
	.byte	0xd8
	.set L$set$1104,LASF465-Lsection__debug_str
	.long L$set$1104
	.long	0xde7
	.byte	0x1
	.long	0x5b0c
	.byte	0x1b
	.long	0x59b5
	.byte	0x1
	.byte	0x0
	.byte	0x1c
	.byte	0x1
	.set L$set$1105,LASF466-Lsection__debug_str
	.long L$set$1105
	.byte	0x28
	.byte	0xdc
	.set L$set$1106,LASF467-Lsection__debug_str
	.long L$set$1106
	.long	0xde7
	.byte	0x1
	.long	0x5b32
	.byte	0x1b
	.long	0x59b5
	.byte	0x1
	.byte	0x22
	.long	0x4671
	.byte	0x22
	.long	0x4671
	.byte	0x0
	.byte	0x44
	.byte	0x1
	.set L$set$1107,LASF468-Lsection__debug_str
	.long L$set$1107
	.byte	0x3e
	.word	0x211
	.set L$set$1108,LASF469-Lsection__debug_str
	.long L$set$1108
	.long	0x59b5
	.byte	0x1
	.long	0x5b58
	.byte	0x22
	.long	0xb63
	.byte	0x22
	.long	0xb63
	.byte	0x22
	.long	0x4671
	.byte	0x0
	.byte	0x4b
	.byte	0x1
	.set L$set$1109,LASF470-Lsection__debug_str
	.long L$set$1109
	.byte	0x28
	.byte	0xe7
	.set L$set$1110,LASF471-Lsection__debug_str
	.long L$set$1110
	.byte	0x1
	.long	0x5b75
	.byte	0x1b
	.long	0x59b5
	.byte	0x1
	.byte	0x22
	.long	0x4671
	.byte	0x0
	.byte	0x37
	.byte	0x1
	.set L$set$1111,LASF472-Lsection__debug_str
	.long L$set$1111
	.byte	0x3e
	.word	0x1ab
	.set L$set$1112,LASF473-Lsection__debug_str
	.long L$set$1112
	.byte	0x1
	.long	0x5b93
	.byte	0x1b
	.long	0x59b5
	.byte	0x1
	.byte	0x22
	.long	0x4671
	.byte	0x0
	.byte	0x1c
	.byte	0x1
	.set L$set$1113,LASF474-Lsection__debug_str
	.long L$set$1113
	.byte	0x28
	.byte	0xf5
	.set L$set$1114,LASF475-Lsection__debug_str
	.long L$set$1114
	.long	0xde7
	.byte	0x1
	.long	0x5baf
	.byte	0x1b
	.long	0x59b5
	.byte	0x1
	.byte	0x0
	.byte	0x38
	.byte	0x1
	.set L$set$1115,LASF476-Lsection__debug_str
	.long L$set$1115
	.byte	0x3e
	.word	0x25e
	.set L$set$1116,LASF477-Lsection__debug_str
	.long L$set$1116
	.long	0xde7
	.byte	0x1
	.byte	0x1b
	.long	0x59b5
	.byte	0x1
	.byte	0x22
	.long	0x4671
	.byte	0x22
	.long	0xb63
	.byte	0x0
	.byte	0x0
	.byte	0x27
	.long	0xcf9
	.long	0x5be3
	.byte	0x28
	.long	0xb14
	.byte	0x3
	.byte	0x0
	.byte	0x1f
	.byte	0x4
	.long	0x5be9
	.byte	0x20
	.long	0x5a12
	.byte	0x19
	.long	0x1525
	.byte	0x4
	.byte	0x3f
	.byte	0x43
	.long	0x5f44
	.byte	0x54
	.ascii "none\0"
	.byte	0x3f
	.byte	0x68
	.ascii "_ZNSt6locale4noneE\0"
	.long	0x449f
	.byte	0x1
	.byte	0x1
	.byte	0x0
	.byte	0x55
	.set L$set$1117,LASF478-Lsection__debug_str
	.long L$set$1117
	.byte	0x3f
	.byte	0x69
	.set L$set$1118,LASF481-Lsection__debug_str
	.long L$set$1118
	.long	0x449f
	.byte	0x1
	.byte	0x1
	.byte	0x1
	.byte	0x56
	.ascii "numeric\0"
	.byte	0x3f
	.byte	0x6a
	.set L$set$1119,LASF479-Lsection__debug_str
	.long L$set$1119
	.long	0x449f
	.byte	0x1
	.byte	0x1
	.byte	0x2
	.byte	0x55
	.set L$set$1120,LASF480-Lsection__debug_str
	.long L$set$1120
	.byte	0x3f
	.byte	0x6b
	.set L$set$1121,LASF482-Lsection__debug_str
	.long L$set$1121
	.long	0x449f
	.byte	0x1
	.byte	0x1
	.byte	0x4
	.byte	0x55
	.set L$set$1122,LASF133-Lsection__debug_str
	.long L$set$1122
	.byte	0x3f
	.byte	0x6c
	.set L$set$1123,LASF483-Lsection__debug_str
	.long L$set$1123
	.long	0x449f
	.byte	0x1
	.byte	0x1
	.byte	0x8
	.byte	0x55
	.set L$set$1124,LASF484-Lsection__debug_str
	.long L$set$1124
	.byte	0x3f
	.byte	0x6d
	.set L$set$1125,LASF485-Lsection__debug_str
	.long L$set$1125
	.long	0x449f
	.byte	0x1
	.byte	0x1
	.byte	0x10
	.byte	0x55
	.set L$set$1126,LASF486-Lsection__debug_str
	.long L$set$1126
	.byte	0x3f
	.byte	0x6e
	.set L$set$1127,LASF487-Lsection__debug_str
	.long L$set$1127
	.long	0x449f
	.byte	0x1
	.byte	0x1
	.byte	0x20
	.byte	0x54
	.ascii "all\0"
	.byte	0x3f
	.byte	0x70
	.ascii "_ZNSt6locale3allE\0"
	.long	0x449f
	.byte	0x1
	.byte	0x1
	.byte	0x3f
	.byte	0x3
	.set L$set$1128,LASF488-Lsection__debug_str
	.long L$set$1128
	.byte	0x1
	.byte	0x57
	.set L$set$1129,LASF489-Lsection__debug_str
	.long L$set$1129
	.byte	0x3f
	.word	0x11d
	.long	0x5f44
	.byte	0x2
	.byte	0x23
	.byte	0x0
	.byte	0x3
	.byte	0x3a
	.ascii "_S_classic\0"
	.byte	0x3f
	.word	0x120
	.ascii "_ZNSt6locale10_S_classicE\0"
	.long	0x5f44
	.byte	0x1
	.byte	0x3
	.byte	0x1
	.byte	0x3a
	.ascii "_S_global\0"
	.byte	0x3f
	.word	0x123
	.ascii "_ZNSt6locale9_S_globalE\0"
	.long	0x5f44
	.byte	0x1
	.byte	0x3
	.byte	0x1
	.byte	0x58
	.set L$set$1130,LASF490-Lsection__debug_str
	.long L$set$1130
	.byte	0x3f
	.word	0x129
	.set L$set$1131,LASF491-Lsection__debug_str
	.long L$set$1131
	.long	0x5f4a
	.byte	0x1
	.byte	0x3
	.byte	0x1
	.byte	0x3a
	.ascii "_S_once\0"
	.byte	0x3f
	.word	0x138
	.ascii "_ZNSt6locale7_S_onceE\0"
	.long	0x31aa
	.byte	0x1
	.byte	0x3
	.byte	0x1
	.byte	0x3
	.set L$set$1132,LASF492-Lsection__debug_str
	.long L$set$1132
	.byte	0x1
	.byte	0x3
	.set L$set$1133,LASF493-Lsection__debug_str
	.long L$set$1133
	.byte	0x1
	.byte	0x6
	.byte	0x1
	.set L$set$1134,LASF26-Lsection__debug_str
	.long L$set$1134
	.byte	0x3f
	.byte	0x7b
	.byte	0x1
	.long	0x5d7b
	.byte	0x1b
	.long	0x5f5a
	.byte	0x1
	.byte	0x0
	.byte	0x6
	.byte	0x1
	.set L$set$1135,LASF26-Lsection__debug_str
	.long L$set$1135
	.byte	0x3f
	.byte	0x84
	.byte	0x1
	.long	0x5d94
	.byte	0x1b
	.long	0x5f5a
	.byte	0x1
	.byte	0x22
	.long	0x5f60
	.byte	0x0
	.byte	0x6
	.byte	0x1
	.set L$set$1136,LASF26-Lsection__debug_str
	.long L$set$1136
	.byte	0x3f
	.byte	0x8f
	.byte	0x1
	.long	0x5dad
	.byte	0x1b
	.long	0x5f5a
	.byte	0x1
	.byte	0x22
	.long	0x2b34
	.byte	0x0
	.byte	0x6
	.byte	0x1
	.set L$set$1137,LASF26-Lsection__debug_str
	.long L$set$1137
	.byte	0x3f
	.byte	0x9d
	.byte	0x1
	.long	0x5dd0
	.byte	0x1b
	.long	0x5f5a
	.byte	0x1
	.byte	0x22
	.long	0x5f60
	.byte	0x22
	.long	0x2b34
	.byte	0x22
	.long	0xa20
	.byte	0x0
	.byte	0x6
	.byte	0x1
	.set L$set$1138,LASF26-Lsection__debug_str
	.long L$set$1138
	.byte	0x3f
	.byte	0xaa
	.byte	0x1
	.long	0x5df3
	.byte	0x1b
	.long	0x5f5a
	.byte	0x1
	.byte	0x22
	.long	0x5f60
	.byte	0x22
	.long	0x5f60
	.byte	0x22
	.long	0xa20
	.byte	0x0
	.byte	0x6
	.byte	0x1
	.set L$set$1139,LASF494-Lsection__debug_str
	.long L$set$1139
	.byte	0x3f
	.byte	0xba
	.byte	0x1
	.long	0x5e0d
	.byte	0x1b
	.long	0x5f5a
	.byte	0x1
	.byte	0x1b
	.long	0xa20
	.byte	0x1
	.byte	0x0
	.byte	0x1c
	.byte	0x1
	.set L$set$1140,LASF22-Lsection__debug_str
	.long L$set$1140
	.byte	0x3f
	.byte	0xc5
	.set L$set$1141,LASF495-Lsection__debug_str
	.long L$set$1141
	.long	0x5f60
	.byte	0x1
	.long	0x5e2e
	.byte	0x1b
	.long	0x5f5a
	.byte	0x1
	.byte	0x22
	.long	0x5f60
	.byte	0x0
	.byte	0x7
	.ascii "string\0"
	.byte	0x3d
	.byte	0x3c
	.long	0x468c
	.byte	0x1c
	.byte	0x1
	.set L$set$1142,LASF496-Lsection__debug_str
	.long L$set$1142
	.byte	0x3f
	.byte	0xdd
	.set L$set$1143,LASF497-Lsection__debug_str
	.long L$set$1143
	.long	0x5e2e
	.byte	0x1
	.long	0x5e58
	.byte	0x1b
	.long	0x5f6b
	.byte	0x1
	.byte	0x0
	.byte	0x1c
	.byte	0x1
	.set L$set$1144,LASF498-Lsection__debug_str
	.long L$set$1144
	.byte	0x3f
	.byte	0xe7
	.set L$set$1145,LASF499-Lsection__debug_str
	.long L$set$1145
	.long	0xe2a
	.byte	0x1
	.long	0x5e79
	.byte	0x1b
	.long	0x5f6b
	.byte	0x1
	.byte	0x22
	.long	0x5f60
	.byte	0x0
	.byte	0x1c
	.byte	0x1
	.set L$set$1146,LASF500-Lsection__debug_str
	.long L$set$1146
	.byte	0x3f
	.byte	0xf0
	.set L$set$1147,LASF501-Lsection__debug_str
	.long L$set$1147
	.long	0xe2a
	.byte	0x1
	.long	0x5e9a
	.byte	0x1b
	.long	0x5f6b
	.byte	0x1
	.byte	0x22
	.long	0x5f60
	.byte	0x0
	.byte	0x44
	.byte	0x1
	.set L$set$1148,LASF502-Lsection__debug_str
	.long L$set$1148
	.byte	0x3f
	.word	0x113
	.set L$set$1149,LASF503-Lsection__debug_str
	.long L$set$1149
	.long	0x5bee
	.byte	0x1
	.long	0x5eb6
	.byte	0x22
	.long	0x5f60
	.byte	0x0
	.byte	0x4c
	.byte	0x1
	.set L$set$1150,LASF504-Lsection__debug_str
	.long L$set$1150
	.byte	0x3f
	.word	0x119
	.set L$set$1151,LASF506-Lsection__debug_str
	.long L$set$1151
	.long	0x5f60
	.byte	0x1
	.byte	0x59
	.byte	0x1
	.set L$set$1152,LASF26-Lsection__debug_str
	.long L$set$1152
	.byte	0x3f
	.word	0x13c
	.byte	0x3
	.byte	0x1
	.long	0x5ee3
	.byte	0x1b
	.long	0x5f5a
	.byte	0x1
	.byte	0x22
	.long	0x5f44
	.byte	0x0
	.byte	0x5a
	.byte	0x1
	.set L$set$1153,LASF507-Lsection__debug_str
	.long L$set$1153
	.byte	0x3f
	.word	0x13f
	.set L$set$1154,LASF508-Lsection__debug_str
	.long L$set$1154
	.byte	0x3
	.byte	0x1
	.byte	0x5a
	.byte	0x1
	.set L$set$1155,LASF509-Lsection__debug_str
	.long L$set$1155
	.byte	0x3f
	.word	0x142
	.set L$set$1156,LASF510-Lsection__debug_str
	.long L$set$1156
	.byte	0x3
	.byte	0x1
	.byte	0x4f
	.byte	0x1
	.set L$set$1157,LASF511-Lsection__debug_str
	.long L$set$1157
	.byte	0x3f
	.word	0x145
	.set L$set$1158,LASF512-Lsection__debug_str
	.long L$set$1158
	.long	0xa20
	.byte	0x3
	.byte	0x1
	.long	0x5f1e
	.byte	0x22
	.long	0xa20
	.byte	0x0
	.byte	0x5b
	.byte	0x1
	.set L$set$1159,LASF513-Lsection__debug_str
	.long L$set$1159
	.byte	0x3f
	.word	0x148
	.set L$set$1160,LASF514-Lsection__debug_str
	.long L$set$1160
	.byte	0x3
	.byte	0x1
	.byte	0x1b
	.long	0x5f5a
	.byte	0x1
	.byte	0x22
	.long	0x5f60
	.byte	0x22
	.long	0x5f60
	.byte	0x22
	.long	0xa20
	.byte	0x0
	.byte	0x0
	.byte	0x1f
	.byte	0x4
	.long	0x5cac
	.byte	0x20
	.long	0x5f4f
	.byte	0x1f
	.byte	0x4
	.long	0x5f55
	.byte	0x20
	.long	0x2b34
	.byte	0x1f
	.byte	0x4
	.long	0x5bee
	.byte	0x24
	.byte	0x4
	.long	0x5f66
	.byte	0x20
	.long	0x5bee
	.byte	0x1f
	.byte	0x4
	.long	0x5f66
	.byte	0x5c
	.long	0x5d5b
	.byte	0x8
	.byte	0x3f
	.word	0x157
	.long	0x5f71
	.long	0x616c
	.byte	0x5d
	.ascii "_vptr$facet\0"
	.long	0xe0e
	.byte	0x2
	.byte	0x23
	.byte	0x0
	.byte	0x1
	.byte	0x57
	.set L$set$1161,LASF32-Lsection__debug_str
	.long L$set$1161
	.byte	0x3f
	.word	0x15c
	.long	0x44a4
	.byte	0x2
	.byte	0x23
	.byte	0x4
	.byte	0x3
	.byte	0x7
	.ascii "__c_locale\0"
	.byte	0x40
	.byte	0x38
	.long	0x616c
	.byte	0x3a
	.ascii "_S_c_locale\0"
	.byte	0x3f
	.word	0x15f
	.ascii "_ZNSt6locale5facet11_S_c_localeE\0"
	.long	0x5fa7
	.byte	0x1
	.byte	0x3
	.byte	0x1
	.byte	0x58
	.set L$set$1162,LASF515-Lsection__debug_str
	.long L$set$1162
	.byte	0x3f
	.word	0x162
	.set L$set$1163,LASF516-Lsection__debug_str
	.long L$set$1163
	.long	0x6182
	.byte	0x1
	.byte	0x3
	.byte	0x1
	.byte	0x3a
	.ascii "_S_once\0"
	.byte	0x3f
	.word	0x165
	.ascii "_ZNSt6locale5facet7_S_onceE\0"
	.long	0x31aa
	.byte	0x1
	.byte	0x3
	.byte	0x1
	.byte	0x5a
	.byte	0x1
	.set L$set$1164,LASF509-Lsection__debug_str
	.long L$set$1164
	.byte	0x3f
	.word	0x169
	.set L$set$1165,LASF517-Lsection__debug_str
	.long L$set$1165
	.byte	0x3
	.byte	0x1
	.byte	0x59
	.byte	0x1
	.set L$set$1166,LASF492-Lsection__debug_str
	.long L$set$1166
	.byte	0x3f
	.word	0x176
	.byte	0x2
	.byte	0x1
	.long	0x605d
	.byte	0x1b
	.long	0x6187
	.byte	0x1
	.byte	0x22
	.long	0xcf9
	.byte	0x0
	.byte	0x5e
	.byte	0x1
	.set L$set$1167,LASF518-Lsection__debug_str
	.long L$set$1167
	.byte	0x3f
	.word	0x17b
	.byte	0x1
	.long	0x5f71
	.byte	0x2
	.byte	0x1
	.long	0x607e
	.byte	0x1b
	.long	0x6187
	.byte	0x1
	.byte	0x1b
	.long	0xa20
	.byte	0x1
	.byte	0x0
	.byte	0x50
	.byte	0x1
	.set L$set$1168,LASF519-Lsection__debug_str
	.long L$set$1168
	.byte	0x3f
	.word	0x17f
	.set L$set$1169,LASF520-Lsection__debug_str
	.long L$set$1169
	.byte	0x2
	.byte	0x1
	.long	0x60a1
	.byte	0x22
	.long	0x618d
	.byte	0x22
	.long	0x2b34
	.byte	0x22
	.long	0x5fa7
	.byte	0x0
	.byte	0x4f
	.byte	0x1
	.set L$set$1170,LASF521-Lsection__debug_str
	.long L$set$1170
	.byte	0x3f
	.word	0x182
	.set L$set$1171,LASF522-Lsection__debug_str
	.long L$set$1171
	.long	0x5fa7
	.byte	0x2
	.byte	0x1
	.long	0x60be
	.byte	0x22
	.long	0x618d
	.byte	0x0
	.byte	0x50
	.byte	0x1
	.set L$set$1172,LASF523-Lsection__debug_str
	.long L$set$1172
	.byte	0x3f
	.word	0x185
	.set L$set$1173,LASF524-Lsection__debug_str
	.long L$set$1173
	.byte	0x2
	.byte	0x1
	.long	0x60d7
	.byte	0x22
	.long	0x618d
	.byte	0x0
	.byte	0x51
	.byte	0x1
	.set L$set$1174,LASF525-Lsection__debug_str
	.long L$set$1174
	.byte	0x3f
	.word	0x18a
	.set L$set$1175,LASF527-Lsection__debug_str
	.long L$set$1175
	.long	0x5fa7
	.byte	0x2
	.byte	0x1
	.byte	0x51
	.byte	0x1
	.set L$set$1176,LASF528-Lsection__debug_str
	.long L$set$1176
	.byte	0x3f
	.word	0x18d
	.set L$set$1177,LASF529-Lsection__debug_str
	.long L$set$1177
	.long	0x2b34
	.byte	0x2
	.byte	0x1
	.byte	0x50
	.byte	0x1
	.set L$set$1178,LASF33-Lsection__debug_str
	.long L$set$1178
	.byte	0x3f
	.word	0x191
	.set L$set$1179,LASF530-Lsection__debug_str
	.long L$set$1179
	.byte	0x3
	.byte	0x1
	.long	0x6117
	.byte	0x1b
	.long	0x6193
	.byte	0x1
	.byte	0x0
	.byte	0x50
	.byte	0x1
	.set L$set$1180,LASF34-Lsection__debug_str
	.long L$set$1180
	.byte	0x3f
	.word	0x195
	.set L$set$1181,LASF531-Lsection__debug_str
	.long L$set$1181
	.byte	0x3
	.byte	0x1
	.long	0x6131
	.byte	0x1b
	.long	0x6193
	.byte	0x1
	.byte	0x0
	.byte	0x59
	.byte	0x1
	.set L$set$1182,LASF492-Lsection__debug_str
	.long L$set$1182
	.byte	0x3f
	.word	0x1a0
	.byte	0x3
	.byte	0x1
	.long	0x614c
	.byte	0x1b
	.long	0x6187
	.byte	0x1
	.byte	0x22
	.long	0x619e
	.byte	0x0
	.byte	0x5f
	.byte	0x1
	.set L$set$1183,LASF22-Lsection__debug_str
	.long L$set$1183
	.byte	0x3f
	.word	0x1a3
	.set L$set$1184,LASF532-Lsection__debug_str
	.long L$set$1184
	.long	0x61a4
	.byte	0x3
	.byte	0x1
	.byte	0x1b
	.long	0x6187
	.byte	0x1
	.byte	0x22
	.long	0x619e
	.byte	0x0
	.byte	0x0
	.byte	0x1f
	.byte	0x4
	.long	0xa20
	.byte	0x27
	.long	0xb17
	.long	0x6182
	.byte	0x28
	.long	0xb14
	.byte	0x1
	.byte	0x0
	.byte	0x20
	.long	0x6172
	.byte	0x1f
	.byte	0x4
	.long	0x5f71
	.byte	0x24
	.byte	0x4
	.long	0x5fa7
	.byte	0x1f
	.byte	0x4
	.long	0x6199
	.byte	0x20
	.long	0x5f71
	.byte	0x24
	.byte	0x4
	.long	0x6199
	.byte	0x24
	.byte	0x4
	.long	0x5f71
	.byte	0x60
	.long	0x5d61
	.byte	0x4
	.byte	0x3f
	.word	0x1b2
	.long	0x625d
	.byte	0x57
	.set L$set$1185,LASF31-Lsection__debug_str
	.long L$set$1185
	.byte	0x3f
	.word	0x1c2
	.long	0xcf9
	.byte	0x2
	.byte	0x23
	.byte	0x0
	.byte	0x3
	.byte	0x39
	.set L$set$1186,LASF39-Lsection__debug_str
	.long L$set$1186
	.byte	0x3f
	.word	0x1c5
	.ascii "_ZNSt6locale2id11_S_refcountE\0"
	.long	0x44a4
	.byte	0x1
	.byte	0x3
	.byte	0x1
	.byte	0x50
	.byte	0x1
	.set L$set$1187,LASF22-Lsection__debug_str
	.long L$set$1187
	.byte	0x3f
	.word	0x1c8
	.set L$set$1188,LASF533-Lsection__debug_str
	.long L$set$1188
	.byte	0x3
	.byte	0x1
	.long	0x6213
	.byte	0x1b
	.long	0x625d
	.byte	0x1
	.byte	0x22
	.long	0x6263
	.byte	0x0
	.byte	0x59
	.byte	0x1
	.set L$set$1189,LASF493-Lsection__debug_str
	.long L$set$1189
	.byte	0x3f
	.word	0x1ca
	.byte	0x3
	.byte	0x1
	.long	0x622e
	.byte	0x1b
	.long	0x625d
	.byte	0x1
	.byte	0x22
	.long	0x6263
	.byte	0x0
	.byte	0x36
	.byte	0x1
	.set L$set$1190,LASF493-Lsection__debug_str
	.long L$set$1190
	.byte	0x3f
	.word	0x1d0
	.byte	0x1
	.long	0x6243
	.byte	0x1b
	.long	0x625d
	.byte	0x1
	.byte	0x0
	.byte	0x38
	.byte	0x1
	.set L$set$1191,LASF534-Lsection__debug_str
	.long L$set$1191
	.byte	0x3f
	.word	0x1d3
	.set L$set$1192,LASF535-Lsection__debug_str
	.long L$set$1192
	.long	0xcf9
	.byte	0x1
	.byte	0x1b
	.long	0x626e
	.byte	0x1
	.byte	0x0
	.byte	0x0
	.byte	0x1f
	.byte	0x4
	.long	0x61aa
	.byte	0x24
	.byte	0x4
	.long	0x6269
	.byte	0x20
	.long	0x61aa
	.byte	0x1f
	.byte	0x4
	.long	0x6269
	.byte	0x60
	.long	0x5cac
	.byte	0x14
	.byte	0x3f
	.word	0x1d9
	.long	0x6526
	.byte	0x57
	.set L$set$1193,LASF32-Lsection__debug_str
	.long L$set$1193
	.byte	0x3f
	.word	0x1ec
	.long	0x44a4
	.byte	0x2
	.byte	0x23
	.byte	0x0
	.byte	0x3
	.byte	0x4e
	.ascii "_M_facets\0"
	.byte	0x3f
	.word	0x1ed
	.long	0x6526
	.byte	0x2
	.byte	0x23
	.byte	0x4
	.byte	0x3
	.byte	0x4e
	.ascii "_M_facets_size\0"
	.byte	0x3f
	.word	0x1ee
	.long	0xcf9
	.byte	0x2
	.byte	0x23
	.byte	0x8
	.byte	0x3
	.byte	0x4e
	.ascii "_M_caches\0"
	.byte	0x3f
	.word	0x1ef
	.long	0x6526
	.byte	0x2
	.byte	0x23
	.byte	0xc
	.byte	0x3
	.byte	0x4e
	.ascii "_M_names\0"
	.byte	0x3f
	.word	0x1f0
	.long	0x3499
	.byte	0x2
	.byte	0x23
	.byte	0x10
	.byte	0x3
	.byte	0x58
	.set L$set$1194,LASF536-Lsection__debug_str
	.long L$set$1194
	.byte	0x3f
	.word	0x1f1
	.set L$set$1195,LASF537-Lsection__debug_str
	.long L$set$1195
	.long	0x652c
	.byte	0x1
	.byte	0x3
	.byte	0x1
	.byte	0x58
	.set L$set$1196,LASF538-Lsection__debug_str
	.long L$set$1196
	.byte	0x3f
	.word	0x1f2
	.set L$set$1197,LASF539-Lsection__debug_str
	.long L$set$1197
	.long	0x652c
	.byte	0x1
	.byte	0x3
	.byte	0x1
	.byte	0x58
	.set L$set$1198,LASF540-Lsection__debug_str
	.long L$set$1198
	.byte	0x3f
	.word	0x1f3
	.set L$set$1199,LASF541-Lsection__debug_str
	.long L$set$1199
	.long	0x652c
	.byte	0x1
	.byte	0x3
	.byte	0x1
	.byte	0x58
	.set L$set$1200,LASF542-Lsection__debug_str
	.long L$set$1200
	.byte	0x3f
	.word	0x1f4
	.set L$set$1201,LASF543-Lsection__debug_str
	.long L$set$1201
	.long	0x652c
	.byte	0x1
	.byte	0x3
	.byte	0x1
	.byte	0x58
	.set L$set$1202,LASF544-Lsection__debug_str
	.long L$set$1202
	.byte	0x3f
	.word	0x1f5
	.set L$set$1203,LASF545-Lsection__debug_str
	.long L$set$1203
	.long	0x652c
	.byte	0x1
	.byte	0x3
	.byte	0x1
	.byte	0x58
	.set L$set$1204,LASF546-Lsection__debug_str
	.long L$set$1204
	.byte	0x3f
	.word	0x1f6
	.set L$set$1205,LASF547-Lsection__debug_str
	.long L$set$1205
	.long	0x652c
	.byte	0x1
	.byte	0x3
	.byte	0x1
	.byte	0x58
	.set L$set$1206,LASF548-Lsection__debug_str
	.long L$set$1206
	.byte	0x3f
	.word	0x1f7
	.set L$set$1207,LASF549-Lsection__debug_str
	.long L$set$1207
	.long	0x6537
	.byte	0x1
	.byte	0x3
	.byte	0x1
	.byte	0x50
	.byte	0x1
	.set L$set$1208,LASF33-Lsection__debug_str
	.long L$set$1208
	.byte	0x3f
	.word	0x1fa
	.set L$set$1209,LASF550-Lsection__debug_str
	.long L$set$1209
	.byte	0x3
	.byte	0x1
	.long	0x638c
	.byte	0x1b
	.long	0x5f44
	.byte	0x1
	.byte	0x0
	.byte	0x50
	.byte	0x1
	.set L$set$1210,LASF34-Lsection__debug_str
	.long L$set$1210
	.byte	0x3f
	.word	0x1fe
	.set L$set$1211,LASF551-Lsection__debug_str
	.long L$set$1211
	.byte	0x3
	.byte	0x1
	.long	0x63a6
	.byte	0x1b
	.long	0x5f44
	.byte	0x1
	.byte	0x0
	.byte	0x59
	.byte	0x1
	.set L$set$1212,LASF488-Lsection__debug_str
	.long L$set$1212
	.byte	0x3f
	.word	0x209
	.byte	0x3
	.byte	0x1
	.long	0x63c6
	.byte	0x1b
	.long	0x5f44
	.byte	0x1
	.byte	0x22
	.long	0x654d
	.byte	0x22
	.long	0xcf9
	.byte	0x0
	.byte	0x59
	.byte	0x1
	.set L$set$1213,LASF488-Lsection__debug_str
	.long L$set$1213
	.byte	0x3f
	.word	0x20a
	.byte	0x3
	.byte	0x1
	.long	0x63e6
	.byte	0x1b
	.long	0x5f44
	.byte	0x1
	.byte	0x22
	.long	0x2b34
	.byte	0x22
	.long	0xcf9
	.byte	0x0
	.byte	0x59
	.byte	0x1
	.set L$set$1214,LASF488-Lsection__debug_str
	.long L$set$1214
	.byte	0x3f
	.word	0x20b
	.byte	0x3
	.byte	0x1
	.long	0x6401
	.byte	0x1b
	.long	0x5f44
	.byte	0x1
	.byte	0x22
	.long	0xcf9
	.byte	0x0
	.byte	0x59
	.byte	0x1
	.set L$set$1215,LASF552-Lsection__debug_str
	.long L$set$1215
	.byte	0x3f
	.word	0x20d
	.byte	0x3
	.byte	0x1
	.long	0x641d
	.byte	0x1b
	.long	0x5f44
	.byte	0x1
	.byte	0x1b
	.long	0xa20
	.byte	0x1
	.byte	0x0
	.byte	0x59
	.byte	0x1
	.set L$set$1216,LASF488-Lsection__debug_str
	.long L$set$1216
	.byte	0x3f
	.word	0x20f
	.byte	0x3
	.byte	0x1
	.long	0x6438
	.byte	0x1b
	.long	0x5f44
	.byte	0x1
	.byte	0x22
	.long	0x654d
	.byte	0x0
	.byte	0x50
	.byte	0x1
	.set L$set$1217,LASF22-Lsection__debug_str
	.long L$set$1217
	.byte	0x3f
	.word	0x212
	.set L$set$1218,LASF553-Lsection__debug_str
	.long L$set$1218
	.byte	0x3
	.byte	0x1
	.long	0x6457
	.byte	0x1b
	.long	0x5f44
	.byte	0x1
	.byte	0x22
	.long	0x654d
	.byte	0x0
	.byte	0x4f
	.byte	0x1
	.set L$set$1219,LASF554-Lsection__debug_str
	.long L$set$1219
	.byte	0x3f
	.word	0x215
	.set L$set$1220,LASF555-Lsection__debug_str
	.long L$set$1220
	.long	0xe2a
	.byte	0x3
	.byte	0x1
	.long	0x6475
	.byte	0x1b
	.long	0x5f44
	.byte	0x1
	.byte	0x0
	.byte	0x50
	.byte	0x1
	.set L$set$1221,LASF556-Lsection__debug_str
	.long L$set$1221
	.byte	0x3f
	.word	0x220
	.set L$set$1222,LASF557-Lsection__debug_str
	.long L$set$1222
	.byte	0x3
	.byte	0x1
	.long	0x6499
	.byte	0x1b
	.long	0x5f44
	.byte	0x1
	.byte	0x22
	.long	0x6558
	.byte	0x22
	.long	0xa20
	.byte	0x0
	.byte	0x50
	.byte	0x1
	.set L$set$1223,LASF558-Lsection__debug_str
	.long L$set$1223
	.byte	0x3f
	.word	0x223
	.set L$set$1224,LASF559-Lsection__debug_str
	.long L$set$1224
	.byte	0x3
	.byte	0x1
	.long	0x64bd
	.byte	0x1b
	.long	0x5f44
	.byte	0x1
	.byte	0x22
	.long	0x6558
	.byte	0x22
	.long	0x6542
	.byte	0x0
	.byte	0x50
	.byte	0x1
	.set L$set$1225,LASF560-Lsection__debug_str
	.long L$set$1225
	.byte	0x3f
	.word	0x226
	.set L$set$1226,LASF561-Lsection__debug_str
	.long L$set$1226
	.byte	0x3
	.byte	0x1
	.long	0x64e1
	.byte	0x1b
	.long	0x5f44
	.byte	0x1
	.byte	0x22
	.long	0x6558
	.byte	0x22
	.long	0x626e
	.byte	0x0
	.byte	0x50
	.byte	0x1
	.set L$set$1227,LASF562-Lsection__debug_str
	.long L$set$1227
	.byte	0x3f
	.word	0x229
	.set L$set$1228,LASF563-Lsection__debug_str
	.long L$set$1228
	.byte	0x3
	.byte	0x1
	.long	0x6505
	.byte	0x1b
	.long	0x5f44
	.byte	0x1
	.byte	0x22
	.long	0x626e
	.byte	0x22
	.long	0x6193
	.byte	0x0
	.byte	0x5b
	.byte	0x1
	.set L$set$1229,LASF564-Lsection__debug_str
	.long L$set$1229
	.byte	0x3f
	.word	0x231
	.set L$set$1230,LASF565-Lsection__debug_str
	.long L$set$1230
	.byte	0x3
	.byte	0x1
	.byte	0x1b
	.long	0x5f44
	.byte	0x1
	.byte	0x22
	.long	0x6193
	.byte	0x22
	.long	0xcf9
	.byte	0x0
	.byte	0x0
	.byte	0x1f
	.byte	0x4
	.long	0x6193
	.byte	0x27
	.long	0x626e
	.long	0x6537
	.byte	0x61
	.byte	0x0
	.byte	0x27
	.long	0x6542
	.long	0x6542
	.byte	0x61
	.byte	0x0
	.byte	0x1f
	.byte	0x4
	.long	0x6548
	.byte	0x20
	.long	0x626e
	.byte	0x24
	.byte	0x4
	.long	0x6553
	.byte	0x20
	.long	0x6274
	.byte	0x1f
	.byte	0x4
	.long	0x6553
	.byte	0x24
	.byte	0x4
	.long	0x6564
	.byte	0x20
	.long	0x5e2e
	.byte	0x1f
	.byte	0x4
	.long	0x179c
	.byte	0x62
	.long	0x6584
	.byte	0x22
	.long	0x1760
	.byte	0x22
	.long	0x6584
	.byte	0x22
	.long	0xa20
	.byte	0x0
	.byte	0x24
	.byte	0x4
	.long	0x1756
	.byte	0x1f
	.byte	0x4
	.long	0x656f
	.byte	0x1f
	.byte	0x4
	.long	0x1842
	.byte	0x1f
	.byte	0x4
	.long	0x1889
	.byte	0x63
	.long	0x1756
	.byte	0x70
	.byte	0x29
	.byte	0xca
	.long	0x659c
	.long	0x6cc2
	.byte	0x5d
	.ascii "_vptr$ios_base\0"
	.long	0xe0e
	.byte	0x2
	.byte	0x23
	.byte	0x0
	.byte	0x1
	.byte	0x64
	.set L$set$1231,LASF566-Lsection__debug_str
	.long L$set$1231
	.byte	0x29
	.word	0x100
	.set L$set$1232,LASF567-Lsection__debug_str
	.long L$set$1232
	.long	0x6cc2
	.byte	0x1
	.byte	0x1
	.byte	0x1
	.byte	0x65
	.ascii "dec\0"
	.byte	0x29
	.word	0x103
	.set L$set$1233,LASF568-Lsection__debug_str
	.long L$set$1233
	.long	0x6cc2
	.byte	0x1
	.byte	0x1
	.byte	0x2
	.byte	0x65
	.ascii "fixed\0"
	.byte	0x29
	.word	0x106
	.set L$set$1234,LASF569-Lsection__debug_str
	.long L$set$1234
	.long	0x6cc2
	.byte	0x1
	.byte	0x1
	.byte	0x4
	.byte	0x65
	.ascii "hex\0"
	.byte	0x29
	.word	0x109
	.set L$set$1235,LASF570-Lsection__debug_str
	.long L$set$1235
	.long	0x6cc2
	.byte	0x1
	.byte	0x1
	.byte	0x8
	.byte	0x64
	.set L$set$1236,LASF571-Lsection__debug_str
	.long L$set$1236
	.byte	0x29
	.word	0x10e
	.set L$set$1237,LASF572-Lsection__debug_str
	.long L$set$1237
	.long	0x6cc2
	.byte	0x1
	.byte	0x1
	.byte	0x10
	.byte	0x65
	.ascii "left\0"
	.byte	0x29
	.word	0x112
	.set L$set$1238,LASF573-Lsection__debug_str
	.long L$set$1238
	.long	0x6cc2
	.byte	0x1
	.byte	0x1
	.byte	0x20
	.byte	0x65
	.ascii "oct\0"
	.byte	0x29
	.word	0x115
	.set L$set$1239,LASF574-Lsection__debug_str
	.long L$set$1239
	.long	0x6cc2
	.byte	0x1
	.byte	0x1
	.byte	0x40
	.byte	0x65
	.ascii "right\0"
	.byte	0x29
	.word	0x119
	.set L$set$1240,LASF575-Lsection__debug_str
	.long L$set$1240
	.long	0x6cc2
	.byte	0x1
	.byte	0x1
	.byte	0x80
	.byte	0x66
	.set L$set$1241,LASF576-Lsection__debug_str
	.long L$set$1241
	.byte	0x29
	.word	0x11c
	.set L$set$1242,LASF577-Lsection__debug_str
	.long L$set$1242
	.long	0x6cc2
	.byte	0x1
	.byte	0x1
	.word	0x100
	.byte	0x66
	.set L$set$1243,LASF578-Lsection__debug_str
	.long L$set$1243
	.byte	0x29
	.word	0x120
	.set L$set$1244,LASF579-Lsection__debug_str
	.long L$set$1244
	.long	0x6cc2
	.byte	0x1
	.byte	0x1
	.word	0x200
	.byte	0x66
	.set L$set$1245,LASF580-Lsection__debug_str
	.long L$set$1245
	.byte	0x29
	.word	0x124
	.set L$set$1246,LASF581-Lsection__debug_str
	.long L$set$1246
	.long	0x6cc2
	.byte	0x1
	.byte	0x1
	.word	0x400
	.byte	0x67
	.ascii "showpos\0"
	.byte	0x29
	.word	0x127
	.set L$set$1247,LASF582-Lsection__debug_str
	.long L$set$1247
	.long	0x6cc2
	.byte	0x1
	.byte	0x1
	.word	0x800
	.byte	0x67
	.ascii "skipws\0"
	.byte	0x29
	.word	0x12a
	.set L$set$1248,LASF583-Lsection__debug_str
	.long L$set$1248
	.long	0x6cc2
	.byte	0x1
	.byte	0x1
	.word	0x1000
	.byte	0x67
	.ascii "unitbuf\0"
	.byte	0x29
	.word	0x12d
	.set L$set$1249,LASF584-Lsection__debug_str
	.long L$set$1249
	.long	0x6cc2
	.byte	0x1
	.byte	0x1
	.word	0x2000
	.byte	0x66
	.set L$set$1250,LASF585-Lsection__debug_str
	.long L$set$1250
	.byte	0x29
	.word	0x131
	.set L$set$1251,LASF586-Lsection__debug_str
	.long L$set$1251
	.long	0x6cc2
	.byte	0x1
	.byte	0x1
	.word	0x4000
	.byte	0x64
	.set L$set$1252,LASF587-Lsection__debug_str
	.long L$set$1252
	.byte	0x29
	.word	0x134
	.set L$set$1253,LASF588-Lsection__debug_str
	.long L$set$1253
	.long	0x6cc2
	.byte	0x1
	.byte	0x1
	.byte	0xb0
	.byte	0x64
	.set L$set$1254,LASF589-Lsection__debug_str
	.long L$set$1254
	.byte	0x29
	.word	0x137
	.set L$set$1255,LASF590-Lsection__debug_str
	.long L$set$1255
	.long	0x6cc2
	.byte	0x1
	.byte	0x1
	.byte	0x4a
	.byte	0x66
	.set L$set$1256,LASF591-Lsection__debug_str
	.long L$set$1256
	.byte	0x29
	.word	0x13a
	.set L$set$1257,LASF592-Lsection__debug_str
	.long L$set$1257
	.long	0x6cc2
	.byte	0x1
	.byte	0x1
	.word	0x104
	.byte	0x65
	.ascii "badbit\0"
	.byte	0x29
	.word	0x14c
	.set L$set$1258,LASF593-Lsection__debug_str
	.long L$set$1258
	.long	0x6cc7
	.byte	0x1
	.byte	0x1
	.byte	0x1
	.byte	0x65
	.ascii "eofbit\0"
	.byte	0x29
	.word	0x14f
	.set L$set$1259,LASF594-Lsection__debug_str
	.long L$set$1259
	.long	0x6cc7
	.byte	0x1
	.byte	0x1
	.byte	0x2
	.byte	0x65
	.ascii "failbit\0"
	.byte	0x29
	.word	0x154
	.set L$set$1260,LASF595-Lsection__debug_str
	.long L$set$1260
	.long	0x6cc7
	.byte	0x1
	.byte	0x1
	.byte	0x4
	.byte	0x65
	.ascii "goodbit\0"
	.byte	0x29
	.word	0x157
	.set L$set$1261,LASF596-Lsection__debug_str
	.long L$set$1261
	.long	0x6cc7
	.byte	0x1
	.byte	0x1
	.byte	0x0
	.byte	0x68
	.ascii "app\0"
	.byte	0x29
	.word	0x16a
	.ascii "_ZNSt8ios_base3appE\0"
	.long	0x6ccc
	.byte	0x1
	.byte	0x1
	.byte	0x1
	.byte	0x68
	.ascii "ate\0"
	.byte	0x29
	.word	0x16d
	.ascii "_ZNSt8ios_base3ateE\0"
	.long	0x6ccc
	.byte	0x1
	.byte	0x1
	.byte	0x2
	.byte	0x68
	.ascii "binary\0"
	.byte	0x29
	.word	0x173
	.ascii "_ZNSt8ios_base6binaryE\0"
	.long	0x6ccc
	.byte	0x1
	.byte	0x1
	.byte	0x4
	.byte	0x64
	.set L$set$1262,LASF597-Lsection__debug_str
	.long L$set$1262
	.byte	0x29
	.word	0x176
	.set L$set$1263,LASF598-Lsection__debug_str
	.long L$set$1263
	.long	0x6ccc
	.byte	0x1
	.byte	0x1
	.byte	0x8
	.byte	0x64
	.set L$set$1264,LASF599-Lsection__debug_str
	.long L$set$1264
	.byte	0x29
	.word	0x179
	.set L$set$1265,LASF600-Lsection__debug_str
	.long L$set$1265
	.long	0x6ccc
	.byte	0x1
	.byte	0x1
	.byte	0x10
	.byte	0x68
	.ascii "trunc\0"
	.byte	0x29
	.word	0x17c
	.ascii "_ZNSt8ios_base5truncE\0"
	.long	0x6ccc
	.byte	0x1
	.byte	0x1
	.byte	0x20
	.byte	0x68
	.ascii "beg\0"
	.byte	0x29
	.word	0x18b
	.ascii "_ZNSt8ios_base3begE\0"
	.long	0x6cd1
	.byte	0x1
	.byte	0x1
	.byte	0x0
	.byte	0x65
	.ascii "cur\0"
	.byte	0x29
	.word	0x18e
	.set L$set$1266,LASF601-Lsection__debug_str
	.long L$set$1266
	.long	0x6cd1
	.byte	0x1
	.byte	0x1
	.byte	0x1
	.byte	0x69
	.set L$set$1267,LASF321-Lsection__debug_str
	.long L$set$1267
	.byte	0x29
	.word	0x191
	.ascii "_ZNSt8ios_base3endE\0"
	.long	0x6cd1
	.byte	0x1
	.byte	0x1
	.byte	0x2
	.byte	0x7
	.ascii "streamsize\0"
	.byte	0x3b
	.byte	0x4e
	.long	0xe32
	.byte	0x4e
	.ascii "_M_precision\0"
	.byte	0x29
	.word	0x1c9
	.long	0x68a1
	.byte	0x2
	.byte	0x23
	.byte	0x4
	.byte	0x2
	.byte	0x4e
	.ascii "_M_width\0"
	.byte	0x29
	.word	0x1ca
	.long	0x68a1
	.byte	0x2
	.byte	0x23
	.byte	0x8
	.byte	0x2
	.byte	0x4e
	.ascii "_M_flags\0"
	.byte	0x29
	.word	0x1cb
	.long	0x152b
	.byte	0x2
	.byte	0x23
	.byte	0xc
	.byte	0x2
	.byte	0x4e
	.ascii "_M_exception\0"
	.byte	0x29
	.word	0x1cc
	.long	0x16af
	.byte	0x2
	.byte	0x23
	.byte	0x10
	.byte	0x2
	.byte	0x4e
	.ascii "_M_streambuf_state\0"
	.byte	0x29
	.word	0x1cd
	.long	0x16af
	.byte	0x2
	.byte	0x23
	.byte	0x14
	.byte	0x2
	.byte	0x4e
	.ascii "_M_callbacks\0"
	.byte	0x29
	.word	0x1e7
	.long	0x6569
	.byte	0x2
	.byte	0x23
	.byte	0x18
	.byte	0x2
	.byte	0x4e
	.ascii "_M_word_zero\0"
	.byte	0x29
	.word	0x1f8
	.long	0x1842
	.byte	0x2
	.byte	0x23
	.byte	0x1c
	.byte	0x2
	.byte	0x4e
	.ascii "_M_local_word\0"
	.byte	0x29
	.word	0x1fd
	.long	0x6cd6
	.byte	0x2
	.byte	0x23
	.byte	0x24
	.byte	0x2
	.byte	0x4e
	.ascii "_M_word_size\0"
	.byte	0x29
	.word	0x200
	.long	0xa20
	.byte	0x2
	.byte	0x23
	.byte	0x64
	.byte	0x2
	.byte	0x4e
	.ascii "_M_word\0"
	.byte	0x29
	.word	0x201
	.long	0x6590
	.byte	0x2
	.byte	0x23
	.byte	0x68
	.byte	0x2
	.byte	0x4e
	.ascii "_M_ios_locale\0"
	.byte	0x29
	.word	0x207
	.long	0x5bee
	.byte	0x2
	.byte	0x23
	.byte	0x6c
	.byte	0x2
	.byte	0x37
	.byte	0x1
	.set L$set$1268,LASF602-Lsection__debug_str
	.long L$set$1268
	.byte	0x29
	.word	0x1c0
	.set L$set$1269,LASF603-Lsection__debug_str
	.long L$set$1269
	.byte	0x1
	.long	0x69e4
	.byte	0x1b
	.long	0x6ce6
	.byte	0x1
	.byte	0x22
	.long	0x658a
	.byte	0x22
	.long	0xa20
	.byte	0x0
	.byte	0x50
	.byte	0x1
	.set L$set$1270,LASF604-Lsection__debug_str
	.long L$set$1270
	.byte	0x29
	.word	0x1ea
	.set L$set$1271,LASF605-Lsection__debug_str
	.long L$set$1271
	.byte	0x2
	.byte	0x1
	.long	0x6a03
	.byte	0x1b
	.long	0x6ce6
	.byte	0x1
	.byte	0x22
	.long	0x1760
	.byte	0x0
	.byte	0x50
	.byte	0x1
	.set L$set$1272,LASF606-Lsection__debug_str
	.long L$set$1272
	.byte	0x29
	.word	0x1ed
	.set L$set$1273,LASF607-Lsection__debug_str
	.long L$set$1273
	.byte	0x2
	.byte	0x1
	.long	0x6a1d
	.byte	0x1b
	.long	0x6ce6
	.byte	0x1
	.byte	0x0
	.byte	0x4f
	.byte	0x1
	.set L$set$1274,LASF608-Lsection__debug_str
	.long L$set$1274
	.byte	0x29
	.word	0x204
	.set L$set$1275,LASF609-Lsection__debug_str
	.long L$set$1275
	.long	0x6cec
	.byte	0x2
	.byte	0x1
	.long	0x6a45
	.byte	0x1b
	.long	0x6ce6
	.byte	0x1
	.byte	0x22
	.long	0xa20
	.byte	0x22
	.long	0xe2a
	.byte	0x0
	.byte	0x50
	.byte	0x1
	.set L$set$1276,LASF610-Lsection__debug_str
	.long L$set$1276
	.byte	0x29
	.word	0x20a
	.set L$set$1277,LASF611-Lsection__debug_str
	.long L$set$1277
	.byte	0x2
	.byte	0x1
	.long	0x6a5f
	.byte	0x1b
	.long	0x6ce6
	.byte	0x1
	.byte	0x0
	.byte	0x44
	.byte	0x1
	.set L$set$1278,LASF612-Lsection__debug_str
	.long L$set$1278
	.byte	0x29
	.word	0x224
	.set L$set$1279,LASF613-Lsection__debug_str
	.long L$set$1279
	.long	0x152b
	.byte	0x1
	.long	0x6a7c
	.byte	0x1b
	.long	0x6cf2
	.byte	0x1
	.byte	0x0
	.byte	0x44
	.byte	0x1
	.set L$set$1280,LASF612-Lsection__debug_str
	.long L$set$1280
	.byte	0x29
	.word	0x22e
	.set L$set$1281,LASF614-Lsection__debug_str
	.long L$set$1281
	.long	0x152b
	.byte	0x1
	.long	0x6a9e
	.byte	0x1b
	.long	0x6ce6
	.byte	0x1
	.byte	0x22
	.long	0x152b
	.byte	0x0
	.byte	0x44
	.byte	0x1
	.set L$set$1282,LASF615-Lsection__debug_str
	.long L$set$1282
	.byte	0x29
	.word	0x23e
	.set L$set$1283,LASF616-Lsection__debug_str
	.long L$set$1283
	.long	0x152b
	.byte	0x1
	.long	0x6ac0
	.byte	0x1b
	.long	0x6ce6
	.byte	0x1
	.byte	0x22
	.long	0x152b
	.byte	0x0
	.byte	0x44
	.byte	0x1
	.set L$set$1284,LASF615-Lsection__debug_str
	.long L$set$1284
	.byte	0x29
	.word	0x24f
	.set L$set$1285,LASF617-Lsection__debug_str
	.long L$set$1285
	.long	0x152b
	.byte	0x1
	.long	0x6ae7
	.byte	0x1b
	.long	0x6ce6
	.byte	0x1
	.byte	0x22
	.long	0x152b
	.byte	0x22
	.long	0x152b
	.byte	0x0
	.byte	0x37
	.byte	0x1
	.set L$set$1286,LASF618-Lsection__debug_str
	.long L$set$1286
	.byte	0x29
	.word	0x25e
	.set L$set$1287,LASF619-Lsection__debug_str
	.long L$set$1287
	.byte	0x1
	.long	0x6b05
	.byte	0x1b
	.long	0x6ce6
	.byte	0x1
	.byte	0x22
	.long	0x152b
	.byte	0x0
	.byte	0x44
	.byte	0x1
	.set L$set$1288,LASF620-Lsection__debug_str
	.long L$set$1288
	.byte	0x29
	.word	0x26a
	.set L$set$1289,LASF621-Lsection__debug_str
	.long L$set$1289
	.long	0x68a1
	.byte	0x1
	.long	0x6b22
	.byte	0x1b
	.long	0x6cf2
	.byte	0x1
	.byte	0x0
	.byte	0x44
	.byte	0x1
	.set L$set$1290,LASF620-Lsection__debug_str
	.long L$set$1290
	.byte	0x29
	.word	0x272
	.set L$set$1291,LASF622-Lsection__debug_str
	.long L$set$1291
	.long	0x68a1
	.byte	0x1
	.long	0x6b44
	.byte	0x1b
	.long	0x6ce6
	.byte	0x1
	.byte	0x22
	.long	0x68a1
	.byte	0x0
	.byte	0x44
	.byte	0x1
	.set L$set$1292,LASF623-Lsection__debug_str
	.long L$set$1292
	.byte	0x29
	.word	0x280
	.set L$set$1293,LASF624-Lsection__debug_str
	.long L$set$1293
	.long	0x68a1
	.byte	0x1
	.long	0x6b61
	.byte	0x1b
	.long	0x6cf2
	.byte	0x1
	.byte	0x0
	.byte	0x44
	.byte	0x1
	.set L$set$1294,LASF623-Lsection__debug_str
	.long L$set$1294
	.byte	0x29
	.word	0x288
	.set L$set$1295,LASF625-Lsection__debug_str
	.long L$set$1295
	.long	0x68a1
	.byte	0x1
	.long	0x6b83
	.byte	0x1b
	.long	0x6ce6
	.byte	0x1
	.byte	0x22
	.long	0x68a1
	.byte	0x0
	.byte	0x44
	.byte	0x1
	.set L$set$1296,LASF626-Lsection__debug_str
	.long L$set$1296
	.byte	0x29
	.word	0x29b
	.set L$set$1297,LASF627-Lsection__debug_str
	.long L$set$1297
	.long	0xe2a
	.byte	0x1
	.long	0x6b9f
	.byte	0x22
	.long	0xe2a
	.byte	0x0
	.byte	0x44
	.byte	0x1
	.set L$set$1298,LASF628-Lsection__debug_str
	.long L$set$1298
	.byte	0x29
	.word	0x2a7
	.set L$set$1299,LASF629-Lsection__debug_str
	.long L$set$1299
	.long	0x5bee
	.byte	0x1
	.long	0x6bc1
	.byte	0x1b
	.long	0x6ce6
	.byte	0x1
	.byte	0x22
	.long	0x5f60
	.byte	0x0
	.byte	0x44
	.byte	0x1
	.set L$set$1300,LASF630-Lsection__debug_str
	.long L$set$1300
	.byte	0x29
	.word	0x2b2
	.set L$set$1301,LASF631-Lsection__debug_str
	.long L$set$1301
	.long	0x5bee
	.byte	0x1
	.long	0x6bde
	.byte	0x1b
	.long	0x6cf2
	.byte	0x1
	.byte	0x0
	.byte	0x44
	.byte	0x1
	.set L$set$1302,LASF632-Lsection__debug_str
	.long L$set$1302
	.byte	0x29
	.word	0x2bc
	.set L$set$1303,LASF633-Lsection__debug_str
	.long L$set$1303
	.long	0x5f60
	.byte	0x1
	.long	0x6bfb
	.byte	0x1b
	.long	0x6cf2
	.byte	0x1
	.byte	0x0
	.byte	0x4c
	.byte	0x1
	.set L$set$1304,LASF634-Lsection__debug_str
	.long L$set$1304
	.byte	0x29
	.word	0x2ce
	.set L$set$1305,LASF635-Lsection__debug_str
	.long L$set$1305
	.long	0xa20
	.byte	0x1
	.byte	0x44
	.byte	0x1
	.set L$set$1306,LASF636-Lsection__debug_str
	.long L$set$1306
	.byte	0x29
	.word	0x2de
	.set L$set$1307,LASF637-Lsection__debug_str
	.long L$set$1307
	.long	0x6cfd
	.byte	0x1
	.long	0x6c2f
	.byte	0x1b
	.long	0x6ce6
	.byte	0x1
	.byte	0x22
	.long	0xa20
	.byte	0x0
	.byte	0x44
	.byte	0x1
	.set L$set$1308,LASF638-Lsection__debug_str
	.long L$set$1308
	.byte	0x29
	.word	0x2f3
	.set L$set$1309,LASF639-Lsection__debug_str
	.long L$set$1309
	.long	0x6d03
	.byte	0x1
	.long	0x6c51
	.byte	0x1b
	.long	0x6ce6
	.byte	0x1
	.byte	0x22
	.long	0xa20
	.byte	0x0
	.byte	0x6a
	.byte	0x1
	.set L$set$1310,LASF640-Lsection__debug_str
	.long L$set$1310
	.byte	0x29
	.word	0x303
	.byte	0x1
	.long	0x659c
	.byte	0x1
	.long	0x6c71
	.byte	0x1b
	.long	0x6ce6
	.byte	0x1
	.byte	0x1b
	.long	0xa20
	.byte	0x1
	.byte	0x0
	.byte	0x59
	.byte	0x1
	.set L$set$1311,LASF29-Lsection__debug_str
	.long L$set$1311
	.byte	0x29
	.word	0x306
	.byte	0x2
	.byte	0x1
	.long	0x6c87
	.byte	0x1b
	.long	0x6ce6
	.byte	0x1
	.byte	0x0
	.byte	0x59
	.byte	0x1
	.set L$set$1312,LASF29-Lsection__debug_str
	.long L$set$1312
	.byte	0x29
	.word	0x30b
	.byte	0x3
	.byte	0x1
	.long	0x6ca2
	.byte	0x1b
	.long	0x6ce6
	.byte	0x1
	.byte	0x22
	.long	0x6d09
	.byte	0x0
	.byte	0x5f
	.byte	0x1
	.set L$set$1313,LASF22-Lsection__debug_str
	.long L$set$1313
	.byte	0x29
	.word	0x30e
	.set L$set$1314,LASF641-Lsection__debug_str
	.long L$set$1314
	.long	0x6584
	.byte	0x3
	.byte	0x1
	.byte	0x1b
	.long	0x6ce6
	.byte	0x1
	.byte	0x22
	.long	0x6d09
	.byte	0x0
	.byte	0x0
	.byte	0x20
	.long	0x152b
	.byte	0x20
	.long	0x16af
	.byte	0x20
	.long	0x1649
	.byte	0x20
	.long	0x170e
	.byte	0x27
	.long	0x1842
	.long	0x6ce6
	.byte	0x28
	.long	0xb14
	.byte	0x7
	.byte	0x0
	.byte	0x1f
	.byte	0x4
	.long	0x659c
	.byte	0x24
	.byte	0x4
	.long	0x1842
	.byte	0x1f
	.byte	0x4
	.long	0x6cf8
	.byte	0x20
	.long	0x659c
	.byte	0x24
	.byte	0x4
	.long	0xac8
	.byte	0x24
	.byte	0x4
	.long	0xc1d
	.byte	0x24
	.byte	0x4
	.long	0x6cf8
	.byte	0x63
	.long	0x193c
	.byte	0x20
	.byte	0x41
	.byte	0x3a
	.long	0x6d0f
	.long	0x7385
	.byte	0x5d
	.ascii "_vptr$basic_streambuf\0"
	.long	0xe0e
	.byte	0x2
	.byte	0x23
	.byte	0x0
	.byte	0x1
	.byte	0x1a
	.ascii "_M_in_beg\0"
	.byte	0x42
	.byte	0xc3
	.long	0xde7
	.byte	0x2
	.byte	0x23
	.byte	0x4
	.byte	0x2
	.byte	0x1a
	.ascii "_M_in_cur\0"
	.byte	0x42
	.byte	0xc4
	.long	0xde7
	.byte	0x2
	.byte	0x23
	.byte	0x8
	.byte	0x2
	.byte	0x1a
	.ascii "_M_in_end\0"
	.byte	0x42
	.byte	0xc5
	.long	0xde7
	.byte	0x2
	.byte	0x23
	.byte	0xc
	.byte	0x2
	.byte	0x1a
	.ascii "_M_out_beg\0"
	.byte	0x42
	.byte	0xc6
	.long	0xde7
	.byte	0x2
	.byte	0x23
	.byte	0x10
	.byte	0x2
	.byte	0x1a
	.ascii "_M_out_cur\0"
	.byte	0x42
	.byte	0xc7
	.long	0xde7
	.byte	0x2
	.byte	0x23
	.byte	0x14
	.byte	0x2
	.byte	0x1a
	.ascii "_M_out_end\0"
	.byte	0x42
	.byte	0xc8
	.long	0xde7
	.byte	0x2
	.byte	0x23
	.byte	0x18
	.byte	0x2
	.byte	0x1a
	.ascii "_M_buf_locale\0"
	.byte	0x42
	.byte	0xcf
	.long	0x5bee
	.byte	0x2
	.byte	0x23
	.byte	0x1c
	.byte	0x2
	.byte	0x6b
	.byte	0x1
	.set L$set$1315,LASF642-Lsection__debug_str
	.long L$set$1315
	.byte	0x42
	.byte	0xd4
	.byte	0x1
	.long	0x6d0f
	.byte	0x1
	.long	0x6df7
	.byte	0x1b
	.long	0x7385
	.byte	0x1
	.byte	0x1b
	.long	0xa20
	.byte	0x1
	.byte	0x0
	.byte	0x1c
	.byte	0x1
	.set L$set$1316,LASF643-Lsection__debug_str
	.long L$set$1316
	.byte	0x42
	.byte	0xe0
	.set L$set$1317,LASF644-Lsection__debug_str
	.long L$set$1317
	.long	0x5bee
	.byte	0x1
	.long	0x6e18
	.byte	0x1b
	.long	0x7385
	.byte	0x1
	.byte	0x22
	.long	0x5f60
	.byte	0x0
	.byte	0x1c
	.byte	0x1
	.set L$set$1318,LASF630-Lsection__debug_str
	.long L$set$1318
	.byte	0x42
	.byte	0xf1
	.set L$set$1319,LASF645-Lsection__debug_str
	.long L$set$1319
	.long	0x5bee
	.byte	0x1
	.long	0x6e34
	.byte	0x1b
	.long	0x738b
	.byte	0x1
	.byte	0x0
	.byte	0x1c
	.byte	0x1
	.set L$set$1320,LASF646-Lsection__debug_str
	.long L$set$1320
	.byte	0x42
	.byte	0xfe
	.set L$set$1321,LASF647-Lsection__debug_str
	.long L$set$1321
	.long	0x7385
	.byte	0x1
	.long	0x6e5a
	.byte	0x1b
	.long	0x7385
	.byte	0x1
	.byte	0x22
	.long	0xde7
	.byte	0x22
	.long	0xa20
	.byte	0x0
	.byte	0x44
	.byte	0x1
	.set L$set$1322,LASF648-Lsection__debug_str
	.long L$set$1322
	.byte	0x42
	.word	0x103
	.set L$set$1323,LASF649-Lsection__debug_str
	.long L$set$1323
	.long	0x42c3
	.byte	0x1
	.long	0x6e86
	.byte	0x1b
	.long	0x7385
	.byte	0x1
	.byte	0x22
	.long	0xa9d
	.byte	0x22
	.long	0x170e
	.byte	0x22
	.long	0x1649
	.byte	0x0
	.byte	0x44
	.byte	0x1
	.set L$set$1324,LASF650-Lsection__debug_str
	.long L$set$1324
	.byte	0x42
	.word	0x108
	.set L$set$1325,LASF651-Lsection__debug_str
	.long L$set$1325
	.long	0x42c3
	.byte	0x1
	.long	0x6ead
	.byte	0x1b
	.long	0x7385
	.byte	0x1
	.byte	0x22
	.long	0x1310
	.byte	0x22
	.long	0x1649
	.byte	0x0
	.byte	0x44
	.byte	0x1
	.set L$set$1326,LASF652-Lsection__debug_str
	.long L$set$1326
	.byte	0x42
	.word	0x10c
	.set L$set$1327,LASF653-Lsection__debug_str
	.long L$set$1327
	.long	0xa20
	.byte	0x1
	.long	0x6eca
	.byte	0x1b
	.long	0x7385
	.byte	0x1
	.byte	0x0
	.byte	0x44
	.byte	0x1
	.set L$set$1328,LASF654-Lsection__debug_str
	.long L$set$1328
	.byte	0x42
	.word	0x119
	.set L$set$1329,LASF655-Lsection__debug_str
	.long L$set$1329
	.long	0x68a1
	.byte	0x1
	.long	0x6ee7
	.byte	0x1b
	.long	0x7385
	.byte	0x1
	.byte	0x0
	.byte	0x44
	.byte	0x1
	.set L$set$1330,LASF656-Lsection__debug_str
	.long L$set$1330
	.byte	0x42
	.word	0x127
	.set L$set$1331,LASF657-Lsection__debug_str
	.long L$set$1331
	.long	0xa20
	.byte	0x1
	.long	0x6f04
	.byte	0x1b
	.long	0x7385
	.byte	0x1
	.byte	0x0
	.byte	0x44
	.byte	0x1
	.set L$set$1332,LASF658-Lsection__debug_str
	.long L$set$1332
	.byte	0x42
	.word	0x139
	.set L$set$1333,LASF659-Lsection__debug_str
	.long L$set$1333
	.long	0xa20
	.byte	0x1
	.long	0x6f21
	.byte	0x1b
	.long	0x7385
	.byte	0x1
	.byte	0x0
	.byte	0x44
	.byte	0x1
	.set L$set$1334,LASF660-Lsection__debug_str
	.long L$set$1334
	.byte	0x42
	.word	0x14f
	.set L$set$1335,LASF661-Lsection__debug_str
	.long L$set$1335
	.long	0xa20
	.byte	0x1
	.long	0x6f3e
	.byte	0x1b
	.long	0x7385
	.byte	0x1
	.byte	0x0
	.byte	0x44
	.byte	0x1
	.set L$set$1336,LASF662-Lsection__debug_str
	.long L$set$1336
	.byte	0x42
	.word	0x162
	.set L$set$1337,LASF663-Lsection__debug_str
	.long L$set$1337
	.long	0x68a1
	.byte	0x1
	.long	0x6f65
	.byte	0x1b
	.long	0x7385
	.byte	0x1
	.byte	0x22
	.long	0xde7
	.byte	0x22
	.long	0xa20
	.byte	0x0
	.byte	0x44
	.byte	0x1
	.set L$set$1338,LASF664-Lsection__debug_str
	.long L$set$1338
	.byte	0x42
	.word	0x170
	.set L$set$1339,LASF665-Lsection__debug_str
	.long L$set$1339
	.long	0xa20
	.byte	0x1
	.long	0x6f87
	.byte	0x1b
	.long	0x7385
	.byte	0x1
	.byte	0x22
	.long	0xb17
	.byte	0x0
	.byte	0x44
	.byte	0x1
	.set L$set$1340,LASF666-Lsection__debug_str
	.long L$set$1340
	.byte	0x42
	.word	0x189
	.set L$set$1341,LASF667-Lsection__debug_str
	.long L$set$1341
	.long	0xa20
	.byte	0x1
	.long	0x6fa4
	.byte	0x1b
	.long	0x7385
	.byte	0x1
	.byte	0x0
	.byte	0x44
	.byte	0x1
	.set L$set$1342,LASF668-Lsection__debug_str
	.long L$set$1342
	.byte	0x42
	.word	0x1a4
	.set L$set$1343,LASF669-Lsection__debug_str
	.long L$set$1343
	.long	0xa20
	.byte	0x1
	.long	0x6fc6
	.byte	0x1b
	.long	0x7385
	.byte	0x1
	.byte	0x22
	.long	0xb17
	.byte	0x0
	.byte	0x44
	.byte	0x1
	.set L$set$1344,LASF670-Lsection__debug_str
	.long L$set$1344
	.byte	0x42
	.word	0x1be
	.set L$set$1345,LASF671-Lsection__debug_str
	.long L$set$1345
	.long	0x68a1
	.byte	0x1
	.long	0x6fed
	.byte	0x1b
	.long	0x7385
	.byte	0x1
	.byte	0x22
	.long	0x2b34
	.byte	0x22
	.long	0xa20
	.byte	0x0
	.byte	0x59
	.byte	0x1
	.set L$set$1346,LASF672-Lsection__debug_str
	.long L$set$1346
	.byte	0x42
	.word	0x1cb
	.byte	0x2
	.byte	0x1
	.long	0x7003
	.byte	0x1b
	.long	0x7385
	.byte	0x1
	.byte	0x0
	.byte	0x4f
	.byte	0x1
	.set L$set$1347,LASF673-Lsection__debug_str
	.long L$set$1347
	.byte	0x42
	.word	0x1de
	.set L$set$1348,LASF674-Lsection__debug_str
	.long L$set$1348
	.long	0xde7
	.byte	0x2
	.byte	0x1
	.long	0x7021
	.byte	0x1b
	.long	0x738b
	.byte	0x1
	.byte	0x0
	.byte	0x4f
	.byte	0x1
	.set L$set$1349,LASF675-Lsection__debug_str
	.long L$set$1349
	.byte	0x42
	.word	0x1e1
	.set L$set$1350,LASF676-Lsection__debug_str
	.long L$set$1350
	.long	0xde7
	.byte	0x2
	.byte	0x1
	.long	0x703f
	.byte	0x1b
	.long	0x738b
	.byte	0x1
	.byte	0x0
	.byte	0x4f
	.byte	0x1
	.set L$set$1351,LASF677-Lsection__debug_str
	.long L$set$1351
	.byte	0x42
	.word	0x1e4
	.set L$set$1352,LASF678-Lsection__debug_str
	.long L$set$1352
	.long	0xde7
	.byte	0x2
	.byte	0x1
	.long	0x705d
	.byte	0x1b
	.long	0x738b
	.byte	0x1
	.byte	0x0
	.byte	0x50
	.byte	0x1
	.set L$set$1353,LASF679-Lsection__debug_str
	.long L$set$1353
	.byte	0x42
	.word	0x1ee
	.set L$set$1354,LASF680-Lsection__debug_str
	.long L$set$1354
	.byte	0x2
	.byte	0x1
	.long	0x707c
	.byte	0x1b
	.long	0x7385
	.byte	0x1
	.byte	0x22
	.long	0xa20
	.byte	0x0
	.byte	0x50
	.byte	0x1
	.set L$set$1355,LASF681-Lsection__debug_str
	.long L$set$1355
	.byte	0x42
	.word	0x1f9
	.set L$set$1356,LASF682-Lsection__debug_str
	.long L$set$1356
	.byte	0x2
	.byte	0x1
	.long	0x70a5
	.byte	0x1b
	.long	0x7385
	.byte	0x1
	.byte	0x22
	.long	0xde7
	.byte	0x22
	.long	0xde7
	.byte	0x22
	.long	0xde7
	.byte	0x0
	.byte	0x4f
	.byte	0x1
	.set L$set$1357,LASF683-Lsection__debug_str
	.long L$set$1357
	.byte	0x42
	.word	0x20d
	.set L$set$1358,LASF684-Lsection__debug_str
	.long L$set$1358
	.long	0xde7
	.byte	0x2
	.byte	0x1
	.long	0x70c3
	.byte	0x1b
	.long	0x738b
	.byte	0x1
	.byte	0x0
	.byte	0x4f
	.byte	0x1
	.set L$set$1359,LASF685-Lsection__debug_str
	.long L$set$1359
	.byte	0x42
	.word	0x210
	.set L$set$1360,LASF686-Lsection__debug_str
	.long L$set$1360
	.long	0xde7
	.byte	0x2
	.byte	0x1
	.long	0x70e1
	.byte	0x1b
	.long	0x738b
	.byte	0x1
	.byte	0x0
	.byte	0x4f
	.byte	0x1
	.set L$set$1361,LASF687-Lsection__debug_str
	.long L$set$1361
	.byte	0x42
	.word	0x213
	.set L$set$1362,LASF688-Lsection__debug_str
	.long L$set$1362
	.long	0xde7
	.byte	0x2
	.byte	0x1
	.long	0x70ff
	.byte	0x1b
	.long	0x738b
	.byte	0x1
	.byte	0x0
	.byte	0x50
	.byte	0x1
	.set L$set$1363,LASF689-Lsection__debug_str
	.long L$set$1363
	.byte	0x42
	.word	0x21d
	.set L$set$1364,LASF690-Lsection__debug_str
	.long L$set$1364
	.byte	0x2
	.byte	0x1
	.long	0x711e
	.byte	0x1b
	.long	0x7385
	.byte	0x1
	.byte	0x22
	.long	0xa20
	.byte	0x0
	.byte	0x50
	.byte	0x1
	.set L$set$1365,LASF691-Lsection__debug_str
	.long L$set$1365
	.byte	0x42
	.word	0x227
	.set L$set$1366,LASF692-Lsection__debug_str
	.long L$set$1366
	.byte	0x2
	.byte	0x1
	.long	0x7142
	.byte	0x1b
	.long	0x7385
	.byte	0x1
	.byte	0x22
	.long	0xde7
	.byte	0x22
	.long	0xde7
	.byte	0x0
	.byte	0x6c
	.byte	0x1
	.set L$set$1367,LASF628-Lsection__debug_str
	.long L$set$1367
	.byte	0x42
	.word	0x23c
	.set L$set$1368,LASF892-Lsection__debug_str
	.long L$set$1368
	.byte	0x1
	.byte	0x2
	.byte	0x10
	.byte	0x2
	.long	0x6d0f
	.byte	0x2
	.byte	0x1
	.long	0x7169
	.byte	0x1b
	.long	0x7385
	.byte	0x1
	.byte	0x22
	.long	0x5f60
	.byte	0x0
	.byte	0x6d
	.byte	0x1
	.set L$set$1369,LASF92-Lsection__debug_str
	.long L$set$1369
	.byte	0x42
	.word	0x24b
	.set L$set$1370,LASF694-Lsection__debug_str
	.long L$set$1370
	.long	0x7385
	.byte	0x1
	.byte	0x2
	.byte	0x10
	.byte	0x3
	.long	0x6d0f
	.byte	0x2
	.byte	0x1
	.long	0x7199
	.byte	0x1b
	.long	0x7385
	.byte	0x1
	.byte	0x22
	.long	0xde7
	.byte	0x22
	.long	0xa20
	.byte	0x0
	.byte	0x6d
	.byte	0x1
	.set L$set$1371,LASF693-Lsection__debug_str
	.long L$set$1371
	.byte	0x42
	.word	0x257
	.set L$set$1372,LASF695-Lsection__debug_str
	.long L$set$1372
	.long	0x42c3
	.byte	0x1
	.byte	0x2
	.byte	0x10
	.byte	0x4
	.long	0x6d0f
	.byte	0x2
	.byte	0x1
	.long	0x71ce
	.byte	0x1b
	.long	0x7385
	.byte	0x1
	.byte	0x22
	.long	0xa9d
	.byte	0x22
	.long	0x170e
	.byte	0x22
	.long	0x1649
	.byte	0x0
	.byte	0x6d
	.byte	0x1
	.set L$set$1373,LASF696-Lsection__debug_str
	.long L$set$1373
	.byte	0x42
	.word	0x263
	.set L$set$1374,LASF697-Lsection__debug_str
	.long L$set$1374
	.long	0x42c3
	.byte	0x1
	.byte	0x2
	.byte	0x10
	.byte	0x5
	.long	0x6d0f
	.byte	0x2
	.byte	0x1
	.long	0x71fe
	.byte	0x1b
	.long	0x7385
	.byte	0x1
	.byte	0x22
	.long	0x1310
	.byte	0x22
	.long	0x1649
	.byte	0x0
	.byte	0x6d
	.byte	0x1
	.set L$set$1375,LASF698-Lsection__debug_str
	.long L$set$1375
	.byte	0x42
	.word	0x26f
	.set L$set$1376,LASF699-Lsection__debug_str
	.long L$set$1376
	.long	0xa20
	.byte	0x1
	.byte	0x2
	.byte	0x10
	.byte	0x6
	.long	0x6d0f
	.byte	0x2
	.byte	0x1
	.long	0x7224
	.byte	0x1b
	.long	0x7385
	.byte	0x1
	.byte	0x0
	.byte	0x6d
	.byte	0x1
	.set L$set$1377,LASF700-Lsection__debug_str
	.long L$set$1377
	.byte	0x42
	.word	0x285
	.set L$set$1378,LASF701-Lsection__debug_str
	.long L$set$1378
	.long	0x68a1
	.byte	0x1
	.byte	0x2
	.byte	0x10
	.byte	0x7
	.long	0x6d0f
	.byte	0x2
	.byte	0x1
	.long	0x724a
	.byte	0x1b
	.long	0x7385
	.byte	0x1
	.byte	0x0
	.byte	0x6e
	.byte	0x1
	.set L$set$1379,LASF702-Lsection__debug_str
	.long L$set$1379
	.byte	0x43
	.byte	0x32
	.set L$set$1380,LASF710-Lsection__debug_str
	.long L$set$1380
	.long	0x68a1
	.byte	0x1
	.byte	0x2
	.byte	0x10
	.byte	0x8
	.long	0x6d0f
	.byte	0x2
	.byte	0x1
	.long	0x7279
	.byte	0x1b
	.long	0x7385
	.byte	0x1
	.byte	0x22
	.long	0xde7
	.byte	0x22
	.long	0xa20
	.byte	0x0
	.byte	0x6d
	.byte	0x1
	.set L$set$1381,LASF703-Lsection__debug_str
	.long L$set$1381
	.byte	0x42
	.word	0x2ab
	.set L$set$1382,LASF704-Lsection__debug_str
	.long L$set$1382
	.long	0xa20
	.byte	0x1
	.byte	0x2
	.byte	0x10
	.byte	0x9
	.long	0x6d0f
	.byte	0x2
	.byte	0x1
	.long	0x729f
	.byte	0x1b
	.long	0x7385
	.byte	0x1
	.byte	0x0
	.byte	0x6d
	.byte	0x1
	.set L$set$1383,LASF705-Lsection__debug_str
	.long L$set$1383
	.byte	0x42
	.word	0x2b8
	.set L$set$1384,LASF706-Lsection__debug_str
	.long L$set$1384
	.long	0xa20
	.byte	0x1
	.byte	0x2
	.byte	0x10
	.byte	0xa
	.long	0x6d0f
	.byte	0x2
	.byte	0x1
	.long	0x72c5
	.byte	0x1b
	.long	0x7385
	.byte	0x1
	.byte	0x0
	.byte	0x6d
	.byte	0x1
	.set L$set$1385,LASF707-Lsection__debug_str
	.long L$set$1385
	.byte	0x42
	.word	0x2d0
	.set L$set$1386,LASF708-Lsection__debug_str
	.long L$set$1386
	.long	0xa20
	.byte	0x1
	.byte	0x2
	.byte	0x10
	.byte	0xb
	.long	0x6d0f
	.byte	0x2
	.byte	0x1
	.long	0x72f0
	.byte	0x1b
	.long	0x7385
	.byte	0x1
	.byte	0x22
	.long	0xa20
	.byte	0x0
	.byte	0x6e
	.byte	0x1
	.set L$set$1387,LASF709-Lsection__debug_str
	.long L$set$1387
	.byte	0x43
	.byte	0x54
	.set L$set$1388,LASF711-Lsection__debug_str
	.long L$set$1388
	.long	0x68a1
	.byte	0x1
	.byte	0x2
	.byte	0x10
	.byte	0xc
	.long	0x6d0f
	.byte	0x2
	.byte	0x1
	.long	0x731f
	.byte	0x1b
	.long	0x7385
	.byte	0x1
	.byte	0x22
	.long	0x2b34
	.byte	0x22
	.long	0xa20
	.byte	0x0
	.byte	0x6d
	.byte	0x1
	.set L$set$1389,LASF712-Lsection__debug_str
	.long L$set$1389
	.byte	0x42
	.word	0x2fb
	.set L$set$1390,LASF713-Lsection__debug_str
	.long L$set$1390
	.long	0xa20
	.byte	0x1
	.byte	0x2
	.byte	0x10
	.byte	0xd
	.long	0x6d0f
	.byte	0x2
	.byte	0x1
	.long	0x734a
	.byte	0x1b
	.long	0x7385
	.byte	0x1
	.byte	0x22
	.long	0xa20
	.byte	0x0
	.byte	0x59
	.byte	0x1
	.set L$set$1391,LASF672-Lsection__debug_str
	.long L$set$1391
	.byte	0x42
	.word	0x31a
	.byte	0x3
	.byte	0x1
	.long	0x7365
	.byte	0x1b
	.long	0x7385
	.byte	0x1
	.byte	0x22
	.long	0x7396
	.byte	0x0
	.byte	0x5f
	.byte	0x1
	.set L$set$1392,LASF22-Lsection__debug_str
	.long L$set$1392
	.byte	0x42
	.word	0x322
	.set L$set$1393,LASF714-Lsection__debug_str
	.long L$set$1393
	.long	0x739c
	.byte	0x3
	.byte	0x1
	.byte	0x1b
	.long	0x7385
	.byte	0x1
	.byte	0x22
	.long	0x7396
	.byte	0x0
	.byte	0x0
	.byte	0x1f
	.byte	0x4
	.long	0x6d0f
	.byte	0x1f
	.byte	0x4
	.long	0x7391
	.byte	0x20
	.long	0x6d0f
	.byte	0x24
	.byte	0x4
	.long	0x7391
	.byte	0x24
	.byte	0x4
	.long	0x6d0f
	.byte	0x7
	.ascii "wctrans_t\0"
	.byte	0x44
	.byte	0x27
	.long	0xcb7
	.byte	0x29
	.byte	0x4
	.byte	0x5
	.byte	0x29
	.byte	0x4
	.byte	0x7
	.byte	0x29
	.byte	0x4
	.byte	0x5
	.byte	0x47
	.set L$set$1394,LASF715-Lsection__debug_str
	.long L$set$1394
	.byte	0x38
	.byte	0x48
	.set L$set$1395,LASF716-Lsection__debug_str
	.long L$set$1395
	.long	0xa20
	.byte	0x1
	.long	0x73d6
	.byte	0x22
	.long	0x31c2
	.byte	0x0
	.byte	0x47
	.set L$set$1396,LASF717-Lsection__debug_str
	.long L$set$1396
	.byte	0x38
	.byte	0x4e
	.set L$set$1397,LASF718-Lsection__debug_str
	.long L$set$1397
	.long	0xa20
	.byte	0x1
	.long	0x73f0
	.byte	0x22
	.long	0x31c2
	.byte	0x0
	.byte	0x47
	.set L$set$1398,LASF719-Lsection__debug_str
	.long L$set$1398
	.byte	0x44
	.byte	0x3f
	.set L$set$1399,LASF720-Lsection__debug_str
	.long L$set$1399
	.long	0xa20
	.byte	0x1
	.long	0x740a
	.byte	0x22
	.long	0x31c2
	.byte	0x0
	.byte	0x47
	.set L$set$1400,LASF721-Lsection__debug_str
	.long L$set$1400
	.byte	0x38
	.byte	0x54
	.set L$set$1401,LASF722-Lsection__debug_str
	.long L$set$1401
	.long	0xa20
	.byte	0x1
	.long	0x7424
	.byte	0x22
	.long	0x31c2
	.byte	0x0
	.byte	0x47
	.set L$set$1402,LASF723-Lsection__debug_str
	.long L$set$1402
	.byte	0x38
	.byte	0x5a
	.set L$set$1403,LASF724-Lsection__debug_str
	.long L$set$1403
	.long	0xa20
	.byte	0x1
	.long	0x7443
	.byte	0x22
	.long	0x31c2
	.byte	0x22
	.long	0x3757
	.byte	0x0
	.byte	0x47
	.set L$set$1404,LASF725-Lsection__debug_str
	.long L$set$1404
	.byte	0x38
	.byte	0x60
	.set L$set$1405,LASF726-Lsection__debug_str
	.long L$set$1405
	.long	0xa20
	.byte	0x1
	.long	0x745d
	.byte	0x22
	.long	0x31c2
	.byte	0x0
	.byte	0x47
	.set L$set$1406,LASF727-Lsection__debug_str
	.long L$set$1406
	.byte	0x38
	.byte	0x66
	.set L$set$1407,LASF728-Lsection__debug_str
	.long L$set$1407
	.long	0xa20
	.byte	0x1
	.long	0x7477
	.byte	0x22
	.long	0x31c2
	.byte	0x0
	.byte	0x47
	.set L$set$1408,LASF729-Lsection__debug_str
	.long L$set$1408
	.byte	0x38
	.byte	0x6c
	.set L$set$1409,LASF730-Lsection__debug_str
	.long L$set$1409
	.long	0xa20
	.byte	0x1
	.long	0x7491
	.byte	0x22
	.long	0x31c2
	.byte	0x0
	.byte	0x47
	.set L$set$1410,LASF731-Lsection__debug_str
	.long L$set$1410
	.byte	0x38
	.byte	0x72
	.set L$set$1411,LASF732-Lsection__debug_str
	.long L$set$1411
	.long	0xa20
	.byte	0x1
	.long	0x74ab
	.byte	0x22
	.long	0x31c2
	.byte	0x0
	.byte	0x47
	.set L$set$1412,LASF733-Lsection__debug_str
	.long L$set$1412
	.byte	0x38
	.byte	0x78
	.set L$set$1413,LASF734-Lsection__debug_str
	.long L$set$1413
	.long	0xa20
	.byte	0x1
	.long	0x74c5
	.byte	0x22
	.long	0x31c2
	.byte	0x0
	.byte	0x47
	.set L$set$1414,LASF735-Lsection__debug_str
	.long L$set$1414
	.byte	0x38
	.byte	0x7e
	.set L$set$1415,LASF736-Lsection__debug_str
	.long L$set$1415
	.long	0xa20
	.byte	0x1
	.long	0x74df
	.byte	0x22
	.long	0x31c2
	.byte	0x0
	.byte	0x47
	.set L$set$1416,LASF737-Lsection__debug_str
	.long L$set$1416
	.byte	0x38
	.byte	0x84
	.set L$set$1417,LASF738-Lsection__debug_str
	.long L$set$1417
	.long	0xa20
	.byte	0x1
	.long	0x74f9
	.byte	0x22
	.long	0x31c2
	.byte	0x0
	.byte	0x47
	.set L$set$1418,LASF739-Lsection__debug_str
	.long L$set$1418
	.byte	0x38
	.byte	0x8a
	.set L$set$1419,LASF740-Lsection__debug_str
	.long L$set$1419
	.long	0xa20
	.byte	0x1
	.long	0x7513
	.byte	0x22
	.long	0x31c2
	.byte	0x0
	.byte	0x40
	.byte	0x1
	.set L$set$1420,LASF741-Lsection__debug_str
	.long L$set$1420
	.byte	0x44
	.byte	0x86
	.long	0x31c2
	.byte	0x1
	.long	0x752f
	.byte	0x22
	.long	0x31c2
	.byte	0x22
	.long	0x73a2
	.byte	0x0
	.byte	0x47
	.set L$set$1421,LASF742-Lsection__debug_str
	.long L$set$1421
	.byte	0x38
	.byte	0x90
	.set L$set$1422,LASF743-Lsection__debug_str
	.long L$set$1422
	.long	0x31c2
	.byte	0x1
	.long	0x7549
	.byte	0x22
	.long	0x31c2
	.byte	0x0
	.byte	0x47
	.set L$set$1423,LASF744-Lsection__debug_str
	.long L$set$1423
	.byte	0x38
	.byte	0x96
	.set L$set$1424,LASF745-Lsection__debug_str
	.long L$set$1424
	.long	0x31c2
	.byte	0x1
	.long	0x7563
	.byte	0x22
	.long	0x31c2
	.byte	0x0
	.byte	0x40
	.byte	0x1
	.set L$set$1425,LASF746-Lsection__debug_str
	.long L$set$1425
	.byte	0x44
	.byte	0x88
	.long	0x73a2
	.byte	0x1
	.long	0x757a
	.byte	0x22
	.long	0x2b34
	.byte	0x0
	.byte	0x40
	.byte	0x1
	.set L$set$1426,LASF747-Lsection__debug_str
	.long L$set$1426
	.byte	0x38
	.byte	0xb2
	.long	0x3757
	.byte	0x1
	.long	0x7591
	.byte	0x22
	.long	0x2b34
	.byte	0x0
	.byte	0x19
	.long	0x19ff
	.byte	0x1
	.byte	0x45
	.byte	0x2a
	.long	0x768a
	.byte	0x6f
	.ascii "upper\0"
	.byte	0x45
	.byte	0x31
	.set L$set$1427,LASF748-Lsection__debug_str
	.long L$set$1427
	.long	0x768a
	.byte	0x1
	.byte	0x1
	.word	0x8000
	.byte	0x6f
	.ascii "lower\0"
	.byte	0x45
	.byte	0x32
	.set L$set$1428,LASF749-Lsection__debug_str
	.long L$set$1428
	.long	0x768a
	.byte	0x1
	.byte	0x1
	.word	0x1000
	.byte	0x6f
	.ascii "alpha\0"
	.byte	0x45
	.byte	0x33
	.set L$set$1429,LASF750-Lsection__debug_str
	.long L$set$1429
	.long	0x768a
	.byte	0x1
	.byte	0x1
	.word	0x100
	.byte	0x6f
	.ascii "digit\0"
	.byte	0x45
	.byte	0x34
	.set L$set$1430,LASF751-Lsection__debug_str
	.long L$set$1430
	.long	0x768a
	.byte	0x1
	.byte	0x1
	.word	0x400
	.byte	0x70
	.ascii "xdigit\0"
	.byte	0x45
	.byte	0x35
	.set L$set$1431,LASF752-Lsection__debug_str
	.long L$set$1431
	.long	0x768a
	.byte	0x1
	.byte	0x1
	.long	0x10000
	.byte	0x6f
	.ascii "space\0"
	.byte	0x45
	.byte	0x36
	.set L$set$1432,LASF753-Lsection__debug_str
	.long L$set$1432
	.long	0x768a
	.byte	0x1
	.byte	0x1
	.word	0x4000
	.byte	0x70
	.ascii "print\0"
	.byte	0x45
	.byte	0x37
	.set L$set$1433,LASF754-Lsection__debug_str
	.long L$set$1433
	.long	0x768a
	.byte	0x1
	.byte	0x1
	.long	0x40000
	.byte	0x6f
	.ascii "graph\0"
	.byte	0x45
	.byte	0x38
	.set L$set$1434,LASF755-Lsection__debug_str
	.long L$set$1434
	.long	0x768a
	.byte	0x1
	.byte	0x1
	.word	0x2500
	.byte	0x6f
	.ascii "cntrl\0"
	.byte	0x45
	.byte	0x39
	.set L$set$1435,LASF756-Lsection__debug_str
	.long L$set$1435
	.long	0x768a
	.byte	0x1
	.byte	0x1
	.word	0x200
	.byte	0x6f
	.ascii "punct\0"
	.byte	0x45
	.byte	0x3a
	.set L$set$1436,LASF757-Lsection__debug_str
	.long L$set$1436
	.long	0x768a
	.byte	0x1
	.byte	0x1
	.word	0x2000
	.byte	0x6f
	.ascii "alnum\0"
	.byte	0x45
	.byte	0x3b
	.set L$set$1437,LASF758-Lsection__debug_str
	.long L$set$1437
	.long	0x768a
	.byte	0x1
	.byte	0x1
	.word	0x500
	.byte	0x0
	.byte	0x20
	.long	0xb63
	.byte	0x1f
	.byte	0x4
	.long	0x449f
	.byte	0x71
	.long	0x1a0c
	.word	0x220
	.byte	0x2b
	.word	0x2a5
	.long	0x5f71
	.long	0x7c12
	.byte	0x32
	.long	0x5f71
	.byte	0x2
	.byte	0x23
	.byte	0x0
	.byte	0x1
	.byte	0x32
	.long	0x7591
	.byte	0x2
	.byte	0x23
	.byte	0x0
	.byte	0x1
	.byte	0x4e
	.ascii "_M_c_locale_ctype\0"
	.byte	0x2b
	.word	0x2ad
	.long	0x5fa7
	.byte	0x2
	.byte	0x23
	.byte	0x8
	.byte	0x2
	.byte	0x4e
	.ascii "_M_del\0"
	.byte	0x2b
	.word	0x2ae
	.long	0xe2a
	.byte	0x2
	.byte	0x23
	.byte	0xc
	.byte	0x2
	.byte	0x4e
	.ascii "_M_toupper\0"
	.byte	0x2b
	.word	0x2af
	.long	0x768f
	.byte	0x2
	.byte	0x23
	.byte	0x10
	.byte	0x2
	.byte	0x4e
	.ascii "_M_tolower\0"
	.byte	0x2b
	.word	0x2b0
	.long	0x768f
	.byte	0x2
	.byte	0x23
	.byte	0x14
	.byte	0x2
	.byte	0x4e
	.ascii "_M_table\0"
	.byte	0x2b
	.word	0x2b1
	.long	0x7c12
	.byte	0x2
	.byte	0x23
	.byte	0x18
	.byte	0x2
	.byte	0x4e
	.ascii "_M_widen_ok\0"
	.byte	0x2b
	.word	0x2b2
	.long	0xb17
	.byte	0x2
	.byte	0x23
	.byte	0x1c
	.byte	0x2
	.byte	0x4e
	.ascii "_M_widen\0"
	.byte	0x2b
	.word	0x2b3
	.long	0x7c18
	.byte	0x2
	.byte	0x23
	.byte	0x1d
	.byte	0x2
	.byte	0x4e
	.ascii "_M_narrow\0"
	.byte	0x2b
	.word	0x2b4
	.long	0x7c18
	.byte	0x3
	.byte	0x23
	.byte	0x9d,0x2
	.byte	0x2
	.byte	0x4e
	.ascii "_M_narrow_ok\0"
	.byte	0x2b
	.word	0x2b5
	.long	0xb17
	.byte	0x3
	.byte	0x23
	.byte	0x9d,0x4
	.byte	0x2
	.byte	0x72
	.set L$set$1438,LASF493-Lsection__debug_str
	.long L$set$1438
	.byte	0x2b
	.word	0x2ba
	.ascii "_ZNSt5ctypeIcE2idE\0"
	.long	0x61aa
	.byte	0x1
	.byte	0x1
	.byte	0x73
	.ascii "table_size\0"
	.byte	0x2b
	.word	0x2bc
	.ascii "_ZNSt5ctypeIcE10table_sizeE\0"
	.long	0x599f
	.byte	0x1
	.byte	0x1
	.word	0x100
	.byte	0x36
	.byte	0x1
	.set L$set$1439,LASF478-Lsection__debug_str
	.long L$set$1439
	.byte	0x2b
	.word	0x2c9
	.byte	0x1
	.long	0x7803
	.byte	0x1b
	.long	0x7c28
	.byte	0x1
	.byte	0x22
	.long	0x7c12
	.byte	0x22
	.long	0xe2a
	.byte	0x22
	.long	0xcf9
	.byte	0x0
	.byte	0x36
	.byte	0x1
	.set L$set$1440,LASF478-Lsection__debug_str
	.long L$set$1440
	.byte	0x2b
	.word	0x2d7
	.byte	0x1
	.long	0x782c
	.byte	0x1b
	.long	0x7c28
	.byte	0x1
	.byte	0x22
	.long	0x5fa7
	.byte	0x22
	.long	0x7c12
	.byte	0x22
	.long	0xe2a
	.byte	0x22
	.long	0xcf9
	.byte	0x0
	.byte	0x44
	.byte	0x1
	.set L$set$1441,LASF759-Lsection__debug_str
	.long L$set$1441
	.byte	0x2b
	.word	0x2e3
	.set L$set$1442,LASF760-Lsection__debug_str
	.long L$set$1442
	.long	0xe2a
	.byte	0x1
	.long	0x7853
	.byte	0x1b
	.long	0x7c2e
	.byte	0x1
	.byte	0x22
	.long	0xb63
	.byte	0x22
	.long	0xb17
	.byte	0x0
	.byte	0x44
	.byte	0x1
	.set L$set$1443,LASF759-Lsection__debug_str
	.long L$set$1443
	.byte	0x2b
	.word	0x2f2
	.set L$set$1444,LASF761-Lsection__debug_str
	.long L$set$1444
	.long	0x2b34
	.byte	0x1
	.long	0x787f
	.byte	0x1b
	.long	0x7c2e
	.byte	0x1
	.byte	0x22
	.long	0x2b34
	.byte	0x22
	.long	0x2b34
	.byte	0x22
	.long	0x7c39
	.byte	0x0
	.byte	0x44
	.byte	0x1
	.set L$set$1445,LASF762-Lsection__debug_str
	.long L$set$1445
	.byte	0x2b
	.word	0x300
	.set L$set$1446,LASF763-Lsection__debug_str
	.long L$set$1446
	.long	0x2b34
	.byte	0x1
	.long	0x78ab
	.byte	0x1b
	.long	0x7c2e
	.byte	0x1
	.byte	0x22
	.long	0xb63
	.byte	0x22
	.long	0x2b34
	.byte	0x22
	.long	0x2b34
	.byte	0x0
	.byte	0x44
	.byte	0x1
	.set L$set$1447,LASF764-Lsection__debug_str
	.long L$set$1447
	.byte	0x2b
	.word	0x30e
	.set L$set$1448,LASF765-Lsection__debug_str
	.long L$set$1448
	.long	0x2b34
	.byte	0x1
	.long	0x78d7
	.byte	0x1b
	.long	0x7c2e
	.byte	0x1
	.byte	0x22
	.long	0xb63
	.byte	0x22
	.long	0x2b34
	.byte	0x22
	.long	0x2b34
	.byte	0x0
	.byte	0x44
	.byte	0x1
	.set L$set$1449,LASF128-Lsection__debug_str
	.long L$set$1449
	.byte	0x2b
	.word	0x31d
	.set L$set$1450,LASF766-Lsection__debug_str
	.long L$set$1450
	.long	0xb17
	.byte	0x1
	.long	0x78f9
	.byte	0x1b
	.long	0x7c2e
	.byte	0x1
	.byte	0x22
	.long	0xb17
	.byte	0x0
	.byte	0x44
	.byte	0x1
	.set L$set$1451,LASF128-Lsection__debug_str
	.long L$set$1451
	.byte	0x2b
	.word	0x32e
	.set L$set$1452,LASF767-Lsection__debug_str
	.long L$set$1452
	.long	0x2b34
	.byte	0x1
	.long	0x7920
	.byte	0x1b
	.long	0x7c2e
	.byte	0x1
	.byte	0x22
	.long	0xde7
	.byte	0x22
	.long	0x2b34
	.byte	0x0
	.byte	0x44
	.byte	0x1
	.set L$set$1453,LASF126-Lsection__debug_str
	.long L$set$1453
	.byte	0x2b
	.word	0x33e
	.set L$set$1454,LASF768-Lsection__debug_str
	.long L$set$1454
	.long	0xb17
	.byte	0x1
	.long	0x7942
	.byte	0x1b
	.long	0x7c2e
	.byte	0x1
	.byte	0x22
	.long	0xb17
	.byte	0x0
	.byte	0x44
	.byte	0x1
	.set L$set$1455,LASF126-Lsection__debug_str
	.long L$set$1455
	.byte	0x2b
	.word	0x34f
	.set L$set$1456,LASF769-Lsection__debug_str
	.long L$set$1456
	.long	0x2b34
	.byte	0x1
	.long	0x7969
	.byte	0x1b
	.long	0x7c2e
	.byte	0x1
	.byte	0x22
	.long	0xde7
	.byte	0x22
	.long	0x2b34
	.byte	0x0
	.byte	0x44
	.byte	0x1
	.set L$set$1457,LASF770-Lsection__debug_str
	.long L$set$1457
	.byte	0x2b
	.word	0x363
	.set L$set$1458,LASF771-Lsection__debug_str
	.long L$set$1458
	.long	0xb17
	.byte	0x1
	.long	0x798b
	.byte	0x1b
	.long	0x7c2e
	.byte	0x1
	.byte	0x22
	.long	0xb17
	.byte	0x0
	.byte	0x44
	.byte	0x1
	.set L$set$1459,LASF770-Lsection__debug_str
	.long L$set$1459
	.byte	0x2b
	.word	0x37e
	.set L$set$1460,LASF772-Lsection__debug_str
	.long L$set$1460
	.long	0x2b34
	.byte	0x1
	.long	0x79b7
	.byte	0x1b
	.long	0x7c2e
	.byte	0x1
	.byte	0x22
	.long	0x2b34
	.byte	0x22
	.long	0x2b34
	.byte	0x22
	.long	0xde7
	.byte	0x0
	.byte	0x44
	.byte	0x1
	.set L$set$1461,LASF773-Lsection__debug_str
	.long L$set$1461
	.byte	0x2b
	.word	0x39d
	.set L$set$1462,LASF774-Lsection__debug_str
	.long L$set$1462
	.long	0xb17
	.byte	0x1
	.long	0x79de
	.byte	0x1b
	.long	0x7c2e
	.byte	0x1
	.byte	0x22
	.long	0xb17
	.byte	0x22
	.long	0xb17
	.byte	0x0
	.byte	0x44
	.byte	0x1
	.set L$set$1463,LASF773-Lsection__debug_str
	.long L$set$1463
	.byte	0x2b
	.word	0x3bf
	.set L$set$1464,LASF775-Lsection__debug_str
	.long L$set$1464
	.long	0x2b34
	.byte	0x1
	.long	0x7a0f
	.byte	0x1b
	.long	0x7c2e
	.byte	0x1
	.byte	0x22
	.long	0x2b34
	.byte	0x22
	.long	0x2b34
	.byte	0x22
	.long	0xb17
	.byte	0x22
	.long	0xde7
	.byte	0x0
	.byte	0x4f
	.byte	0x1
	.set L$set$1465,LASF776-Lsection__debug_str
	.long L$set$1465
	.byte	0x2b
	.word	0x3cf
	.set L$set$1466,LASF777-Lsection__debug_str
	.long L$set$1466
	.long	0x7c12
	.byte	0x2
	.byte	0x1
	.long	0x7a2d
	.byte	0x1b
	.long	0x7c2e
	.byte	0x1
	.byte	0x0
	.byte	0x51
	.byte	0x1
	.set L$set$1467,LASF778-Lsection__debug_str
	.long L$set$1467
	.byte	0x2b
	.word	0x3d4
	.set L$set$1468,LASF779-Lsection__debug_str
	.long L$set$1468
	.long	0x7c12
	.byte	0x2
	.byte	0x1
	.byte	0x5e
	.byte	0x1
	.set L$set$1469,LASF780-Lsection__debug_str
	.long L$set$1469
	.byte	0x2b
	.word	0x3dd
	.byte	0x1
	.long	0x7695
	.byte	0x2
	.byte	0x1
	.long	0x7a61
	.byte	0x1b
	.long	0x7c28
	.byte	0x1
	.byte	0x1b
	.long	0xa20
	.byte	0x1
	.byte	0x0
	.byte	0x6d
	.byte	0x1
	.set L$set$1470,LASF781-Lsection__debug_str
	.long L$set$1470
	.byte	0x2b
	.word	0x3ed
	.set L$set$1471,LASF782-Lsection__debug_str
	.long L$set$1471
	.long	0xb17
	.byte	0x1
	.byte	0x2
	.byte	0x10
	.byte	0x2
	.long	0x7695
	.byte	0x2
	.byte	0x1
	.long	0x7a8c
	.byte	0x1b
	.long	0x7c2e
	.byte	0x1
	.byte	0x22
	.long	0xb17
	.byte	0x0
	.byte	0x6d
	.byte	0x1
	.set L$set$1472,LASF781-Lsection__debug_str
	.long L$set$1472
	.byte	0x2b
	.word	0x3fe
	.set L$set$1473,LASF783-Lsection__debug_str
	.long L$set$1473
	.long	0x2b34
	.byte	0x1
	.byte	0x2
	.byte	0x10
	.byte	0x3
	.long	0x7695
	.byte	0x2
	.byte	0x1
	.long	0x7abc
	.byte	0x1b
	.long	0x7c2e
	.byte	0x1
	.byte	0x22
	.long	0xde7
	.byte	0x22
	.long	0x2b34
	.byte	0x0
	.byte	0x6d
	.byte	0x1
	.set L$set$1474,LASF784-Lsection__debug_str
	.long L$set$1474
	.byte	0x2b
	.word	0x40e
	.set L$set$1475,LASF785-Lsection__debug_str
	.long L$set$1475
	.long	0xb17
	.byte	0x1
	.byte	0x2
	.byte	0x10
	.byte	0x4
	.long	0x7695
	.byte	0x2
	.byte	0x1
	.long	0x7ae7
	.byte	0x1b
	.long	0x7c2e
	.byte	0x1
	.byte	0x22
	.long	0xb17
	.byte	0x0
	.byte	0x6d
	.byte	0x1
	.set L$set$1476,LASF784-Lsection__debug_str
	.long L$set$1476
	.byte	0x2b
	.word	0x41f
	.set L$set$1477,LASF786-Lsection__debug_str
	.long L$set$1477
	.long	0x2b34
	.byte	0x1
	.byte	0x2
	.byte	0x10
	.byte	0x5
	.long	0x7695
	.byte	0x2
	.byte	0x1
	.long	0x7b17
	.byte	0x1b
	.long	0x7c2e
	.byte	0x1
	.byte	0x22
	.long	0xde7
	.byte	0x22
	.long	0x2b34
	.byte	0x0
	.byte	0x6d
	.byte	0x1
	.set L$set$1478,LASF787-Lsection__debug_str
	.long L$set$1478
	.byte	0x2b
	.word	0x433
	.set L$set$1479,LASF788-Lsection__debug_str
	.long L$set$1479
	.long	0xb17
	.byte	0x1
	.byte	0x2
	.byte	0x10
	.byte	0x6
	.long	0x7695
	.byte	0x2
	.byte	0x1
	.long	0x7b42
	.byte	0x1b
	.long	0x7c2e
	.byte	0x1
	.byte	0x22
	.long	0xb17
	.byte	0x0
	.byte	0x6d
	.byte	0x1
	.set L$set$1480,LASF787-Lsection__debug_str
	.long L$set$1480
	.byte	0x2b
	.word	0x44a
	.set L$set$1481,LASF789-Lsection__debug_str
	.long L$set$1481
	.long	0x2b34
	.byte	0x1
	.byte	0x2
	.byte	0x10
	.byte	0x7
	.long	0x7695
	.byte	0x2
	.byte	0x1
	.long	0x7b77
	.byte	0x1b
	.long	0x7c2e
	.byte	0x1
	.byte	0x22
	.long	0x2b34
	.byte	0x22
	.long	0x2b34
	.byte	0x22
	.long	0xde7
	.byte	0x0
	.byte	0x6d
	.byte	0x1
	.set L$set$1482,LASF790-Lsection__debug_str
	.long L$set$1482
	.byte	0x2b
	.word	0x464
	.set L$set$1483,LASF791-Lsection__debug_str
	.long L$set$1483
	.long	0xb17
	.byte	0x1
	.byte	0x2
	.byte	0x10
	.byte	0x8
	.long	0x7695
	.byte	0x2
	.byte	0x1
	.long	0x7ba7
	.byte	0x1b
	.long	0x7c2e
	.byte	0x1
	.byte	0x22
	.long	0xb17
	.byte	0x22
	.long	0xb17
	.byte	0x0
	.byte	0x6d
	.byte	0x1
	.set L$set$1484,LASF790-Lsection__debug_str
	.long L$set$1484
	.byte	0x2b
	.word	0x47f
	.set L$set$1485,LASF792-Lsection__debug_str
	.long L$set$1485
	.long	0x2b34
	.byte	0x1
	.byte	0x2
	.byte	0x10
	.byte	0x9
	.long	0x7695
	.byte	0x2
	.byte	0x1
	.long	0x7be1
	.byte	0x1b
	.long	0x7c2e
	.byte	0x1
	.byte	0x22
	.long	0x2b34
	.byte	0x22
	.long	0x2b34
	.byte	0x22
	.long	0xb17
	.byte	0x22
	.long	0xde7
	.byte	0x0
	.byte	0x50
	.byte	0x1
	.set L$set$1486,LASF793-Lsection__debug_str
	.long L$set$1486
	.byte	0x2b
	.word	0x487
	.set L$set$1487,LASF794-Lsection__debug_str
	.long L$set$1487
	.byte	0x3
	.byte	0x1
	.long	0x7bfb
	.byte	0x1b
	.long	0x7c2e
	.byte	0x1
	.byte	0x0
	.byte	0x5b
	.byte	0x1
	.set L$set$1488,LASF795-Lsection__debug_str
	.long L$set$1488
	.byte	0x2b
	.word	0x497
	.set L$set$1489,LASF796-Lsection__debug_str
	.long L$set$1489
	.byte	0x3
	.byte	0x1
	.byte	0x1b
	.long	0x7c2e
	.byte	0x1
	.byte	0x0
	.byte	0x0
	.byte	0x1f
	.byte	0x4
	.long	0x768a
	.byte	0x27
	.long	0xb17
	.long	0x7c28
	.byte	0x28
	.long	0xb14
	.byte	0xff
	.byte	0x0
	.byte	0x1f
	.byte	0x4
	.long	0x7695
	.byte	0x1f
	.byte	0x4
	.long	0x7c34
	.byte	0x20
	.long	0x7695
	.byte	0x1f
	.byte	0x4
	.long	0xb63
	.byte	0x60
	.long	0x1a1a
	.byte	0x1
	.byte	0x2b
	.word	0xdc3
	.long	0x7c93
	.byte	0x74
	.set L$set$1490,LASF797-Lsection__debug_str
	.long L$set$1490
	.byte	0x2b
	.word	0xdc8
	.set L$set$1491,LASF798-Lsection__debug_str
	.long L$set$1491
	.long	0x7c93
	.byte	0x1
	.byte	0x1
	.byte	0x74
	.set L$set$1492,LASF799-Lsection__debug_str
	.long L$set$1492
	.byte	0x2b
	.word	0xdd3
	.set L$set$1493,LASF800-Lsection__debug_str
	.long L$set$1493
	.long	0x2b34
	.byte	0x1
	.byte	0x1
	.byte	0x38
	.byte	0x1
	.set L$set$1494,LASF801-Lsection__debug_str
	.long L$set$1494
	.byte	0x2b
	.word	0xdd8
	.set L$set$1495,LASF802-Lsection__debug_str
	.long L$set$1495
	.long	0x1a2b
	.byte	0x1
	.byte	0x22
	.long	0xb17
	.byte	0x22
	.long	0xb17
	.byte	0x22
	.long	0xb17
	.byte	0x0
	.byte	0x0
	.byte	0x20
	.long	0x1a2b
	.byte	0x63
	.long	0x1a4b
	.byte	0x88
	.byte	0x41
	.byte	0x37
	.long	0x659c
	.long	0x806a
	.byte	0x32
	.long	0x659c
	.byte	0x2
	.byte	0x23
	.byte	0x0
	.byte	0x1
	.byte	0x1a
	.ascii "_M_tie\0"
	.byte	0x46
	.byte	0x57
	.long	0x806a
	.byte	0x2
	.byte	0x23
	.byte	0x70
	.byte	0x2
	.byte	0x1a
	.ascii "_M_fill\0"
	.byte	0x46
	.byte	0x58
	.long	0xb17
	.byte	0x2
	.byte	0x23
	.byte	0x74
	.byte	0x2
	.byte	0x1a
	.ascii "_M_fill_init\0"
	.byte	0x46
	.byte	0x59
	.long	0xe2a
	.byte	0x2
	.byte	0x23
	.byte	0x75
	.byte	0x2
	.byte	0x1a
	.ascii "_M_streambuf\0"
	.byte	0x46
	.byte	0x5a
	.long	0x7385
	.byte	0x2
	.byte	0x23
	.byte	0x78
	.byte	0x2
	.byte	0x1a
	.ascii "_M_ctype\0"
	.byte	0x46
	.byte	0x5d
	.long	0x7c2e
	.byte	0x2
	.byte	0x23
	.byte	0x7c
	.byte	0x2
	.byte	0x1a
	.ascii "_M_num_put\0"
	.byte	0x46
	.byte	0x5f
	.long	0x8070
	.byte	0x3
	.byte	0x23
	.byte	0x80,0x1
	.byte	0x2
	.byte	0x1a
	.ascii "_M_num_get\0"
	.byte	0x46
	.byte	0x61
	.long	0x807b
	.byte	0x3
	.byte	0x23
	.byte	0x84,0x1
	.byte	0x2
	.byte	0x1c
	.byte	0x1
	.set L$set$1496,LASF803-Lsection__debug_str
	.long L$set$1496
	.byte	0x46
	.byte	0x6b
	.set L$set$1497,LASF804-Lsection__debug_str
	.long L$set$1497
	.long	0xc1d
	.byte	0x1
	.long	0x7d64
	.byte	0x1b
	.long	0x8086
	.byte	0x1
	.byte	0x0
	.byte	0x1c
	.byte	0x1
	.set L$set$1498,LASF805-Lsection__debug_str
	.long L$set$1498
	.byte	0x46
	.byte	0x6f
	.set L$set$1499,LASF806-Lsection__debug_str
	.long L$set$1499
	.long	0xe2a
	.byte	0x1
	.long	0x7d80
	.byte	0x1b
	.long	0x8086
	.byte	0x1
	.byte	0x0
	.byte	0x1c
	.byte	0x1
	.set L$set$1500,LASF807-Lsection__debug_str
	.long L$set$1500
	.byte	0x46
	.byte	0x7b
	.set L$set$1501,LASF808-Lsection__debug_str
	.long L$set$1501
	.long	0x16af
	.byte	0x1
	.long	0x7d9c
	.byte	0x1b
	.long	0x8086
	.byte	0x1
	.byte	0x0
	.byte	0x4b
	.byte	0x1
	.set L$set$1502,LASF341-Lsection__debug_str
	.long L$set$1502
	.byte	0x47
	.byte	0x2d
	.set L$set$1503,LASF809-Lsection__debug_str
	.long L$set$1503
	.byte	0x1
	.long	0x7db9
	.byte	0x1b
	.long	0x8091
	.byte	0x1
	.byte	0x22
	.long	0x16af
	.byte	0x0
	.byte	0x4b
	.byte	0x1
	.set L$set$1504,LASF810-Lsection__debug_str
	.long L$set$1504
	.byte	0x46
	.byte	0x8f
	.set L$set$1505,LASF811-Lsection__debug_str
	.long L$set$1505
	.byte	0x1
	.long	0x7dd6
	.byte	0x1b
	.long	0x8091
	.byte	0x1
	.byte	0x22
	.long	0x16af
	.byte	0x0
	.byte	0x4b
	.byte	0x1
	.set L$set$1506,LASF812-Lsection__debug_str
	.long L$set$1506
	.byte	0x46
	.byte	0x96
	.set L$set$1507,LASF813-Lsection__debug_str
	.long L$set$1507
	.byte	0x1
	.long	0x7df3
	.byte	0x1b
	.long	0x8091
	.byte	0x1
	.byte	0x22
	.long	0x16af
	.byte	0x0
	.byte	0x1c
	.byte	0x1
	.set L$set$1508,LASF814-Lsection__debug_str
	.long L$set$1508
	.byte	0x46
	.byte	0xa6
	.set L$set$1509,LASF815-Lsection__debug_str
	.long L$set$1509
	.long	0xe2a
	.byte	0x1
	.long	0x7e0f
	.byte	0x1b
	.long	0x8086
	.byte	0x1
	.byte	0x0
	.byte	0x1c
	.byte	0x1
	.set L$set$1510,LASF255-Lsection__debug_str
	.long L$set$1510
	.byte	0x46
	.byte	0xb0
	.set L$set$1511,LASF816-Lsection__debug_str
	.long L$set$1511
	.long	0xe2a
	.byte	0x1
	.long	0x7e2b
	.byte	0x1b
	.long	0x8086
	.byte	0x1
	.byte	0x0
	.byte	0x1c
	.byte	0x1
	.set L$set$1512,LASF817-Lsection__debug_str
	.long L$set$1512
	.byte	0x46
	.byte	0xbb
	.set L$set$1513,LASF818-Lsection__debug_str
	.long L$set$1513
	.long	0xe2a
	.byte	0x1
	.long	0x7e47
	.byte	0x1b
	.long	0x8086
	.byte	0x1
	.byte	0x0
	.byte	0x1c
	.byte	0x1
	.set L$set$1514,LASF819-Lsection__debug_str
	.long L$set$1514
	.byte	0x46
	.byte	0xc5
	.set L$set$1515,LASF820-Lsection__debug_str
	.long L$set$1515
	.long	0xe2a
	.byte	0x1
	.long	0x7e63
	.byte	0x1b
	.long	0x8086
	.byte	0x1
	.byte	0x0
	.byte	0x1c
	.byte	0x1
	.set L$set$1516,LASF821-Lsection__debug_str
	.long L$set$1516
	.byte	0x46
	.byte	0xd0
	.set L$set$1517,LASF822-Lsection__debug_str
	.long L$set$1517
	.long	0x16af
	.byte	0x1
	.long	0x7e7f
	.byte	0x1b
	.long	0x8086
	.byte	0x1
	.byte	0x0
	.byte	0x4b
	.byte	0x1
	.set L$set$1518,LASF821-Lsection__debug_str
	.long L$set$1518
	.byte	0x46
	.byte	0xf3
	.set L$set$1519,LASF823-Lsection__debug_str
	.long L$set$1519
	.byte	0x1
	.long	0x7e9c
	.byte	0x1b
	.long	0x8091
	.byte	0x1
	.byte	0x22
	.long	0x16af
	.byte	0x0
	.byte	0x36
	.byte	0x1
	.set L$set$1520,LASF824-Lsection__debug_str
	.long L$set$1520
	.byte	0x46
	.word	0x100
	.byte	0x1
	.long	0x7eb6
	.byte	0x1b
	.long	0x8091
	.byte	0x1
	.byte	0x22
	.long	0x7385
	.byte	0x0
	.byte	0x6a
	.byte	0x1
	.set L$set$1521,LASF825-Lsection__debug_str
	.long L$set$1521
	.byte	0x46
	.word	0x10c
	.byte	0x1
	.long	0x7c98
	.byte	0x1
	.long	0x7ed6
	.byte	0x1b
	.long	0x8091
	.byte	0x1
	.byte	0x1b
	.long	0xa20
	.byte	0x1
	.byte	0x0
	.byte	0x44
	.byte	0x1
	.set L$set$1522,LASF826-Lsection__debug_str
	.long L$set$1522
	.byte	0x46
	.word	0x119
	.set L$set$1523,LASF827-Lsection__debug_str
	.long L$set$1523
	.long	0x806a
	.byte	0x1
	.long	0x7ef3
	.byte	0x1b
	.long	0x8086
	.byte	0x1
	.byte	0x0
	.byte	0x44
	.byte	0x1
	.set L$set$1524,LASF826-Lsection__debug_str
	.long L$set$1524
	.byte	0x46
	.word	0x125
	.set L$set$1525,LASF828-Lsection__debug_str
	.long L$set$1525
	.long	0x806a
	.byte	0x1
	.long	0x7f15
	.byte	0x1b
	.long	0x8091
	.byte	0x1
	.byte	0x22
	.long	0x806a
	.byte	0x0
	.byte	0x44
	.byte	0x1
	.set L$set$1526,LASF829-Lsection__debug_str
	.long L$set$1526
	.byte	0x46
	.word	0x133
	.set L$set$1527,LASF830-Lsection__debug_str
	.long L$set$1527
	.long	0x7385
	.byte	0x1
	.long	0x7f32
	.byte	0x1b
	.long	0x8086
	.byte	0x1
	.byte	0x0
	.byte	0x1c
	.byte	0x1
	.set L$set$1528,LASF829-Lsection__debug_str
	.long L$set$1528
	.byte	0x47
	.byte	0x39
	.set L$set$1529,LASF831-Lsection__debug_str
	.long L$set$1529
	.long	0x7385
	.byte	0x1
	.long	0x7f53
	.byte	0x1b
	.long	0x8091
	.byte	0x1
	.byte	0x22
	.long	0x7385
	.byte	0x0
	.byte	0x1c
	.byte	0x1
	.set L$set$1530,LASF832-Lsection__debug_str
	.long L$set$1530
	.byte	0x47
	.byte	0x43
	.set L$set$1531,LASF833-Lsection__debug_str
	.long L$set$1531
	.long	0x8097
	.byte	0x1
	.long	0x7f74
	.byte	0x1b
	.long	0x8091
	.byte	0x1
	.byte	0x22
	.long	0x809d
	.byte	0x0
	.byte	0x44
	.byte	0x1
	.set L$set$1532,LASF834-Lsection__debug_str
	.long L$set$1532
	.byte	0x46
	.word	0x164
	.set L$set$1533,LASF835-Lsection__debug_str
	.long L$set$1533
	.long	0xb17
	.byte	0x1
	.long	0x7f91
	.byte	0x1b
	.long	0x8086
	.byte	0x1
	.byte	0x0
	.byte	0x44
	.byte	0x1
	.set L$set$1534,LASF834-Lsection__debug_str
	.long L$set$1534
	.byte	0x46
	.word	0x178
	.set L$set$1535,LASF836-Lsection__debug_str
	.long L$set$1535
	.long	0xb17
	.byte	0x1
	.long	0x7fb3
	.byte	0x1b
	.long	0x8091
	.byte	0x1
	.byte	0x22
	.long	0xb17
	.byte	0x0
	.byte	0x1c
	.byte	0x1
	.set L$set$1536,LASF628-Lsection__debug_str
	.long L$set$1536
	.byte	0x47
	.byte	0x80
	.set L$set$1537,LASF837-Lsection__debug_str
	.long L$set$1537
	.long	0x5bee
	.byte	0x1
	.long	0x7fd4
	.byte	0x1b
	.long	0x8091
	.byte	0x1
	.byte	0x22
	.long	0x5f60
	.byte	0x0
	.byte	0x1c
	.byte	0x1
	.set L$set$1538,LASF773-Lsection__debug_str
	.long L$set$1538
	.byte	0x47
	.byte	0x75
	.set L$set$1539,LASF838-Lsection__debug_str
	.long L$set$1539
	.long	0xb17
	.byte	0x1
	.long	0x7ffa
	.byte	0x1b
	.long	0x8086
	.byte	0x1
	.byte	0x22
	.long	0xb17
	.byte	0x22
	.long	0xb17
	.byte	0x0
	.byte	0x1c
	.byte	0x1
	.set L$set$1540,LASF770-Lsection__debug_str
	.long L$set$1540
	.byte	0x47
	.byte	0x7a
	.set L$set$1541,LASF839-Lsection__debug_str
	.long L$set$1541
	.long	0xb17
	.byte	0x1
	.long	0x801b
	.byte	0x1b
	.long	0x8086
	.byte	0x1
	.byte	0x22
	.long	0xb17
	.byte	0x0
	.byte	0x59
	.byte	0x1
	.set L$set$1542,LASF824-Lsection__debug_str
	.long L$set$1542
	.byte	0x46
	.word	0x1bc
	.byte	0x2
	.byte	0x1
	.long	0x8031
	.byte	0x1b
	.long	0x8091
	.byte	0x1
	.byte	0x0
	.byte	0x75
	.byte	0x1
	.set L$set$1543,LASF840-Lsection__debug_str
	.long L$set$1543
	.byte	0x47
	.byte	0x8c
	.set L$set$1544,LASF841-Lsection__debug_str
	.long L$set$1544
	.byte	0x2
	.byte	0x1
	.long	0x804f
	.byte	0x1b
	.long	0x8091
	.byte	0x1
	.byte	0x22
	.long	0x7385
	.byte	0x0
	.byte	0x76
	.byte	0x1
	.set L$set$1545,LASF842-Lsection__debug_str
	.long L$set$1545
	.byte	0x47
	.byte	0xab
	.set L$set$1546,LASF843-Lsection__debug_str
	.long L$set$1546
	.byte	0x2
	.byte	0x1
	.byte	0x1b
	.long	0x8091
	.byte	0x1
	.byte	0x22
	.long	0x5f60
	.byte	0x0
	.byte	0x0
	.byte	0x1f
	.byte	0x4
	.long	0x1a75
	.byte	0x1f
	.byte	0x4
	.long	0x8076
	.byte	0x20
	.long	0x1aa3
	.byte	0x1f
	.byte	0x4
	.long	0x8081
	.byte	0x20
	.long	0x1aec
	.byte	0x1f
	.byte	0x4
	.long	0x808c
	.byte	0x20
	.long	0x7c98
	.byte	0x1f
	.byte	0x4
	.long	0x7c98
	.byte	0x24
	.byte	0x4
	.long	0x7c98
	.byte	0x24
	.byte	0x4
	.long	0x808c
	.byte	0x18
	.ascii "__cxxabiv1\0"
	.byte	0x1b
	.byte	0x0
	.byte	0x60
	.long	0x26c4
	.byte	0x4
	.byte	0x48
	.word	0x27d
	.long	0x8280
	.byte	0x4e
	.ascii "_M_current\0"
	.byte	0x48
	.word	0x27f
	.long	0xde7
	.byte	0x2
	.byte	0x23
	.byte	0x0
	.byte	0x2
	.byte	0x36
	.byte	0x1
	.set L$set$1547,LASF844-Lsection__debug_str
	.long L$set$1547
	.byte	0x48
	.word	0x28a
	.byte	0x1
	.long	0x80ea
	.byte	0x1b
	.long	0x8280
	.byte	0x1
	.byte	0x0
	.byte	0x36
	.byte	0x1
	.set L$set$1548,LASF844-Lsection__debug_str
	.long L$set$1548
	.byte	0x48
	.word	0x28d
	.byte	0x1
	.long	0x8104
	.byte	0x1b
	.long	0x8280
	.byte	0x1
	.byte	0x22
	.long	0x8286
	.byte	0x0
	.byte	0x44
	.byte	0x1
	.set L$set$1549,LASF845-Lsection__debug_str
	.long L$set$1549
	.byte	0x48
	.word	0x299
	.set L$set$1550,LASF846-Lsection__debug_str
	.long L$set$1550
	.long	0x448d
	.byte	0x1
	.long	0x8121
	.byte	0x1b
	.long	0x8291
	.byte	0x1
	.byte	0x0
	.byte	0x44
	.byte	0x1
	.set L$set$1551,LASF847-Lsection__debug_str
	.long L$set$1551
	.byte	0x48
	.word	0x29d
	.set L$set$1552,LASF848-Lsection__debug_str
	.long L$set$1552
	.long	0xde7
	.byte	0x1
	.long	0x813e
	.byte	0x1b
	.long	0x8291
	.byte	0x1
	.byte	0x0
	.byte	0x44
	.byte	0x1
	.set L$set$1553,LASF849-Lsection__debug_str
	.long L$set$1553
	.byte	0x48
	.word	0x2a1
	.set L$set$1554,LASF850-Lsection__debug_str
	.long L$set$1554
	.long	0x829c
	.byte	0x1
	.long	0x815b
	.byte	0x1b
	.long	0x8280
	.byte	0x1
	.byte	0x0
	.byte	0x44
	.byte	0x1
	.set L$set$1555,LASF849-Lsection__debug_str
	.long L$set$1555
	.byte	0x48
	.word	0x2a8
	.set L$set$1556,LASF851-Lsection__debug_str
	.long L$set$1556
	.long	0x80b1
	.byte	0x1
	.long	0x817d
	.byte	0x1b
	.long	0x8280
	.byte	0x1
	.byte	0x22
	.long	0xa20
	.byte	0x0
	.byte	0x44
	.byte	0x1
	.set L$set$1557,LASF852-Lsection__debug_str
	.long L$set$1557
	.byte	0x48
	.word	0x2ad
	.set L$set$1558,LASF853-Lsection__debug_str
	.long L$set$1558
	.long	0x829c
	.byte	0x1
	.long	0x819a
	.byte	0x1b
	.long	0x8280
	.byte	0x1
	.byte	0x0
	.byte	0x44
	.byte	0x1
	.set L$set$1559,LASF852-Lsection__debug_str
	.long L$set$1559
	.byte	0x48
	.word	0x2b4
	.set L$set$1560,LASF854-Lsection__debug_str
	.long L$set$1560
	.long	0x80b1
	.byte	0x1
	.long	0x81bc
	.byte	0x1b
	.long	0x8280
	.byte	0x1
	.byte	0x22
	.long	0xa20
	.byte	0x0
	.byte	0x44
	.byte	0x1
	.set L$set$1561,LASF345-Lsection__debug_str
	.long L$set$1561
	.byte	0x48
	.word	0x2b9
	.set L$set$1562,LASF855-Lsection__debug_str
	.long L$set$1562
	.long	0x448d
	.byte	0x1
	.long	0x81de
	.byte	0x1b
	.long	0x8291
	.byte	0x1
	.byte	0x22
	.long	0x82a2
	.byte	0x0
	.byte	0x44
	.byte	0x1
	.set L$set$1563,LASF351-Lsection__debug_str
	.long L$set$1563
	.byte	0x48
	.word	0x2bd
	.set L$set$1564,LASF856-Lsection__debug_str
	.long L$set$1564
	.long	0x829c
	.byte	0x1
	.long	0x8200
	.byte	0x1b
	.long	0x8280
	.byte	0x1
	.byte	0x22
	.long	0x82a2
	.byte	0x0
	.byte	0x44
	.byte	0x1
	.set L$set$1565,LASF857-Lsection__debug_str
	.long L$set$1565
	.byte	0x48
	.word	0x2c1
	.set L$set$1566,LASF858-Lsection__debug_str
	.long L$set$1566
	.long	0x80b1
	.byte	0x1
	.long	0x8222
	.byte	0x1b
	.long	0x8291
	.byte	0x1
	.byte	0x22
	.long	0x82a2
	.byte	0x0
	.byte	0x44
	.byte	0x1
	.set L$set$1567,LASF859-Lsection__debug_str
	.long L$set$1567
	.byte	0x48
	.word	0x2c5
	.set L$set$1568,LASF860-Lsection__debug_str
	.long L$set$1568
	.long	0x829c
	.byte	0x1
	.long	0x8244
	.byte	0x1b
	.long	0x8280
	.byte	0x1
	.byte	0x22
	.long	0x82a2
	.byte	0x0
	.byte	0x44
	.byte	0x1
	.set L$set$1569,LASF861-Lsection__debug_str
	.long L$set$1569
	.byte	0x48
	.word	0x2c9
	.set L$set$1570,LASF862-Lsection__debug_str
	.long L$set$1570
	.long	0x80b1
	.byte	0x1
	.long	0x8266
	.byte	0x1b
	.long	0x8291
	.byte	0x1
	.byte	0x22
	.long	0x82a2
	.byte	0x0
	.byte	0x38
	.byte	0x1
	.set L$set$1571,LASF863-Lsection__debug_str
	.long L$set$1571
	.byte	0x48
	.word	0x2cd
	.set L$set$1572,LASF864-Lsection__debug_str
	.long L$set$1572
	.long	0x8286
	.byte	0x1
	.byte	0x1b
	.long	0x8291
	.byte	0x1
	.byte	0x0
	.byte	0x0
	.byte	0x1f
	.byte	0x4
	.long	0x80b1
	.byte	0x24
	.byte	0x4
	.long	0x828c
	.byte	0x20
	.long	0xde7
	.byte	0x1f
	.byte	0x4
	.long	0x8297
	.byte	0x20
	.long	0x80b1
	.byte	0x24
	.byte	0x4
	.long	0x80b1
	.byte	0x24
	.byte	0x4
	.long	0x82a8
	.byte	0x20
	.long	0xe32
	.byte	0x24
	.byte	0x4
	.long	0x16af
	.byte	0x24
	.byte	0x4
	.long	0x3e3e
	.byte	0x5c
	.long	0x1aec
	.byte	0x8
	.byte	0x2b
	.word	0x78d
	.long	0x5f71
	.long	0x8898
	.byte	0x32
	.long	0x5f71
	.byte	0x2
	.byte	0x23
	.byte	0x0
	.byte	0x1
	.byte	0x72
	.set L$set$1573,LASF493-Lsection__debug_str
	.long L$set$1573
	.byte	0x2b
	.word	0x8c8
	.ascii "_ZNSt7num_getIcSt19istreambuf_iteratorIcSt11char_traitsIcEEE2idE\0"
	.long	0x61aa
	.byte	0x1
	.byte	0x1
	.byte	0x36
	.byte	0x1
	.set L$set$1574,LASF865-Lsection__debug_str
	.long L$set$1574
	.byte	0x2b
	.word	0x7a1
	.byte	0x1
	.long	0x833c
	.byte	0x1b
	.long	0x8898
	.byte	0x1
	.byte	0x22
	.long	0xb63
	.byte	0x0
	.byte	0x44
	.byte	0x1
	.set L$set$1575,LASF866-Lsection__debug_str
	.long L$set$1575
	.byte	0x2b
	.word	0x7bc
	.set L$set$1576,LASF867-Lsection__debug_str
	.long L$set$1576
	.long	0x1b35
	.byte	0x1
	.long	0x8372
	.byte	0x1b
	.long	0x807b
	.byte	0x1
	.byte	0x22
	.long	0x1b35
	.byte	0x22
	.long	0x1b35
	.byte	0x22
	.long	0x6584
	.byte	0x22
	.long	0x82ad
	.byte	0x22
	.long	0x889e
	.byte	0x0
	.byte	0x44
	.byte	0x1
	.set L$set$1577,LASF866-Lsection__debug_str
	.long L$set$1577
	.byte	0x2b
	.word	0x7e0
	.set L$set$1578,LASF868-Lsection__debug_str
	.long L$set$1578
	.long	0x1b35
	.byte	0x1
	.long	0x83a8
	.byte	0x1b
	.long	0x807b
	.byte	0x1
	.byte	0x22
	.long	0x1b35
	.byte	0x22
	.long	0x1b35
	.byte	0x22
	.long	0x6584
	.byte	0x22
	.long	0x82ad
	.byte	0x22
	.long	0x6cfd
	.byte	0x0
	.byte	0x44
	.byte	0x1
	.set L$set$1579,LASF866-Lsection__debug_str
	.long L$set$1579
	.byte	0x2b
	.word	0x7e5
	.set L$set$1580,LASF869-Lsection__debug_str
	.long L$set$1580
	.long	0x1b35
	.byte	0x1
	.long	0x83de
	.byte	0x1b
	.long	0x807b
	.byte	0x1
	.byte	0x22
	.long	0x1b35
	.byte	0x22
	.long	0x1b35
	.byte	0x22
	.long	0x6584
	.byte	0x22
	.long	0x82ad
	.byte	0x22
	.long	0x88a4
	.byte	0x0
	.byte	0x44
	.byte	0x1
	.set L$set$1581,LASF866-Lsection__debug_str
	.long L$set$1581
	.byte	0x2b
	.word	0x7ea
	.set L$set$1582,LASF870-Lsection__debug_str
	.long L$set$1582
	.long	0x1b35
	.byte	0x1
	.long	0x8414
	.byte	0x1b
	.long	0x807b
	.byte	0x1
	.byte	0x22
	.long	0x1b35
	.byte	0x22
	.long	0x1b35
	.byte	0x22
	.long	0x6584
	.byte	0x22
	.long	0x82ad
	.byte	0x22
	.long	0x88aa
	.byte	0x0
	.byte	0x44
	.byte	0x1
	.set L$set$1583,LASF866-Lsection__debug_str
	.long L$set$1583
	.byte	0x2b
	.word	0x7ef
	.set L$set$1584,LASF871-Lsection__debug_str
	.long L$set$1584
	.long	0x1b35
	.byte	0x1
	.long	0x844a
	.byte	0x1b
	.long	0x807b
	.byte	0x1
	.byte	0x22
	.long	0x1b35
	.byte	0x22
	.long	0x1b35
	.byte	0x22
	.long	0x6584
	.byte	0x22
	.long	0x82ad
	.byte	0x22
	.long	0x88b0
	.byte	0x0
	.byte	0x44
	.byte	0x1
	.set L$set$1585,LASF866-Lsection__debug_str
	.long L$set$1585
	.byte	0x2b
	.word	0x7f5
	.set L$set$1586,LASF872-Lsection__debug_str
	.long L$set$1586
	.long	0x1b35
	.byte	0x1
	.long	0x8480
	.byte	0x1b
	.long	0x807b
	.byte	0x1
	.byte	0x22
	.long	0x1b35
	.byte	0x22
	.long	0x1b35
	.byte	0x22
	.long	0x6584
	.byte	0x22
	.long	0x82ad
	.byte	0x22
	.long	0x88b6
	.byte	0x0
	.byte	0x44
	.byte	0x1
	.set L$set$1587,LASF866-Lsection__debug_str
	.long L$set$1587
	.byte	0x2b
	.word	0x7fa
	.set L$set$1588,LASF873-Lsection__debug_str
	.long L$set$1588
	.long	0x1b35
	.byte	0x1
	.long	0x84b6
	.byte	0x1b
	.long	0x807b
	.byte	0x1
	.byte	0x22
	.long	0x1b35
	.byte	0x22
	.long	0x1b35
	.byte	0x22
	.long	0x6584
	.byte	0x22
	.long	0x82ad
	.byte	0x22
	.long	0x88bc
	.byte	0x0
	.byte	0x44
	.byte	0x1
	.set L$set$1589,LASF866-Lsection__debug_str
	.long L$set$1589
	.byte	0x2b
	.word	0x81b
	.set L$set$1590,LASF874-Lsection__debug_str
	.long L$set$1590
	.long	0x1b35
	.byte	0x1
	.long	0x84ec
	.byte	0x1b
	.long	0x807b
	.byte	0x1
	.byte	0x22
	.long	0x1b35
	.byte	0x22
	.long	0x1b35
	.byte	0x22
	.long	0x6584
	.byte	0x22
	.long	0x82ad
	.byte	0x22
	.long	0x88c2
	.byte	0x0
	.byte	0x44
	.byte	0x1
	.set L$set$1591,LASF866-Lsection__debug_str
	.long L$set$1591
	.byte	0x2b
	.word	0x820
	.set L$set$1592,LASF875-Lsection__debug_str
	.long L$set$1592
	.long	0x1b35
	.byte	0x1
	.long	0x8522
	.byte	0x1b
	.long	0x807b
	.byte	0x1
	.byte	0x22
	.long	0x1b35
	.byte	0x22
	.long	0x1b35
	.byte	0x22
	.long	0x6584
	.byte	0x22
	.long	0x82ad
	.byte	0x22
	.long	0x88c8
	.byte	0x0
	.byte	0x44
	.byte	0x1
	.set L$set$1593,LASF866-Lsection__debug_str
	.long L$set$1593
	.byte	0x2b
	.word	0x825
	.set L$set$1594,LASF876-Lsection__debug_str
	.long L$set$1594
	.long	0x1b35
	.byte	0x1
	.long	0x8558
	.byte	0x1b
	.long	0x807b
	.byte	0x1
	.byte	0x22
	.long	0x1b35
	.byte	0x22
	.long	0x1b35
	.byte	0x22
	.long	0x6584
	.byte	0x22
	.long	0x82ad
	.byte	0x22
	.long	0x82b3
	.byte	0x0
	.byte	0x44
	.byte	0x1
	.set L$set$1595,LASF866-Lsection__debug_str
	.long L$set$1595
	.byte	0x2b
	.word	0x845
	.set L$set$1596,LASF877-Lsection__debug_str
	.long L$set$1596
	.long	0x1b35
	.byte	0x1
	.long	0x858e
	.byte	0x1b
	.long	0x807b
	.byte	0x1
	.byte	0x22
	.long	0x1b35
	.byte	0x22
	.long	0x1b35
	.byte	0x22
	.long	0x6584
	.byte	0x22
	.long	0x82ad
	.byte	0x22
	.long	0x6d03
	.byte	0x0
	.byte	0x5e
	.byte	0x1
	.set L$set$1597,LASF878-Lsection__debug_str
	.long L$set$1597
	.byte	0x2b
	.word	0x84a
	.byte	0x1
	.long	0x82b9
	.byte	0x2
	.byte	0x1
	.long	0x85af
	.byte	0x1b
	.long	0x8898
	.byte	0x1
	.byte	0x1b
	.long	0xa20
	.byte	0x1
	.byte	0x0
	.byte	0x4f
	.byte	0x1
	.set L$set$1598,LASF879-Lsection__debug_str
	.long L$set$1598
	.byte	0x2
	.word	0x11a
	.set L$set$1599,LASF880-Lsection__debug_str
	.long L$set$1599
	.long	0x1b35
	.byte	0x2
	.byte	0x1
	.long	0x85e6
	.byte	0x1b
	.long	0x807b
	.byte	0x1
	.byte	0x22
	.long	0x1b35
	.byte	0x22
	.long	0x1b35
	.byte	0x22
	.long	0x6584
	.byte	0x22
	.long	0x82ad
	.byte	0x22
	.long	0x59c7
	.byte	0x0
	.byte	0x6d
	.byte	0x1
	.set L$set$1600,LASF881-Lsection__debug_str
	.long L$set$1600
	.byte	0x2
	.word	0x2ce
	.set L$set$1601,LASF882-Lsection__debug_str
	.long L$set$1601
	.long	0x1b35
	.byte	0x1
	.byte	0x2
	.byte	0x10
	.byte	0x2
	.long	0x82b9
	.byte	0x2
	.byte	0x1
	.long	0x8625
	.byte	0x1b
	.long	0x807b
	.byte	0x1
	.byte	0x22
	.long	0x1b35
	.byte	0x22
	.long	0x1b35
	.byte	0x22
	.long	0x6584
	.byte	0x22
	.long	0x82ad
	.byte	0x22
	.long	0x889e
	.byte	0x0
	.byte	0x6d
	.byte	0x1
	.set L$set$1602,LASF881-Lsection__debug_str
	.long L$set$1602
	.byte	0x2
	.word	0x30f
	.set L$set$1603,LASF883-Lsection__debug_str
	.long L$set$1603
	.long	0x1b35
	.byte	0x1
	.byte	0x2
	.byte	0x10
	.byte	0x3
	.long	0x82b9
	.byte	0x2
	.byte	0x1
	.long	0x8664
	.byte	0x1b
	.long	0x807b
	.byte	0x1
	.byte	0x22
	.long	0x1b35
	.byte	0x22
	.long	0x1b35
	.byte	0x22
	.long	0x6584
	.byte	0x22
	.long	0x82ad
	.byte	0x22
	.long	0x6cfd
	.byte	0x0
	.byte	0x6d
	.byte	0x1
	.set L$set$1604,LASF881-Lsection__debug_str
	.long L$set$1604
	.byte	0x2
	.word	0x316
	.set L$set$1605,LASF884-Lsection__debug_str
	.long L$set$1605
	.long	0x1b35
	.byte	0x1
	.byte	0x2
	.byte	0x10
	.byte	0x4
	.long	0x82b9
	.byte	0x2
	.byte	0x1
	.long	0x86a3
	.byte	0x1b
	.long	0x807b
	.byte	0x1
	.byte	0x22
	.long	0x1b35
	.byte	0x22
	.long	0x1b35
	.byte	0x22
	.long	0x6584
	.byte	0x22
	.long	0x82ad
	.byte	0x22
	.long	0x88a4
	.byte	0x0
	.byte	0x6d
	.byte	0x1
	.set L$set$1606,LASF881-Lsection__debug_str
	.long L$set$1606
	.byte	0x2
	.word	0x31d
	.set L$set$1607,LASF885-Lsection__debug_str
	.long L$set$1607
	.long	0x1b35
	.byte	0x1
	.byte	0x2
	.byte	0x10
	.byte	0x5
	.long	0x82b9
	.byte	0x2
	.byte	0x1
	.long	0x86e2
	.byte	0x1b
	.long	0x807b
	.byte	0x1
	.byte	0x22
	.long	0x1b35
	.byte	0x22
	.long	0x1b35
	.byte	0x22
	.long	0x6584
	.byte	0x22
	.long	0x82ad
	.byte	0x22
	.long	0x88aa
	.byte	0x0
	.byte	0x6d
	.byte	0x1
	.set L$set$1608,LASF881-Lsection__debug_str
	.long L$set$1608
	.byte	0x2
	.word	0x324
	.set L$set$1609,LASF886-Lsection__debug_str
	.long L$set$1609
	.long	0x1b35
	.byte	0x1
	.byte	0x2
	.byte	0x10
	.byte	0x6
	.long	0x82b9
	.byte	0x2
	.byte	0x1
	.long	0x8721
	.byte	0x1b
	.long	0x807b
	.byte	0x1
	.byte	0x22
	.long	0x1b35
	.byte	0x22
	.long	0x1b35
	.byte	0x22
	.long	0x6584
	.byte	0x22
	.long	0x82ad
	.byte	0x22
	.long	0x88b0
	.byte	0x0
	.byte	0x6d
	.byte	0x1
	.set L$set$1610,LASF881-Lsection__debug_str
	.long L$set$1610
	.byte	0x2
	.word	0x32c
	.set L$set$1611,LASF887-Lsection__debug_str
	.long L$set$1611
	.long	0x1b35
	.byte	0x1
	.byte	0x2
	.byte	0x10
	.byte	0x7
	.long	0x82b9
	.byte	0x2
	.byte	0x1
	.long	0x8760
	.byte	0x1b
	.long	0x807b
	.byte	0x1
	.byte	0x22
	.long	0x1b35
	.byte	0x22
	.long	0x1b35
	.byte	0x22
	.long	0x6584
	.byte	0x22
	.long	0x82ad
	.byte	0x22
	.long	0x88b6
	.byte	0x0
	.byte	0x6d
	.byte	0x1
	.set L$set$1612,LASF881-Lsection__debug_str
	.long L$set$1612
	.byte	0x2
	.word	0x333
	.set L$set$1613,LASF888-Lsection__debug_str
	.long L$set$1613
	.long	0x1b35
	.byte	0x1
	.byte	0x2
	.byte	0x10
	.byte	0x8
	.long	0x82b9
	.byte	0x2
	.byte	0x1
	.long	0x879f
	.byte	0x1b
	.long	0x807b
	.byte	0x1
	.byte	0x22
	.long	0x1b35
	.byte	0x22
	.long	0x1b35
	.byte	0x22
	.long	0x6584
	.byte	0x22
	.long	0x82ad
	.byte	0x22
	.long	0x88bc
	.byte	0x0
	.byte	0x6d
	.byte	0x1
	.set L$set$1614,LASF881-Lsection__debug_str
	.long L$set$1614
	.byte	0x2
	.word	0x33b
	.set L$set$1615,LASF889-Lsection__debug_str
	.long L$set$1615
	.long	0x1b35
	.byte	0x1
	.byte	0x2
	.byte	0x10
	.byte	0x9
	.long	0x82b9
	.byte	0x2
	.byte	0x1
	.long	0x87de
	.byte	0x1b
	.long	0x807b
	.byte	0x1
	.byte	0x22
	.long	0x1b35
	.byte	0x22
	.long	0x1b35
	.byte	0x22
	.long	0x6584
	.byte	0x22
	.long	0x82ad
	.byte	0x22
	.long	0x88c2
	.byte	0x0
	.byte	0x6d
	.byte	0x1
	.set L$set$1616,LASF881-Lsection__debug_str
	.long L$set$1616
	.byte	0x2
	.word	0x348
	.set L$set$1617,LASF890-Lsection__debug_str
	.long L$set$1617
	.long	0x1b35
	.byte	0x1
	.byte	0x2
	.byte	0x10
	.byte	0xa
	.long	0x82b9
	.byte	0x2
	.byte	0x1
	.long	0x881d
	.byte	0x1b
	.long	0x807b
	.byte	0x1
	.byte	0x22
	.long	0x1b35
	.byte	0x22
	.long	0x1b35
	.byte	0x22
	.long	0x6584
	.byte	0x22
	.long	0x82ad
	.byte	0x22
	.long	0x88c8
	.byte	0x0
	.byte	0x6d
	.byte	0x1
	.set L$set$1618,LASF881-Lsection__debug_str
	.long L$set$1618
	.byte	0x2
	.word	0x364
	.set L$set$1619,LASF891-Lsection__debug_str
	.long L$set$1619
	.long	0x1b35
	.byte	0x1
	.byte	0x2
	.byte	0x10
	.byte	0xb
	.long	0x82b9
	.byte	0x2
	.byte	0x1
	.long	0x885c
	.byte	0x1b
	.long	0x807b
	.byte	0x1
	.byte	0x22
	.long	0x1b35
	.byte	0x22
	.long	0x1b35
	.byte	0x22
	.long	0x6584
	.byte	0x22
	.long	0x82ad
	.byte	0x22
	.long	0x82b3
	.byte	0x0
	.byte	0x77
	.byte	0x1
	.set L$set$1620,LASF881-Lsection__debug_str
	.long L$set$1620
	.byte	0x2
	.word	0x371
	.set L$set$1621,LASF893-Lsection__debug_str
	.long L$set$1621
	.long	0x1b35
	.byte	0x1
	.byte	0x2
	.byte	0x10
	.byte	0xc
	.long	0x82b9
	.byte	0x2
	.byte	0x1
	.byte	0x1b
	.long	0x807b
	.byte	0x1
	.byte	0x22
	.long	0x1b35
	.byte	0x22
	.long	0x1b35
	.byte	0x22
	.long	0x6584
	.byte	0x22
	.long	0x82ad
	.byte	0x22
	.long	0x6d03
	.byte	0x0
	.byte	0x0
	.byte	0x1f
	.byte	0x4
	.long	0x82b9
	.byte	0x24
	.byte	0x4
	.long	0xe2a
	.byte	0x24
	.byte	0x4
	.long	0xa54
	.byte	0x24
	.byte	0x4
	.long	0xa7c
	.byte	0x24
	.byte	0x4
	.long	0xb63
	.byte	0x24
	.byte	0x4
	.long	0xa9d
	.byte	0x24
	.byte	0x4
	.long	0xaae
	.byte	0x24
	.byte	0x4
	.long	0x99b
	.byte	0x24
	.byte	0x4
	.long	0x98b
	.byte	0x5c
	.long	0x1aa3
	.byte	0x8
	.byte	0x2b
	.word	0x8d8
	.long	0x5f71
	.long	0x8d79
	.byte	0x32
	.long	0x5f71
	.byte	0x2
	.byte	0x23
	.byte	0x0
	.byte	0x1
	.byte	0x72
	.set L$set$1622,LASF493-Lsection__debug_str
	.long L$set$1622
	.byte	0x2b
	.word	0x9d8
	.ascii "_ZNSt7num_putIcSt19ostreambuf_iteratorIcSt11char_traitsIcEEE2idE\0"
	.long	0x61aa
	.byte	0x1
	.byte	0x1
	.byte	0x36
	.byte	0x1
	.set L$set$1623,LASF894-Lsection__debug_str
	.long L$set$1623
	.byte	0x2b
	.word	0x8ec
	.byte	0x1
	.long	0x8951
	.byte	0x1b
	.long	0x8d79
	.byte	0x1
	.byte	0x22
	.long	0xb63
	.byte	0x0
	.byte	0x44
	.byte	0x1
	.set L$set$1624,LASF895-Lsection__debug_str
	.long L$set$1624
	.byte	0x2b
	.word	0x8fe
	.set L$set$1625,LASF896-Lsection__debug_str
	.long L$set$1625
	.long	0x1b69
	.byte	0x1
	.long	0x8982
	.byte	0x1b
	.long	0x8070
	.byte	0x1
	.byte	0x22
	.long	0x1b69
	.byte	0x22
	.long	0x6584
	.byte	0x22
	.long	0xb17
	.byte	0x22
	.long	0xe2a
	.byte	0x0
	.byte	0x44
	.byte	0x1
	.set L$set$1626,LASF895-Lsection__debug_str
	.long L$set$1626
	.byte	0x2b
	.word	0x928
	.set L$set$1627,LASF897-Lsection__debug_str
	.long L$set$1627
	.long	0x1b69
	.byte	0x1
	.long	0x89b3
	.byte	0x1b
	.long	0x8070
	.byte	0x1
	.byte	0x22
	.long	0x1b69
	.byte	0x22
	.long	0x6584
	.byte	0x22
	.long	0xb17
	.byte	0x22
	.long	0xac8
	.byte	0x0
	.byte	0x44
	.byte	0x1
	.set L$set$1628,LASF895-Lsection__debug_str
	.long L$set$1628
	.byte	0x2b
	.word	0x92d
	.set L$set$1629,LASF898-Lsection__debug_str
	.long L$set$1629
	.long	0x1b69
	.byte	0x1
	.long	0x89e4
	.byte	0x1b
	.long	0x8070
	.byte	0x1
	.byte	0x22
	.long	0x1b69
	.byte	0x22
	.long	0x6584
	.byte	0x22
	.long	0xb17
	.byte	0x22
	.long	0xb63
	.byte	0x0
	.byte	0x44
	.byte	0x1
	.set L$set$1630,LASF895-Lsection__debug_str
	.long L$set$1630
	.byte	0x2b
	.word	0x932
	.set L$set$1631,LASF899-Lsection__debug_str
	.long L$set$1631
	.long	0x1b69
	.byte	0x1
	.long	0x8a15
	.byte	0x1b
	.long	0x8070
	.byte	0x1
	.byte	0x22
	.long	0x1b69
	.byte	0x22
	.long	0x6584
	.byte	0x22
	.long	0xb17
	.byte	0x22
	.long	0xa9d
	.byte	0x0
	.byte	0x44
	.byte	0x1
	.set L$set$1632,LASF895-Lsection__debug_str
	.long L$set$1632
	.byte	0x2b
	.word	0x937
	.set L$set$1633,LASF900-Lsection__debug_str
	.long L$set$1633
	.long	0x1b69
	.byte	0x1
	.long	0x8a46
	.byte	0x1b
	.long	0x8070
	.byte	0x1
	.byte	0x22
	.long	0x1b69
	.byte	0x22
	.long	0x6584
	.byte	0x22
	.long	0xb17
	.byte	0x22
	.long	0xaae
	.byte	0x0
	.byte	0x44
	.byte	0x1
	.set L$set$1634,LASF895-Lsection__debug_str
	.long L$set$1634
	.byte	0x2b
	.word	0x967
	.set L$set$1635,LASF901-Lsection__debug_str
	.long L$set$1635
	.long	0x1b69
	.byte	0x1
	.long	0x8a77
	.byte	0x1b
	.long	0x8070
	.byte	0x1
	.byte	0x22
	.long	0x1b69
	.byte	0x22
	.long	0x6584
	.byte	0x22
	.long	0xb17
	.byte	0x22
	.long	0x98b
	.byte	0x0
	.byte	0x44
	.byte	0x1
	.set L$set$1636,LASF895-Lsection__debug_str
	.long L$set$1636
	.byte	0x2b
	.word	0x96c
	.set L$set$1637,LASF902-Lsection__debug_str
	.long L$set$1637
	.long	0x1b69
	.byte	0x1
	.long	0x8aa8
	.byte	0x1b
	.long	0x8070
	.byte	0x1
	.byte	0x22
	.long	0x1b69
	.byte	0x22
	.long	0x6584
	.byte	0x22
	.long	0xb17
	.byte	0x22
	.long	0x3e3e
	.byte	0x0
	.byte	0x44
	.byte	0x1
	.set L$set$1638,LASF895-Lsection__debug_str
	.long L$set$1638
	.byte	0x2b
	.word	0x981
	.set L$set$1639,LASF903-Lsection__debug_str
	.long L$set$1639
	.long	0x1b69
	.byte	0x1
	.long	0x8ad9
	.byte	0x1b
	.long	0x8070
	.byte	0x1
	.byte	0x22
	.long	0x1b69
	.byte	0x22
	.long	0x6584
	.byte	0x22
	.long	0xb17
	.byte	0x22
	.long	0x2be7
	.byte	0x0
	.byte	0x50
	.byte	0x1
	.set L$set$1640,LASF904-Lsection__debug_str
	.long L$set$1640
	.byte	0x2
	.word	0x427
	.set L$set$1641,LASF905-Lsection__debug_str
	.long L$set$1641
	.byte	0x2
	.byte	0x1
	.long	0x8b16
	.byte	0x1b
	.long	0x8070
	.byte	0x1
	.byte	0x22
	.long	0x2b34
	.byte	0x22
	.long	0xb63
	.byte	0x22
	.long	0xb17
	.byte	0x22
	.long	0x2b34
	.byte	0x22
	.long	0xde7
	.byte	0x22
	.long	0xde7
	.byte	0x22
	.long	0x8d7f
	.byte	0x0
	.byte	0x50
	.byte	0x1
	.set L$set$1642,LASF906-Lsection__debug_str
	.long L$set$1642
	.byte	0x2
	.word	0x3c4
	.set L$set$1643,LASF907-Lsection__debug_str
	.long L$set$1643
	.byte	0x2
	.byte	0x1
	.long	0x8b53
	.byte	0x1b
	.long	0x8070
	.byte	0x1
	.byte	0x22
	.long	0x2b34
	.byte	0x22
	.long	0xb63
	.byte	0x22
	.long	0xb17
	.byte	0x22
	.long	0x6584
	.byte	0x22
	.long	0xde7
	.byte	0x22
	.long	0xde7
	.byte	0x22
	.long	0x8d7f
	.byte	0x0
	.byte	0x50
	.byte	0x1
	.set L$set$1644,LASF908-Lsection__debug_str
	.long L$set$1644
	.byte	0x2
	.word	0x389
	.set L$set$1645,LASF909-Lsection__debug_str
	.long L$set$1645
	.byte	0x2
	.byte	0x1
	.long	0x8b8b
	.byte	0x1b
	.long	0x8070
	.byte	0x1
	.byte	0x22
	.long	0xb17
	.byte	0x22
	.long	0xa20
	.byte	0x22
	.long	0x6584
	.byte	0x22
	.long	0xde7
	.byte	0x22
	.long	0x2b34
	.byte	0x22
	.long	0x8d7f
	.byte	0x0
	.byte	0x5e
	.byte	0x1
	.set L$set$1646,LASF910-Lsection__debug_str
	.long L$set$1646
	.byte	0x2b
	.word	0x99f
	.byte	0x1
	.long	0x88ce
	.byte	0x2
	.byte	0x1
	.long	0x8bac
	.byte	0x1b
	.long	0x8d79
	.byte	0x1
	.byte	0x1b
	.long	0xa20
	.byte	0x1
	.byte	0x0
	.byte	0x6d
	.byte	0x1
	.set L$set$1647,LASF911-Lsection__debug_str
	.long L$set$1647
	.byte	0x2
	.word	0x4be
	.set L$set$1648,LASF912-Lsection__debug_str
	.long L$set$1648
	.long	0x1b69
	.byte	0x1
	.byte	0x2
	.byte	0x10
	.byte	0x2
	.long	0x88ce
	.byte	0x2
	.byte	0x1
	.long	0x8be6
	.byte	0x1b
	.long	0x8070
	.byte	0x1
	.byte	0x22
	.long	0x1b69
	.byte	0x22
	.long	0x6584
	.byte	0x22
	.long	0xb17
	.byte	0x22
	.long	0xe2a
	.byte	0x0
	.byte	0x6d
	.byte	0x1
	.set L$set$1649,LASF911-Lsection__debug_str
	.long L$set$1649
	.byte	0x2
	.word	0x4e4
	.set L$set$1650,LASF913-Lsection__debug_str
	.long L$set$1650
	.long	0x1b69
	.byte	0x1
	.byte	0x2
	.byte	0x10
	.byte	0x3
	.long	0x88ce
	.byte	0x2
	.byte	0x1
	.long	0x8c20
	.byte	0x1b
	.long	0x8070
	.byte	0x1
	.byte	0x22
	.long	0x1b69
	.byte	0x22
	.long	0x6584
	.byte	0x22
	.long	0xb17
	.byte	0x22
	.long	0xac8
	.byte	0x0
	.byte	0x6d
	.byte	0x1
	.set L$set$1651,LASF911-Lsection__debug_str
	.long L$set$1651
	.byte	0x2
	.word	0x4eb
	.set L$set$1652,LASF914-Lsection__debug_str
	.long L$set$1652
	.long	0x1b69
	.byte	0x1
	.byte	0x2
	.byte	0x10
	.byte	0x4
	.long	0x88ce
	.byte	0x2
	.byte	0x1
	.long	0x8c5a
	.byte	0x1b
	.long	0x8070
	.byte	0x1
	.byte	0x22
	.long	0x1b69
	.byte	0x22
	.long	0x6584
	.byte	0x22
	.long	0xb17
	.byte	0x22
	.long	0xb63
	.byte	0x0
	.byte	0x6d
	.byte	0x1
	.set L$set$1653,LASF911-Lsection__debug_str
	.long L$set$1653
	.byte	0x2
	.word	0x4f2
	.set L$set$1654,LASF915-Lsection__debug_str
	.long L$set$1654
	.long	0x1b69
	.byte	0x1
	.byte	0x2
	.byte	0x10
	.byte	0x5
	.long	0x88ce
	.byte	0x2
	.byte	0x1
	.long	0x8c94
	.byte	0x1b
	.long	0x8070
	.byte	0x1
	.byte	0x22
	.long	0x1b69
	.byte	0x22
	.long	0x6584
	.byte	0x22
	.long	0xb17
	.byte	0x22
	.long	0xa9d
	.byte	0x0
	.byte	0x6d
	.byte	0x1
	.set L$set$1655,LASF911-Lsection__debug_str
	.long L$set$1655
	.byte	0x2
	.word	0x4f9
	.set L$set$1656,LASF916-Lsection__debug_str
	.long L$set$1656
	.long	0x1b69
	.byte	0x1
	.byte	0x2
	.byte	0x10
	.byte	0x6
	.long	0x88ce
	.byte	0x2
	.byte	0x1
	.long	0x8cce
	.byte	0x1b
	.long	0x8070
	.byte	0x1
	.byte	0x22
	.long	0x1b69
	.byte	0x22
	.long	0x6584
	.byte	0x22
	.long	0xb17
	.byte	0x22
	.long	0xaae
	.byte	0x0
	.byte	0x6d
	.byte	0x1
	.set L$set$1657,LASF911-Lsection__debug_str
	.long L$set$1657
	.byte	0x2
	.word	0x500
	.set L$set$1658,LASF917-Lsection__debug_str
	.long L$set$1658
	.long	0x1b69
	.byte	0x1
	.byte	0x2
	.byte	0x10
	.byte	0x7
	.long	0x88ce
	.byte	0x2
	.byte	0x1
	.long	0x8d08
	.byte	0x1b
	.long	0x8070
	.byte	0x1
	.byte	0x22
	.long	0x1b69
	.byte	0x22
	.long	0x6584
	.byte	0x22
	.long	0xb17
	.byte	0x22
	.long	0x98b
	.byte	0x0
	.byte	0x6d
	.byte	0x1
	.set L$set$1659,LASF911-Lsection__debug_str
	.long L$set$1659
	.byte	0x2
	.word	0x50f
	.set L$set$1660,LASF918-Lsection__debug_str
	.long L$set$1660
	.long	0x1b69
	.byte	0x1
	.byte	0x2
	.byte	0x10
	.byte	0x8
	.long	0x88ce
	.byte	0x2
	.byte	0x1
	.long	0x8d42
	.byte	0x1b
	.long	0x8070
	.byte	0x1
	.byte	0x22
	.long	0x1b69
	.byte	0x22
	.long	0x6584
	.byte	0x22
	.long	0xb17
	.byte	0x22
	.long	0x3e3e
	.byte	0x0
	.byte	0x77
	.byte	0x1
	.set L$set$1661,LASF911-Lsection__debug_str
	.long L$set$1661
	.byte	0x2
	.word	0x516
	.set L$set$1662,LASF919-Lsection__debug_str
	.long L$set$1662
	.long	0x1b69
	.byte	0x1
	.byte	0x2
	.byte	0x10
	.byte	0x9
	.long	0x88ce
	.byte	0x2
	.byte	0x1
	.byte	0x1b
	.long	0x8070
	.byte	0x1
	.byte	0x22
	.long	0x1b69
	.byte	0x22
	.long	0x6584
	.byte	0x22
	.long	0xb17
	.byte	0x22
	.long	0x2be7
	.byte	0x0
	.byte	0x0
	.byte	0x1f
	.byte	0x4
	.long	0x88ce
	.byte	0x24
	.byte	0x4
	.long	0xa20
	.byte	0x63
	.long	0x1a75
	.byte	0x8c
	.byte	0x41
	.byte	0x40
	.long	0x8d85
	.long	0x9144
	.byte	0x78
	.long	0x7c98
	.byte	0x6
	.byte	0x12
	.byte	0x6
	.byte	0x3c
	.byte	0x1c
	.byte	0x6
	.byte	0x22
	.byte	0x1
	.byte	0x1
	.byte	0x5d
	.ascii "_vptr$basic_ostream\0"
	.long	0xe0e
	.byte	0x2
	.byte	0x23
	.byte	0x0
	.byte	0x1
	.byte	0x6
	.byte	0x1
	.set L$set$1663,LASF920-Lsection__debug_str
	.long L$set$1663
	.byte	0x49
	.byte	0x56
	.byte	0x1
	.long	0x8de5
	.byte	0x1b
	.long	0x806a
	.byte	0x1
	.byte	0x1b
	.long	0xa20
	.byte	0x1
	.byte	0x1b
	.long	0x9144
	.byte	0x1
	.byte	0x22
	.long	0x7385
	.byte	0x0
	.byte	0x6b
	.byte	0x1
	.set L$set$1664,LASF921-Lsection__debug_str
	.long L$set$1664
	.byte	0x49
	.byte	0x5f
	.byte	0x1
	.long	0x8d85
	.byte	0x1
	.long	0x8e0a
	.byte	0x1b
	.long	0x806a
	.byte	0x1
	.byte	0x1b
	.long	0xa20
	.byte	0x1
	.byte	0x1b
	.long	0x9144
	.byte	0x1
	.byte	0x0
	.byte	0x1c
	.byte	0x1
	.set L$set$1665,LASF922-Lsection__debug_str
	.long L$set$1665
	.byte	0x49
	.byte	0x70
	.set L$set$1666,LASF923-Lsection__debug_str
	.long L$set$1666
	.long	0x9151
	.byte	0x1
	.long	0x8e2b
	.byte	0x1b
	.long	0x806a
	.byte	0x1
	.byte	0x22
	.long	0x9157
	.byte	0x0
	.byte	0x1c
	.byte	0x1
	.set L$set$1667,LASF922-Lsection__debug_str
	.long L$set$1667
	.byte	0x49
	.byte	0x79
	.set L$set$1668,LASF924-Lsection__debug_str
	.long L$set$1668
	.long	0x9151
	.byte	0x1
	.long	0x8e4c
	.byte	0x1b
	.long	0x806a
	.byte	0x1
	.byte	0x22
	.long	0x916c
	.byte	0x0
	.byte	0x1c
	.byte	0x1
	.set L$set$1669,LASF922-Lsection__debug_str
	.long L$set$1669
	.byte	0x49
	.byte	0x83
	.set L$set$1670,LASF925-Lsection__debug_str
	.long L$set$1670
	.long	0x9151
	.byte	0x1
	.long	0x8e6d
	.byte	0x1b
	.long	0x806a
	.byte	0x1
	.byte	0x22
	.long	0x9181
	.byte	0x0
	.byte	0x1c
	.byte	0x1
	.set L$set$1671,LASF922-Lsection__debug_str
	.long L$set$1671
	.byte	0x49
	.byte	0xa9
	.set L$set$1672,LASF926-Lsection__debug_str
	.long L$set$1672
	.long	0x9151
	.byte	0x1
	.long	0x8e8e
	.byte	0x1b
	.long	0x806a
	.byte	0x1
	.byte	0x22
	.long	0xac8
	.byte	0x0
	.byte	0x1c
	.byte	0x1
	.set L$set$1673,LASF922-Lsection__debug_str
	.long L$set$1673
	.byte	0x49
	.byte	0xad
	.set L$set$1674,LASF927-Lsection__debug_str
	.long L$set$1674
	.long	0x9151
	.byte	0x1
	.long	0x8eaf
	.byte	0x1b
	.long	0x806a
	.byte	0x1
	.byte	0x22
	.long	0xb63
	.byte	0x0
	.byte	0x1c
	.byte	0x1
	.set L$set$1675,LASF922-Lsection__debug_str
	.long L$set$1675
	.byte	0x49
	.byte	0xb1
	.set L$set$1676,LASF928-Lsection__debug_str
	.long L$set$1676
	.long	0x9151
	.byte	0x1
	.long	0x8ed0
	.byte	0x1b
	.long	0x806a
	.byte	0x1
	.byte	0x22
	.long	0xe2a
	.byte	0x0
	.byte	0x1c
	.byte	0x1
	.set L$set$1677,LASF922-Lsection__debug_str
	.long L$set$1677
	.byte	0x4a
	.byte	0x5c
	.set L$set$1678,LASF929-Lsection__debug_str
	.long L$set$1678
	.long	0x9151
	.byte	0x1
	.long	0x8ef1
	.byte	0x1b
	.long	0x806a
	.byte	0x1
	.byte	0x22
	.long	0xa47
	.byte	0x0
	.byte	0x1c
	.byte	0x1
	.set L$set$1679,LASF922-Lsection__debug_str
	.long L$set$1679
	.byte	0x49
	.byte	0xb8
	.set L$set$1680,LASF930-Lsection__debug_str
	.long L$set$1680
	.long	0x9151
	.byte	0x1
	.long	0x8f12
	.byte	0x1b
	.long	0x806a
	.byte	0x1
	.byte	0x22
	.long	0xa54
	.byte	0x0
	.byte	0x1c
	.byte	0x1
	.set L$set$1681,LASF922-Lsection__debug_str
	.long L$set$1681
	.byte	0x4a
	.byte	0x6a
	.set L$set$1682,LASF931-Lsection__debug_str
	.long L$set$1682
	.long	0x9151
	.byte	0x1
	.long	0x8f33
	.byte	0x1b
	.long	0x806a
	.byte	0x1
	.byte	0x22
	.long	0xa20
	.byte	0x0
	.byte	0x1c
	.byte	0x1
	.set L$set$1683,LASF922-Lsection__debug_str
	.long L$set$1683
	.byte	0x49
	.byte	0xc3
	.set L$set$1684,LASF932-Lsection__debug_str
	.long L$set$1684
	.long	0x9151
	.byte	0x1
	.long	0x8f54
	.byte	0x1b
	.long	0x806a
	.byte	0x1
	.byte	0x22
	.long	0xa7c
	.byte	0x0
	.byte	0x1c
	.byte	0x1
	.set L$set$1685,LASF922-Lsection__debug_str
	.long L$set$1685
	.byte	0x49
	.byte	0xcc
	.set L$set$1686,LASF933-Lsection__debug_str
	.long L$set$1686
	.long	0x9151
	.byte	0x1
	.long	0x8f75
	.byte	0x1b
	.long	0x806a
	.byte	0x1
	.byte	0x22
	.long	0xa9d
	.byte	0x0
	.byte	0x1c
	.byte	0x1
	.set L$set$1687,LASF922-Lsection__debug_str
	.long L$set$1687
	.byte	0x49
	.byte	0xd0
	.set L$set$1688,LASF934-Lsection__debug_str
	.long L$set$1688
	.long	0x9151
	.byte	0x1
	.long	0x8f96
	.byte	0x1b
	.long	0x806a
	.byte	0x1
	.byte	0x22
	.long	0xaae
	.byte	0x0
	.byte	0x1c
	.byte	0x1
	.set L$set$1689,LASF922-Lsection__debug_str
	.long L$set$1689
	.byte	0x49
	.byte	0xd5
	.set L$set$1690,LASF935-Lsection__debug_str
	.long L$set$1690
	.long	0x9151
	.byte	0x1
	.long	0x8fb7
	.byte	0x1b
	.long	0x806a
	.byte	0x1
	.byte	0x22
	.long	0x98b
	.byte	0x0
	.byte	0x1c
	.byte	0x1
	.set L$set$1691,LASF922-Lsection__debug_str
	.long L$set$1691
	.byte	0x49
	.byte	0xd9
	.set L$set$1692,LASF936-Lsection__debug_str
	.long L$set$1692
	.long	0x9151
	.byte	0x1
	.long	0x8fd8
	.byte	0x1b
	.long	0x806a
	.byte	0x1
	.byte	0x22
	.long	0x99b
	.byte	0x0
	.byte	0x1c
	.byte	0x1
	.set L$set$1693,LASF922-Lsection__debug_str
	.long L$set$1693
	.byte	0x49
	.byte	0xe1
	.set L$set$1694,LASF937-Lsection__debug_str
	.long L$set$1694
	.long	0x9151
	.byte	0x1
	.long	0x8ff9
	.byte	0x1b
	.long	0x806a
	.byte	0x1
	.byte	0x22
	.long	0x3e3e
	.byte	0x0
	.byte	0x1c
	.byte	0x1
	.set L$set$1695,LASF922-Lsection__debug_str
	.long L$set$1695
	.byte	0x49
	.byte	0xe5
	.set L$set$1696,LASF938-Lsection__debug_str
	.long L$set$1696
	.long	0x9151
	.byte	0x1
	.long	0x901a
	.byte	0x1b
	.long	0x806a
	.byte	0x1
	.byte	0x22
	.long	0x2be7
	.byte	0x0
	.byte	0x1c
	.byte	0x1
	.set L$set$1697,LASF922-Lsection__debug_str
	.long L$set$1697
	.byte	0x4a
	.byte	0x78
	.set L$set$1698,LASF939-Lsection__debug_str
	.long L$set$1698
	.long	0x9151
	.byte	0x1
	.long	0x903b
	.byte	0x1b
	.long	0x806a
	.byte	0x1
	.byte	0x22
	.long	0x7385
	.byte	0x0
	.byte	0x1c
	.byte	0x1
	.set L$set$1699,LASF895-Lsection__debug_str
	.long L$set$1699
	.byte	0x4a
	.byte	0x90
	.set L$set$1700,LASF940-Lsection__debug_str
	.long L$set$1700
	.long	0x9151
	.byte	0x1
	.long	0x905c
	.byte	0x1b
	.long	0x806a
	.byte	0x1
	.byte	0x22
	.long	0xb17
	.byte	0x0
	.byte	0x37
	.byte	0x1
	.set L$set$1701,LASF941-Lsection__debug_str
	.long L$set$1701
	.byte	0x49
	.word	0x123
	.set L$set$1702,LASF942-Lsection__debug_str
	.long L$set$1702
	.byte	0x1
	.long	0x907f
	.byte	0x1b
	.long	0x806a
	.byte	0x1
	.byte	0x22
	.long	0x2b34
	.byte	0x22
	.long	0xa20
	.byte	0x0
	.byte	0x1c
	.byte	0x1
	.set L$set$1703,LASF943-Lsection__debug_str
	.long L$set$1703
	.byte	0x4a
	.byte	0xad
	.set L$set$1704,LASF944-Lsection__debug_str
	.long L$set$1704
	.long	0x9151
	.byte	0x1
	.long	0x90a5
	.byte	0x1b
	.long	0x806a
	.byte	0x1
	.byte	0x22
	.long	0x2b34
	.byte	0x22
	.long	0xa20
	.byte	0x0
	.byte	0x1c
	.byte	0x1
	.set L$set$1705,LASF945-Lsection__debug_str
	.long L$set$1705
	.byte	0x4a
	.byte	0xc4
	.set L$set$1706,LASF946-Lsection__debug_str
	.long L$set$1706
	.long	0x9151
	.byte	0x1
	.long	0x90c1
	.byte	0x1b
	.long	0x806a
	.byte	0x1
	.byte	0x0
	.byte	0x1c
	.byte	0x1
	.set L$set$1707,LASF947-Lsection__debug_str
	.long L$set$1707
	.byte	0x4a
	.byte	0xd9
	.set L$set$1708,LASF948-Lsection__debug_str
	.long L$set$1708
	.long	0x42c3
	.byte	0x1
	.long	0x90dd
	.byte	0x1b
	.long	0x806a
	.byte	0x1
	.byte	0x0
	.byte	0x1c
	.byte	0x1
	.set L$set$1709,LASF949-Lsection__debug_str
	.long L$set$1709
	.byte	0x4a
	.byte	0xe9
	.set L$set$1710,LASF950-Lsection__debug_str
	.long L$set$1710
	.long	0x9151
	.byte	0x1
	.long	0x90fe
	.byte	0x1b
	.long	0x806a
	.byte	0x1
	.byte	0x22
	.long	0x1310
	.byte	0x0
	.byte	0x44
	.byte	0x1
	.set L$set$1711,LASF949-Lsection__debug_str
	.long L$set$1711
	.byte	0x4a
	.word	0x104
	.set L$set$1712,LASF951-Lsection__debug_str
	.long L$set$1712
	.long	0x9151
	.byte	0x1
	.long	0x9125
	.byte	0x1b
	.long	0x806a
	.byte	0x1
	.byte	0x22
	.long	0xa9d
	.byte	0x22
	.long	0x170e
	.byte	0x0
	.byte	0x79
	.byte	0x1
	.set L$set$1713,LASF920-Lsection__debug_str
	.long L$set$1713
	.byte	0x49
	.word	0x16e
	.byte	0x2
	.byte	0x1
	.byte	0x1b
	.long	0x806a
	.byte	0x1
	.byte	0x1b
	.long	0xa20
	.byte	0x1
	.byte	0x1b
	.long	0x9144
	.byte	0x1
	.byte	0x0
	.byte	0x0
	.byte	0x1f
	.byte	0x4
	.long	0x914a
	.byte	0x1f
	.byte	0x4
	.long	0x9150
	.byte	0x42
	.byte	0x24
	.byte	0x4
	.long	0x8d85
	.byte	0x1f
	.byte	0x4
	.long	0x915d
	.byte	0x2c
	.long	0x9151
	.long	0x916c
	.byte	0x22
	.long	0x9151
	.byte	0x0
	.byte	0x1f
	.byte	0x4
	.long	0x9172
	.byte	0x2c
	.long	0x8097
	.long	0x9181
	.byte	0x22
	.long	0x8097
	.byte	0x0
	.byte	0x1f
	.byte	0x4
	.long	0x9187
	.byte	0x2c
	.long	0x6584
	.long	0x9196
	.byte	0x22
	.long	0x6584
	.byte	0x0
	.byte	0x1f
	.byte	0x4
	.long	0x919c
	.byte	0x20
	.long	0xab
	.byte	0x19
	.long	0x88
	.byte	0x1
	.byte	0x12
	.byte	0x2d
	.long	0x91fa
	.byte	0x58
	.set L$set$1714,LASF952-Lsection__debug_str
	.long L$set$1714
	.byte	0x12
	.word	0x118
	.set L$set$1715,LASF953-Lsection__debug_str
	.long L$set$1715
	.long	0x920a
	.byte	0x1
	.byte	0x3
	.byte	0x1
	.byte	0x58
	.set L$set$1716,LASF954-Lsection__debug_str
	.long L$set$1716
	.byte	0x12
	.word	0x119
	.set L$set$1717,LASF955-Lsection__debug_str
	.long L$set$1717
	.long	0x921f
	.byte	0x1
	.byte	0x3
	.byte	0x1
	.byte	0x58
	.set L$set$1718,LASF956-Lsection__debug_str
	.long L$set$1718
	.byte	0x12
	.word	0x11a
	.set L$set$1719,LASF957-Lsection__debug_str
	.long L$set$1719
	.long	0x9234
	.byte	0x1
	.byte	0x3
	.byte	0x1
	.byte	0x51
	.byte	0x1
	.set L$set$1720,LASF958-Lsection__debug_str
	.long L$set$1720
	.byte	0x12
	.word	0x113
	.set L$set$1721,LASF959-Lsection__debug_str
	.long L$set$1721
	.long	0x5f60
	.byte	0x3
	.byte	0x1
	.byte	0x0
	.byte	0x27
	.long	0xa20
	.long	0x920a
	.byte	0x28
	.long	0xb14
	.byte	0xff
	.byte	0x0
	.byte	0x20
	.long	0x91fa
	.byte	0x27
	.long	0xc2
	.long	0x921f
	.byte	0x28
	.long	0xb14
	.byte	0x5
	.byte	0x0
	.byte	0x20
	.long	0x920f
	.byte	0x27
	.long	0xab
	.long	0x9234
	.byte	0x28
	.long	0xb14
	.byte	0x6
	.byte	0x0
	.byte	0x20
	.long	0x9224
	.byte	0x1f
	.byte	0x4
	.long	0xdf
	.byte	0x19
	.long	0x4c9
	.byte	0x10
	.byte	0x10
	.byte	0xc6
	.long	0x9264
	.byte	0x13
	.ascii "Type\0"
	.byte	0x10
	.word	0x12f
	.long	0x698
	.byte	0x2
	.byte	0x23
	.byte	0x0
	.byte	0x7a
	.long	0x7a1
	.byte	0x2
	.byte	0x23
	.byte	0x4
	.byte	0x0
	.byte	0x63
	.long	0x82d
	.byte	0x4
	.byte	0x4b
	.byte	0x2b
	.long	0x9264
	.long	0x92d4
	.byte	0x5d
	.ascii "_vptr$WindowListener\0"
	.long	0xe0e
	.byte	0x2
	.byte	0x23
	.byte	0x0
	.byte	0x1
	.byte	0x7b
	.byte	0x1
	.set L$set$1722,LASF973-Lsection__debug_str
	.long L$set$1722
	.byte	0x4b
	.byte	0x34
	.set L$set$1723,LASF1562-Lsection__debug_str
	.long L$set$1723
	.byte	0x1
	.byte	0x2
	.byte	0x10
	.byte	0x0
	.long	0x9264
	.byte	0x1
	.long	0x92b7
	.byte	0x1b
	.long	0x92d4
	.byte	0x1
	.byte	0x22
	.long	0x92da
	.byte	0x0
	.byte	0x7c
	.byte	0x1
	.set L$set$1724,LASF960-Lsection__debug_str
	.long L$set$1724
	.byte	0x4b
	.byte	0x3c
	.byte	0x1
	.long	0x9264
	.byte	0x2
	.byte	0x1
	.byte	0x1b
	.long	0x92d4
	.byte	0x1
	.byte	0x1b
	.long	0xa20
	.byte	0x1
	.byte	0x0
	.byte	0x0
	.byte	0x1f
	.byte	0x4
	.long	0x9264
	.byte	0x24
	.byte	0x4
	.long	0x92e0
	.byte	0x20
	.long	0x923f
	.byte	0x7d
	.long	0x83e
	.word	0x244
	.byte	0x4c
	.byte	0x2d
	.long	0x9264
	.long	0x94cc
	.byte	0x32
	.long	0x9264
	.byte	0x2
	.byte	0x23
	.byte	0x0
	.byte	0x1
	.byte	0x7e
	.long	0x9af
	.byte	0x2
	.byte	0x23
	.byte	0x0
	.byte	0x1a
	.ascii "myKeys\0"
	.byte	0x4c
	.byte	0x81
	.long	0x94cc
	.byte	0x2
	.byte	0x23
	.byte	0x4
	.byte	0x3
	.byte	0x1a
	.ascii "myMouseButtons\0"
	.byte	0x4c
	.byte	0x82
	.long	0x94de
	.byte	0x3
	.byte	0x23
	.byte	0xc5,0x2
	.byte	0x3
	.byte	0x1a
	.ascii "myMouseX\0"
	.byte	0x4c
	.byte	0x83
	.long	0xa20
	.byte	0x3
	.byte	0x23
	.byte	0xcc,0x2
	.byte	0x3
	.byte	0x1a
	.ascii "myMouseY\0"
	.byte	0x4c
	.byte	0x84
	.long	0xa20
	.byte	0x3
	.byte	0x23
	.byte	0xd0,0x2
	.byte	0x3
	.byte	0x1a
	.ascii "myJoystickButtons\0"
	.byte	0x4c
	.byte	0x85
	.long	0x94ee
	.byte	0x3
	.byte	0x23
	.byte	0xd4,0x2
	.byte	0x3
	.byte	0x1a
	.ascii "myJoystickAxis\0"
	.byte	0x4c
	.byte	0x86
	.long	0x9504
	.byte	0x3
	.byte	0x23
	.byte	0xd4,0x3
	.byte	0x3
	.byte	0x6
	.byte	0x1
	.set L$set$1725,LASF7-Lsection__debug_str
	.long L$set$1725
	.byte	0x4c
	.byte	0x34
	.byte	0x1
	.long	0x93ab
	.byte	0x1b
	.long	0x951a
	.byte	0x1
	.byte	0x0
	.byte	0x1c
	.byte	0x1
	.set L$set$1726,LASF961-Lsection__debug_str
	.long L$set$1726
	.byte	0x4c
	.byte	0x3e
	.set L$set$1727,LASF962-Lsection__debug_str
	.long L$set$1727
	.long	0xe2a
	.byte	0x1
	.long	0x93cc
	.byte	0x1b
	.long	0x9520
	.byte	0x1
	.byte	0x22
	.long	0xf8
	.byte	0x0
	.byte	0x1c
	.byte	0x1
	.set L$set$1728,LASF963-Lsection__debug_str
	.long L$set$1728
	.byte	0x4c
	.byte	0x48
	.set L$set$1729,LASF964-Lsection__debug_str
	.long L$set$1729
	.long	0xe2a
	.byte	0x1
	.long	0x93ed
	.byte	0x1b
	.long	0x9520
	.byte	0x1
	.byte	0x22
	.long	0x429
	.byte	0x0
	.byte	0x1c
	.byte	0x1
	.set L$set$1730,LASF965-Lsection__debug_str
	.long L$set$1730
	.byte	0x4c
	.byte	0x53
	.set L$set$1731,LASF966-Lsection__debug_str
	.long L$set$1731
	.long	0xe2a
	.byte	0x1
	.long	0x9413
	.byte	0x1b
	.long	0x9520
	.byte	0x1
	.byte	0x22
	.long	0xa7c
	.byte	0x22
	.long	0xa7c
	.byte	0x0
	.byte	0x1c
	.byte	0x1
	.set L$set$1732,LASF967-Lsection__debug_str
	.long L$set$1732
	.byte	0x4c
	.byte	0x5b
	.set L$set$1733,LASF968-Lsection__debug_str
	.long L$set$1733
	.long	0xa20
	.byte	0x1
	.long	0x942f
	.byte	0x1b
	.long	0x9520
	.byte	0x1
	.byte	0x0
	.byte	0x1c
	.byte	0x1
	.set L$set$1734,LASF969-Lsection__debug_str
	.long L$set$1734
	.byte	0x4c
	.byte	0x63
	.set L$set$1735,LASF970-Lsection__debug_str
	.long L$set$1735
	.long	0xa20
	.byte	0x1
	.long	0x944b
	.byte	0x1b
	.long	0x9520
	.byte	0x1
	.byte	0x0
	.byte	0x1c
	.byte	0x1
	.set L$set$1736,LASF971-Lsection__debug_str
	.long L$set$1736
	.byte	0x4c
	.byte	0x6e
	.set L$set$1737,LASF972-Lsection__debug_str
	.long L$set$1737
	.long	0x99b
	.byte	0x1
	.long	0x9471
	.byte	0x1b
	.long	0x9520
	.byte	0x1
	.byte	0x22
	.long	0xa7c
	.byte	0x22
	.long	0x478
	.byte	0x0
	.byte	0x7f
	.byte	0x1
	.set L$set$1738,LASF973-Lsection__debug_str
	.long L$set$1738
	.byte	0x4c
	.byte	0x76
	.set L$set$1739,LASF1564-Lsection__debug_str
	.long L$set$1739
	.byte	0x1
	.byte	0x2
	.byte	0x10
	.byte	0x0
	.long	0x92e5
	.byte	0x3
	.byte	0x1
	.long	0x9497
	.byte	0x1b
	.long	0x951a
	.byte	0x1
	.byte	0x22
	.long	0x92da
	.byte	0x0
	.byte	0x75
	.byte	0x1
	.set L$set$1740,LASF974-Lsection__debug_str
	.long L$set$1740
	.byte	0x4c
	.byte	0x7c
	.set L$set$1741,LASF975-Lsection__debug_str
	.long L$set$1741
	.byte	0x3
	.byte	0x1
	.long	0x94b0
	.byte	0x1b
	.long	0x951a
	.byte	0x1
	.byte	0x0
	.byte	0x80,0x1
	.byte	0x1
	.set L$set$1742,LASF976-Lsection__debug_str
	.long L$set$1742
	.byte	0x1
	.long	0x92e5
	.byte	0x1
	.byte	0x1
	.byte	0x1b
	.long	0x951a
	.byte	0x1
	.byte	0x1b
	.long	0xa20
	.byte	0x1
	.byte	0x0
	.byte	0x0
	.byte	0x27
	.long	0xe2a
	.long	0x94de
	.byte	0x81,0x1
	.long	0xb14
	.word	0x140
	.byte	0x0
	.byte	0x27
	.long	0xe2a
	.long	0x94ee
	.byte	0x28
	.long	0xb14
	.byte	0x4
	.byte	0x0
	.byte	0x27
	.long	0xe2a
	.long	0x9504
	.byte	0x28
	.long	0xb14
	.byte	0x3
	.byte	0x28
	.long	0xb14
	.byte	0x1f
	.byte	0x0
	.byte	0x27
	.long	0x99b
	.long	0x951a
	.byte	0x28
	.long	0xb14
	.byte	0x3
	.byte	0x28
	.long	0xb14
	.byte	0x6
	.byte	0x0
	.byte	0x1f
	.byte	0x4
	.long	0x92e5
	.byte	0x1f
	.byte	0x4
	.long	0x9526
	.byte	0x20
	.long	0x92e5
	.byte	0x19
	.long	0x844
	.byte	0xc
	.byte	0x4d
	.byte	0x2b
	.long	0x9651
	.byte	0xf
	.ascii "Width\0"
	.byte	0x4d
	.byte	0x79
	.long	0xa7c
	.byte	0x2
	.byte	0x23
	.byte	0x0
	.byte	0xf
	.ascii "Height\0"
	.byte	0x4d
	.byte	0x7a
	.long	0xa7c
	.byte	0x2
	.byte	0x23
	.byte	0x4
	.byte	0xf
	.ascii "BitsPerPixel\0"
	.byte	0x4d
	.byte	0x7b
	.long	0xa7c
	.byte	0x2
	.byte	0x23
	.byte	0x8
	.byte	0x6
	.byte	0x1
	.set L$set$1743,LASF8-Lsection__debug_str
	.long L$set$1743
	.byte	0x4d
	.byte	0x32
	.byte	0x1
	.long	0x9583
	.byte	0x1b
	.long	0x9651
	.byte	0x1
	.byte	0x0
	.byte	0x6
	.byte	0x1
	.set L$set$1744,LASF8-Lsection__debug_str
	.long L$set$1744
	.byte	0x4d
	.byte	0x3c
	.byte	0x1
	.long	0x95a6
	.byte	0x1b
	.long	0x9651
	.byte	0x1
	.byte	0x22
	.long	0xa7c
	.byte	0x22
	.long	0xa7c
	.byte	0x22
	.long	0xa7c
	.byte	0x0
	.byte	0x48
	.byte	0x1
	.set L$set$1745,LASF977-Lsection__debug_str
	.long L$set$1745
	.byte	0x4d
	.byte	0x44
	.set L$set$1746,LASF978-Lsection__debug_str
	.long L$set$1746
	.long	0x952b
	.byte	0x1
	.byte	0x1c
	.byte	0x1
	.set L$set$1747,LASF979-Lsection__debug_str
	.long L$set$1747
	.byte	0x4d
	.byte	0x50
	.set L$set$1748,LASF980-Lsection__debug_str
	.long L$set$1748
	.long	0x952b
	.byte	0x1
	.long	0x95d2
	.byte	0x22
	.long	0xcf9
	.byte	0x0
	.byte	0x48
	.byte	0x1
	.set L$set$1749,LASF981-Lsection__debug_str
	.long L$set$1749
	.byte	0x4d
	.byte	0x58
	.set L$set$1750,LASF982-Lsection__debug_str
	.long L$set$1750
	.long	0xcf9
	.byte	0x1
	.byte	0x1c
	.byte	0x1
	.set L$set$1751,LASF983-Lsection__debug_str
	.long L$set$1751
	.byte	0x4d
	.byte	0x60
	.set L$set$1752,LASF984-Lsection__debug_str
	.long L$set$1752
	.long	0xe2a
	.byte	0x1
	.long	0x95ff
	.byte	0x1b
	.long	0x9657
	.byte	0x1
	.byte	0x0
	.byte	0x1c
	.byte	0x1
	.set L$set$1753,LASF498-Lsection__debug_str
	.long L$set$1753
	.byte	0x4d
	.byte	0x6a
	.set L$set$1754,LASF985-Lsection__debug_str
	.long L$set$1754
	.long	0xe2a
	.byte	0x1
	.long	0x9620
	.byte	0x1b
	.long	0x9657
	.byte	0x1
	.byte	0x22
	.long	0x9662
	.byte	0x0
	.byte	0x1c
	.byte	0x1
	.set L$set$1755,LASF500-Lsection__debug_str
	.long L$set$1755
	.byte	0x4d
	.byte	0x74
	.set L$set$1756,LASF986-Lsection__debug_str
	.long L$set$1756
	.long	0xe2a
	.byte	0x1
	.long	0x9641
	.byte	0x1b
	.long	0x9657
	.byte	0x1
	.byte	0x22
	.long	0x9662
	.byte	0x0
	.byte	0x82,0x1
	.byte	0x1
	.set L$set$1757,LASF987-Lsection__debug_str
	.long L$set$1757
	.byte	0x4d
	.byte	0x82
	.set L$set$1758,LASF988-Lsection__debug_str
	.long L$set$1758
	.byte	0x3
	.byte	0x1
	.byte	0x0
	.byte	0x1f
	.byte	0x4
	.long	0x952b
	.byte	0x1f
	.byte	0x4
	.long	0x965d
	.byte	0x20
	.long	0x952b
	.byte	0x24
	.byte	0x4
	.long	0x965d
	.byte	0x19
	.long	0x84a
	.byte	0xc
	.byte	0x4e
	.byte	0x23
	.long	0x96da
	.byte	0xf
	.ascii "DepthBits\0"
	.byte	0x4e
	.byte	0x36
	.long	0xa7c
	.byte	0x2
	.byte	0x23
	.byte	0x0
	.byte	0xf
	.ascii "StencilBits\0"
	.byte	0x4e
	.byte	0x37
	.long	0xa7c
	.byte	0x2
	.byte	0x23
	.byte	0x4
	.byte	0xf
	.ascii "AntialiasingLevel\0"
	.byte	0x4e
	.byte	0x38
	.long	0xa7c
	.byte	0x2
	.byte	0x23
	.byte	0x8
	.byte	0x8
	.byte	0x1
	.set L$set$1759,LASF9-Lsection__debug_str
	.long L$set$1759
	.byte	0x4e
	.byte	0x2c
	.byte	0x1
	.byte	0x1b
	.long	0x96da
	.byte	0x1
	.byte	0x22
	.long	0xa7c
	.byte	0x22
	.long	0xa7c
	.byte	0x22
	.long	0xa7c
	.byte	0x0
	.byte	0x0
	.byte	0x1f
	.byte	0x4
	.long	0x9668
	.byte	0x19
	.long	0x2790
	.byte	0x1
	.byte	0x6
	.byte	0x36
	.long	0x9815
	.byte	0x6
	.byte	0x1
	.set L$set$1760,LASF258-Lsection__debug_str
	.long L$set$1760
	.byte	0x6
	.byte	0x44
	.byte	0x1
	.long	0x9700
	.byte	0x1b
	.long	0x9827
	.byte	0x1
	.byte	0x0
	.byte	0x6
	.byte	0x1
	.set L$set$1761,LASF258-Lsection__debug_str
	.long L$set$1761
	.byte	0x6
	.byte	0x46
	.byte	0x1
	.long	0x9719
	.byte	0x1b
	.long	0x9827
	.byte	0x1
	.byte	0x22
	.long	0x982d
	.byte	0x0
	.byte	0x6
	.byte	0x1
	.set L$set$1762,LASF259-Lsection__debug_str
	.long L$set$1762
	.byte	0x6
	.byte	0x4b
	.byte	0x1
	.long	0x9733
	.byte	0x1b
	.long	0x9827
	.byte	0x1
	.byte	0x1b
	.long	0xa20
	.byte	0x1
	.byte	0x0
	.byte	0x1c
	.byte	0x1
	.set L$set$1763,LASF260-Lsection__debug_str
	.long L$set$1763
	.byte	0x6
	.byte	0x4e
	.set L$set$1764,LASF989-Lsection__debug_str
	.long L$set$1764
	.long	0x9815
	.byte	0x1
	.long	0x9754
	.byte	0x1b
	.long	0x9838
	.byte	0x1
	.byte	0x22
	.long	0x9821
	.byte	0x0
	.byte	0x1c
	.byte	0x1
	.set L$set$1765,LASF260-Lsection__debug_str
	.long L$set$1765
	.byte	0x6
	.byte	0x51
	.set L$set$1766,LASF990-Lsection__debug_str
	.long L$set$1766
	.long	0x981b
	.byte	0x1
	.long	0x9775
	.byte	0x1b
	.long	0x9838
	.byte	0x1
	.byte	0x22
	.long	0x92da
	.byte	0x0
	.byte	0x1c
	.byte	0x1
	.set L$set$1767,LASF263-Lsection__debug_str
	.long L$set$1767
	.byte	0x6
	.byte	0x56
	.set L$set$1768,LASF991-Lsection__debug_str
	.long L$set$1768
	.long	0x9815
	.byte	0x1
	.long	0x979b
	.byte	0x1b
	.long	0x9827
	.byte	0x1
	.byte	0x22
	.long	0xb63
	.byte	0x22
	.long	0x2be7
	.byte	0x0
	.byte	0x4b
	.byte	0x1
	.set L$set$1769,LASF265-Lsection__debug_str
	.long L$set$1769
	.byte	0x6
	.byte	0x60
	.set L$set$1770,LASF992-Lsection__debug_str
	.long L$set$1770
	.byte	0x1
	.long	0x97bd
	.byte	0x1b
	.long	0x9827
	.byte	0x1
	.byte	0x22
	.long	0x9815
	.byte	0x22
	.long	0xb63
	.byte	0x0
	.byte	0x1c
	.byte	0x1
	.set L$set$1771,LASF268-Lsection__debug_str
	.long L$set$1771
	.byte	0x6
	.byte	0x64
	.set L$set$1772,LASF993-Lsection__debug_str
	.long L$set$1772
	.long	0xcf9
	.byte	0x1
	.long	0x97d9
	.byte	0x1b
	.long	0x9838
	.byte	0x1
	.byte	0x0
	.byte	0x4b
	.byte	0x1
	.set L$set$1773,LASF270-Lsection__debug_str
	.long L$set$1773
	.byte	0x6
	.byte	0x6a
	.set L$set$1774,LASF994-Lsection__debug_str
	.long L$set$1774
	.byte	0x1
	.long	0x97fb
	.byte	0x1b
	.long	0x9827
	.byte	0x1
	.byte	0x22
	.long	0x9815
	.byte	0x22
	.long	0x92da
	.byte	0x0
	.byte	0x1d
	.byte	0x1
	.set L$set$1775,LASF272-Lsection__debug_str
	.long L$set$1775
	.byte	0x6
	.byte	0x6e
	.set L$set$1776,LASF995-Lsection__debug_str
	.long L$set$1776
	.byte	0x1
	.byte	0x1b
	.long	0x9827
	.byte	0x1
	.byte	0x22
	.long	0x9815
	.byte	0x0
	.byte	0x0
	.byte	0x1f
	.byte	0x4
	.long	0x923f
	.byte	0x1f
	.byte	0x4
	.long	0x92e0
	.byte	0x24
	.byte	0x4
	.long	0x923f
	.byte	0x1f
	.byte	0x4
	.long	0x96e0
	.byte	0x24
	.byte	0x4
	.long	0x9833
	.byte	0x20
	.long	0x96e0
	.byte	0x1f
	.byte	0x4
	.long	0x9833
	.byte	0x19
	.long	0x1b9d
	.byte	0x1
	.byte	0x7
	.byte	0x56
	.long	0x9897
	.byte	0x32
	.long	0x96e0
	.byte	0x2
	.byte	0x23
	.byte	0x0
	.byte	0x1
	.byte	0x6
	.byte	0x1
	.set L$set$1777,LASF275-Lsection__debug_str
	.long L$set$1777
	.byte	0x7
	.byte	0x64
	.byte	0x1
	.long	0x9867
	.byte	0x1b
	.long	0x9897
	.byte	0x1
	.byte	0x0
	.byte	0x6
	.byte	0x1
	.set L$set$1778,LASF275-Lsection__debug_str
	.long L$set$1778
	.byte	0x7
	.byte	0x66
	.byte	0x1
	.long	0x9880
	.byte	0x1b
	.long	0x9897
	.byte	0x1
	.byte	0x22
	.long	0x989d
	.byte	0x0
	.byte	0x8
	.byte	0x1
	.set L$set$1779,LASF276-Lsection__debug_str
	.long L$set$1779
	.byte	0x7
	.byte	0x6c
	.byte	0x1
	.byte	0x1b
	.long	0x9897
	.byte	0x1
	.byte	0x1b
	.long	0xa20
	.byte	0x1
	.byte	0x0
	.byte	0x0
	.byte	0x1f
	.byte	0x4
	.long	0x983e
	.byte	0x24
	.byte	0x4
	.long	0x98a3
	.byte	0x20
	.long	0x983e
	.byte	0x19
	.long	0x1c75
	.byte	0x10
	.byte	0x2c
	.byte	0x67
	.long	0x9ac5
	.byte	0xf
	.ascii "_M_cur\0"
	.byte	0x2c
	.byte	0x77
	.long	0x9815
	.byte	0x2
	.byte	0x23
	.byte	0x0
	.byte	0xf
	.ascii "_M_first\0"
	.byte	0x2c
	.byte	0x78
	.long	0x9815
	.byte	0x2
	.byte	0x23
	.byte	0x4
	.byte	0xf
	.ascii "_M_last\0"
	.byte	0x2c
	.byte	0x79
	.long	0x9815
	.byte	0x2
	.byte	0x23
	.byte	0x8
	.byte	0x10
	.set L$set$1780,LASF996-Lsection__debug_str
	.long L$set$1780
	.byte	0x2c
	.byte	0x7a
	.long	0x9ac5
	.byte	0x2
	.byte	0x23
	.byte	0xc
	.byte	0x48
	.byte	0x1
	.set L$set$1781,LASF997-Lsection__debug_str
	.long L$set$1781
	.byte	0x2c
	.byte	0x6b
	.set L$set$1782,LASF998-Lsection__debug_str
	.long L$set$1782
	.long	0xcf9
	.byte	0x1
	.byte	0x6
	.byte	0x1
	.set L$set$1783,LASF999-Lsection__debug_str
	.long L$set$1783
	.byte	0x2c
	.byte	0x7c
	.byte	0x1
	.long	0x9927
	.byte	0x1b
	.long	0x9acb
	.byte	0x1
	.byte	0x22
	.long	0x9815
	.byte	0x22
	.long	0x9ac5
	.byte	0x0
	.byte	0x6
	.byte	0x1
	.set L$set$1784,LASF999-Lsection__debug_str
	.long L$set$1784
	.byte	0x2c
	.byte	0x80
	.byte	0x1
	.long	0x993b
	.byte	0x1b
	.long	0x9acb
	.byte	0x1
	.byte	0x0
	.byte	0x6
	.byte	0x1
	.set L$set$1785,LASF999-Lsection__debug_str
	.long L$set$1785
	.byte	0x2c
	.byte	0x82
	.byte	0x1
	.long	0x9954
	.byte	0x1b
	.long	0x9acb
	.byte	0x1
	.byte	0x22
	.long	0x9ad1
	.byte	0x0
	.byte	0x1c
	.byte	0x1
	.set L$set$1786,LASF845-Lsection__debug_str
	.long L$set$1786
	.byte	0x2c
	.byte	0x87
	.set L$set$1787,LASF1000-Lsection__debug_str
	.long L$set$1787
	.long	0x9821
	.byte	0x1
	.long	0x9970
	.byte	0x1b
	.long	0x9adc
	.byte	0x1
	.byte	0x0
	.byte	0x1c
	.byte	0x1
	.set L$set$1788,LASF847-Lsection__debug_str
	.long L$set$1788
	.byte	0x2c
	.byte	0x8b
	.set L$set$1789,LASF1001-Lsection__debug_str
	.long L$set$1789
	.long	0x9815
	.byte	0x1
	.long	0x998c
	.byte	0x1b
	.long	0x9adc
	.byte	0x1
	.byte	0x0
	.byte	0x1c
	.byte	0x1
	.set L$set$1790,LASF849-Lsection__debug_str
	.long L$set$1790
	.byte	0x2c
	.byte	0x8f
	.set L$set$1791,LASF1002-Lsection__debug_str
	.long L$set$1791
	.long	0x9ae2
	.byte	0x1
	.long	0x99a8
	.byte	0x1b
	.long	0x9acb
	.byte	0x1
	.byte	0x0
	.byte	0x1c
	.byte	0x1
	.set L$set$1792,LASF849-Lsection__debug_str
	.long L$set$1792
	.byte	0x2c
	.byte	0x9b
	.set L$set$1793,LASF1003-Lsection__debug_str
	.long L$set$1793
	.long	0x98a8
	.byte	0x1
	.long	0x99c9
	.byte	0x1b
	.long	0x9acb
	.byte	0x1
	.byte	0x22
	.long	0xa20
	.byte	0x0
	.byte	0x1c
	.byte	0x1
	.set L$set$1794,LASF852-Lsection__debug_str
	.long L$set$1794
	.byte	0x2c
	.byte	0xa3
	.set L$set$1795,LASF1004-Lsection__debug_str
	.long L$set$1795
	.long	0x9ae2
	.byte	0x1
	.long	0x99e5
	.byte	0x1b
	.long	0x9acb
	.byte	0x1
	.byte	0x0
	.byte	0x1c
	.byte	0x1
	.set L$set$1796,LASF852-Lsection__debug_str
	.long L$set$1796
	.byte	0x2c
	.byte	0xaf
	.set L$set$1797,LASF1005-Lsection__debug_str
	.long L$set$1797
	.long	0x98a8
	.byte	0x1
	.long	0x9a06
	.byte	0x1b
	.long	0x9acb
	.byte	0x1
	.byte	0x22
	.long	0xa20
	.byte	0x0
	.byte	0x1c
	.byte	0x1
	.set L$set$1798,LASF351-Lsection__debug_str
	.long L$set$1798
	.byte	0x2c
	.byte	0xb7
	.set L$set$1799,LASF1006-Lsection__debug_str
	.long L$set$1799
	.long	0x9ae2
	.byte	0x1
	.long	0x9a27
	.byte	0x1b
	.long	0x9acb
	.byte	0x1
	.byte	0x22
	.long	0xa20
	.byte	0x0
	.byte	0x1c
	.byte	0x1
	.set L$set$1800,LASF857-Lsection__debug_str
	.long L$set$1800
	.byte	0x2c
	.byte	0xca
	.set L$set$1801,LASF1007-Lsection__debug_str
	.long L$set$1801
	.long	0x98a8
	.byte	0x1
	.long	0x9a48
	.byte	0x1b
	.long	0x9adc
	.byte	0x1
	.byte	0x22
	.long	0xa20
	.byte	0x0
	.byte	0x1c
	.byte	0x1
	.set L$set$1802,LASF859-Lsection__debug_str
	.long L$set$1802
	.byte	0x2c
	.byte	0xd1
	.set L$set$1803,LASF1008-Lsection__debug_str
	.long L$set$1803
	.long	0x9ae2
	.byte	0x1
	.long	0x9a69
	.byte	0x1b
	.long	0x9acb
	.byte	0x1
	.byte	0x22
	.long	0xa20
	.byte	0x0
	.byte	0x1c
	.byte	0x1
	.set L$set$1804,LASF861-Lsection__debug_str
	.long L$set$1804
	.byte	0x2c
	.byte	0xd5
	.set L$set$1805,LASF1009-Lsection__debug_str
	.long L$set$1805
	.long	0x98a8
	.byte	0x1
	.long	0x9a8a
	.byte	0x1b
	.long	0x9adc
	.byte	0x1
	.byte	0x22
	.long	0xa20
	.byte	0x0
	.byte	0x1c
	.byte	0x1
	.set L$set$1806,LASF345-Lsection__debug_str
	.long L$set$1806
	.byte	0x2c
	.byte	0xdc
	.set L$set$1807,LASF1010-Lsection__debug_str
	.long L$set$1807
	.long	0x9821
	.byte	0x1
	.long	0x9aab
	.byte	0x1b
	.long	0x9adc
	.byte	0x1
	.byte	0x22
	.long	0xa20
	.byte	0x0
	.byte	0x1d
	.byte	0x1
	.set L$set$1808,LASF1011-Lsection__debug_str
	.long L$set$1808
	.byte	0x2c
	.byte	0xe6
	.set L$set$1809,LASF1012-Lsection__debug_str
	.long L$set$1809
	.byte	0x1
	.byte	0x1b
	.long	0x9acb
	.byte	0x1
	.byte	0x22
	.long	0x9ac5
	.byte	0x0
	.byte	0x0
	.byte	0x1f
	.byte	0x4
	.long	0x9815
	.byte	0x1f
	.byte	0x4
	.long	0x98a8
	.byte	0x24
	.byte	0x4
	.long	0x9ad7
	.byte	0x20
	.long	0x98a8
	.byte	0x1f
	.byte	0x4
	.long	0x9ad7
	.byte	0x24
	.byte	0x4
	.long	0x98a8
	.byte	0x1f
	.byte	0x4
	.long	0x1c04
	.byte	0x60
	.long	0x1bcc
	.byte	0x28
	.byte	0x2c
	.word	0x174
	.long	0x9d0a
	.byte	0x57
	.set L$set$1810,LASF489-Lsection__debug_str
	.long L$set$1810
	.byte	0x2c
	.word	0x1c5
	.long	0x1c04
	.byte	0x2
	.byte	0x23
	.byte	0x0
	.byte	0x2
	.byte	0x44
	.byte	0x1
	.set L$set$1811,LASF406-Lsection__debug_str
	.long L$set$1811
	.byte	0x2c
	.word	0x179
	.set L$set$1812,LASF1013-Lsection__debug_str
	.long L$set$1812
	.long	0x983e
	.byte	0x1
	.long	0x9b28
	.byte	0x1b
	.long	0x9d0a
	.byte	0x1
	.byte	0x0
	.byte	0x36
	.byte	0x1
	.set L$set$1813,LASF1014-Lsection__debug_str
	.long L$set$1813
	.byte	0x2c
	.word	0x17f
	.byte	0x1
	.long	0x9b47
	.byte	0x1b
	.long	0x9d15
	.byte	0x1
	.byte	0x22
	.long	0x989d
	.byte	0x22
	.long	0xb63
	.byte	0x0
	.byte	0x36
	.byte	0x1
	.set L$set$1814,LASF1014-Lsection__debug_str
	.long L$set$1814
	.byte	0x2c
	.word	0x183
	.byte	0x1
	.long	0x9b61
	.byte	0x1b
	.long	0x9d15
	.byte	0x1
	.byte	0x22
	.long	0x989d
	.byte	0x0
	.byte	0x36
	.byte	0x1
	.set L$set$1815,LASF1015-Lsection__debug_str
	.long L$set$1815
	.byte	0x2c
	.word	0x1ca
	.byte	0x1
	.long	0x9b7c
	.byte	0x1b
	.long	0x9d15
	.byte	0x1
	.byte	0x1b
	.long	0xa20
	.byte	0x1
	.byte	0x0
	.byte	0x4f
	.byte	0x1
	.set L$set$1816,LASF1016-Lsection__debug_str
	.long L$set$1816
	.byte	0x2c
	.word	0x1a0
	.set L$set$1817,LASF1017-Lsection__debug_str
	.long L$set$1817
	.long	0x9d1b
	.byte	0x2
	.byte	0x1
	.long	0x9b9a
	.byte	0x1b
	.long	0x9d15
	.byte	0x1
	.byte	0x0
	.byte	0x4f
	.byte	0x1
	.set L$set$1818,LASF1016-Lsection__debug_str
	.long L$set$1818
	.byte	0x2c
	.word	0x1a4
	.set L$set$1819,LASF1018-Lsection__debug_str
	.long L$set$1819
	.long	0x989d
	.byte	0x2
	.byte	0x1
	.long	0x9bb8
	.byte	0x1b
	.long	0x9d0a
	.byte	0x1
	.byte	0x0
	.byte	0x4f
	.byte	0x1
	.set L$set$1820,LASF1019-Lsection__debug_str
	.long L$set$1820
	.byte	0x2c
	.word	0x1a8
	.set L$set$1821,LASF1020-Lsection__debug_str
	.long L$set$1821
	.long	0x1bb4
	.byte	0x2
	.byte	0x1
	.long	0x9bd6
	.byte	0x1b
	.long	0x9d0a
	.byte	0x1
	.byte	0x0
	.byte	0x4f
	.byte	0x1
	.set L$set$1822,LASF1021-Lsection__debug_str
	.long L$set$1822
	.byte	0x2c
	.word	0x1ac
	.set L$set$1823,LASF1022-Lsection__debug_str
	.long L$set$1823
	.long	0x9815
	.byte	0x2
	.byte	0x1
	.long	0x9bf4
	.byte	0x1b
	.long	0x9d15
	.byte	0x1
	.byte	0x0
	.byte	0x50
	.byte	0x1
	.set L$set$1824,LASF1023-Lsection__debug_str
	.long L$set$1824
	.byte	0x2c
	.word	0x1b2
	.set L$set$1825,LASF1024-Lsection__debug_str
	.long L$set$1825
	.byte	0x2
	.byte	0x1
	.long	0x9c13
	.byte	0x1b
	.long	0x9d15
	.byte	0x1
	.byte	0x22
	.long	0x9815
	.byte	0x0
	.byte	0x4f
	.byte	0x1
	.set L$set$1826,LASF1025-Lsection__debug_str
	.long L$set$1826
	.byte	0x2c
	.word	0x1b8
	.set L$set$1827,LASF1026-Lsection__debug_str
	.long L$set$1827
	.long	0x9ac5
	.byte	0x2
	.byte	0x1
	.long	0x9c36
	.byte	0x1b
	.long	0x9d15
	.byte	0x1
	.byte	0x22
	.long	0xb63
	.byte	0x0
	.byte	0x50
	.byte	0x1
	.set L$set$1828,LASF1027-Lsection__debug_str
	.long L$set$1828
	.byte	0x2c
	.word	0x1bc
	.set L$set$1829,LASF1028-Lsection__debug_str
	.long L$set$1829
	.byte	0x2
	.byte	0x1
	.long	0x9c5a
	.byte	0x1b
	.long	0x9d15
	.byte	0x1
	.byte	0x22
	.long	0x9ac5
	.byte	0x22
	.long	0xb63
	.byte	0x0
	.byte	0x50
	.byte	0x1
	.set L$set$1830,LASF1029-Lsection__debug_str
	.long L$set$1830
	.byte	0x2c
	.word	0x1e1
	.set L$set$1831,LASF1030-Lsection__debug_str
	.long L$set$1831
	.byte	0x2
	.byte	0x1
	.long	0x9c79
	.byte	0x1b
	.long	0x9d15
	.byte	0x1
	.byte	0x22
	.long	0xb63
	.byte	0x0
	.byte	0x50
	.byte	0x1
	.set L$set$1832,LASF1031-Lsection__debug_str
	.long L$set$1832
	.byte	0x2c
	.word	0x208
	.set L$set$1833,LASF1032-Lsection__debug_str
	.long L$set$1833
	.byte	0x2
	.byte	0x1
	.long	0x9c9d
	.byte	0x1b
	.long	0x9d15
	.byte	0x1
	.byte	0x22
	.long	0x9ac5
	.byte	0x22
	.long	0x9ac5
	.byte	0x0
	.byte	0x50
	.byte	0x1
	.set L$set$1834,LASF1033-Lsection__debug_str
	.long L$set$1834
	.byte	0x2c
	.word	0x21a
	.set L$set$1835,LASF1034-Lsection__debug_str
	.long L$set$1835
	.byte	0x2
	.byte	0x1
	.long	0x9cc1
	.byte	0x1b
	.long	0x9d15
	.byte	0x1
	.byte	0x22
	.long	0x9ac5
	.byte	0x22
	.long	0x9ac5
	.byte	0x0
	.byte	0x2f
	.byte	0x2c
	.word	0x276
	.long	0x9c5a
	.byte	0x2f
	.byte	0x2c
	.word	0x276
	.long	0x9c79
	.byte	0x2f
	.byte	0x2c
	.word	0x276
	.long	0x9c9d
	.byte	0x2f
	.byte	0x2c
	.word	0x276
	.long	0x9bd6
	.byte	0x2f
	.byte	0x2c
	.word	0x276
	.long	0x9bf4
	.byte	0x2f
	.byte	0x2c
	.word	0x276
	.long	0x9c13
	.byte	0x2f
	.byte	0x2c
	.word	0x276
	.long	0x9c36
	.byte	0x2f
	.byte	0x2c
	.word	0x276
	.long	0x9b9a
	.byte	0x2f
	.byte	0x2c
	.word	0x276
	.long	0x9afb
	.byte	0x0
	.byte	0x1f
	.byte	0x4
	.long	0x9d10
	.byte	0x20
	.long	0x9aee
	.byte	0x1f
	.byte	0x4
	.long	0x9aee
	.byte	0x24
	.byte	0x4
	.long	0x983e
	.byte	0x60
	.long	0x1ce7
	.byte	0x28
	.byte	0x2c
	.word	0x276
	.long	0xa4c2
	.byte	0x32
	.long	0x9aee
	.byte	0x2
	.byte	0x23
	.byte	0x0
	.byte	0x2
	.byte	0x51
	.byte	0x1
	.set L$set$1836,LASF997-Lsection__debug_str
	.long L$set$1836
	.byte	0x2c
	.word	0x290
	.set L$set$1837,LASF1035-Lsection__debug_str
	.long L$set$1837
	.long	0xcf9
	.byte	0x2
	.byte	0x1
	.byte	0x36
	.byte	0x1
	.set L$set$1838,LASF1036-Lsection__debug_str
	.long L$set$1838
	.byte	0x2c
	.word	0x2ab
	.byte	0x1
	.long	0x9d64
	.byte	0x1b
	.long	0xa4c2
	.byte	0x1
	.byte	0x22
	.long	0x989d
	.byte	0x0
	.byte	0x36
	.byte	0x1
	.set L$set$1839,LASF1036-Lsection__debug_str
	.long L$set$1839
	.byte	0x2c
	.word	0x2b7
	.byte	0x1
	.long	0x9d88
	.byte	0x1b
	.long	0xa4c2
	.byte	0x1
	.byte	0x22
	.long	0xb63
	.byte	0x22
	.long	0x92da
	.byte	0x22
	.long	0x989d
	.byte	0x0
	.byte	0x36
	.byte	0x1
	.set L$set$1840,LASF1036-Lsection__debug_str
	.long L$set$1840
	.byte	0x2c
	.word	0x2c2
	.byte	0x1
	.long	0x9da2
	.byte	0x1b
	.long	0xa4c2
	.byte	0x1
	.byte	0x22
	.long	0xa4c8
	.byte	0x0
	.byte	0x36
	.byte	0x1
	.set L$set$1841,LASF1037-Lsection__debug_str
	.long L$set$1841
	.byte	0x2c
	.word	0x2e5
	.byte	0x1
	.long	0x9dbd
	.byte	0x1b
	.long	0xa4c2
	.byte	0x1
	.byte	0x1b
	.long	0xa20
	.byte	0x1
	.byte	0x0
	.byte	0x1c
	.byte	0x1
	.set L$set$1842,LASF22-Lsection__debug_str
	.long L$set$1842
	.byte	0x4f
	.byte	0x46
	.set L$set$1843,LASF1038-Lsection__debug_str
	.long L$set$1843
	.long	0xa4d3
	.byte	0x1
	.long	0x9dde
	.byte	0x1b
	.long	0xa4c2
	.byte	0x1
	.byte	0x22
	.long	0xa4c8
	.byte	0x0
	.byte	0x37
	.byte	0x1
	.set L$set$1844,LASF232-Lsection__debug_str
	.long L$set$1844
	.byte	0x2c
	.word	0x2fd
	.set L$set$1845,LASF1039-Lsection__debug_str
	.long L$set$1845
	.byte	0x1
	.long	0x9e01
	.byte	0x1b
	.long	0xa4c2
	.byte	0x1
	.byte	0x22
	.long	0xb63
	.byte	0x22
	.long	0x92da
	.byte	0x0
	.byte	0x44
	.byte	0x1
	.set L$set$1846,LASF406-Lsection__debug_str
	.long L$set$1846
	.byte	0x2c
	.word	0x316
	.set L$set$1847,LASF1040-Lsection__debug_str
	.long L$set$1847
	.long	0x983e
	.byte	0x1
	.long	0x9e1e
	.byte	0x1b
	.long	0xa4d9
	.byte	0x1
	.byte	0x0
	.byte	0x44
	.byte	0x1
	.set L$set$1848,LASF318-Lsection__debug_str
	.long L$set$1848
	.byte	0x2c
	.word	0x31f
	.set L$set$1849,LASF1041-Lsection__debug_str
	.long L$set$1849
	.long	0x98a8
	.byte	0x1
	.long	0x9e3b
	.byte	0x1b
	.long	0xa4c2
	.byte	0x1
	.byte	0x0
	.byte	0x44
	.byte	0x1
	.set L$set$1850,LASF318-Lsection__debug_str
	.long L$set$1850
	.byte	0x2c
	.word	0x327
	.set L$set$1851,LASF1042-Lsection__debug_str
	.long L$set$1851
	.long	0x1ca8
	.byte	0x1
	.long	0x9e58
	.byte	0x1b
	.long	0xa4d9
	.byte	0x1
	.byte	0x0
	.byte	0x44
	.byte	0x1
	.set L$set$1852,LASF321-Lsection__debug_str
	.long L$set$1852
	.byte	0x2c
	.word	0x330
	.set L$set$1853,LASF1043-Lsection__debug_str
	.long L$set$1853
	.long	0x98a8
	.byte	0x1
	.long	0x9e75
	.byte	0x1b
	.long	0xa4c2
	.byte	0x1
	.byte	0x0
	.byte	0x44
	.byte	0x1
	.set L$set$1854,LASF321-Lsection__debug_str
	.long L$set$1854
	.byte	0x2c
	.word	0x339
	.set L$set$1855,LASF1044-Lsection__debug_str
	.long L$set$1855
	.long	0x1ca8
	.byte	0x1
	.long	0x9e92
	.byte	0x1b
	.long	0xa4d9
	.byte	0x1
	.byte	0x0
	.byte	0x44
	.byte	0x1
	.set L$set$1856,LASF324-Lsection__debug_str
	.long L$set$1856
	.byte	0x2c
	.word	0x342
	.set L$set$1857,LASF1045-Lsection__debug_str
	.long L$set$1857
	.long	0x1d6e
	.byte	0x1
	.long	0x9eaf
	.byte	0x1b
	.long	0xa4c2
	.byte	0x1
	.byte	0x0
	.byte	0x44
	.byte	0x1
	.set L$set$1858,LASF324-Lsection__debug_str
	.long L$set$1858
	.byte	0x2c
	.word	0x34b
	.set L$set$1859,LASF1046-Lsection__debug_str
	.long L$set$1859
	.long	0x1d15
	.byte	0x1
	.long	0x9ecc
	.byte	0x1b
	.long	0xa4d9
	.byte	0x1
	.byte	0x0
	.byte	0x44
	.byte	0x1
	.set L$set$1860,LASF327-Lsection__debug_str
	.long L$set$1860
	.byte	0x2c
	.word	0x354
	.set L$set$1861,LASF1047-Lsection__debug_str
	.long L$set$1861
	.long	0x1d6e
	.byte	0x1
	.long	0x9ee9
	.byte	0x1b
	.long	0xa4c2
	.byte	0x1
	.byte	0x0
	.byte	0x44
	.byte	0x1
	.set L$set$1862,LASF327-Lsection__debug_str
	.long L$set$1862
	.byte	0x2c
	.word	0x35d
	.set L$set$1863,LASF1048-Lsection__debug_str
	.long L$set$1863
	.long	0x1d15
	.byte	0x1
	.long	0x9f06
	.byte	0x1b
	.long	0xa4d9
	.byte	0x1
	.byte	0x0
	.byte	0x44
	.byte	0x1
	.set L$set$1864,LASF330-Lsection__debug_str
	.long L$set$1864
	.byte	0x2c
	.word	0x363
	.set L$set$1865,LASF1049-Lsection__debug_str
	.long L$set$1865
	.long	0xcf9
	.byte	0x1
	.long	0x9f23
	.byte	0x1b
	.long	0xa4d9
	.byte	0x1
	.byte	0x0
	.byte	0x44
	.byte	0x1
	.set L$set$1866,LASF268-Lsection__debug_str
	.long L$set$1866
	.byte	0x2c
	.word	0x368
	.set L$set$1867,LASF1050-Lsection__debug_str
	.long L$set$1867
	.long	0xcf9
	.byte	0x1
	.long	0x9f40
	.byte	0x1b
	.long	0xa4d9
	.byte	0x1
	.byte	0x0
	.byte	0x37
	.byte	0x1
	.set L$set$1868,LASF334-Lsection__debug_str
	.long L$set$1868
	.byte	0x2c
	.word	0x377
	.set L$set$1869,LASF1051-Lsection__debug_str
	.long L$set$1869
	.byte	0x1
	.long	0x9f63
	.byte	0x1b
	.long	0xa4c2
	.byte	0x1
	.byte	0x22
	.long	0xb63
	.byte	0x22
	.long	0x923f
	.byte	0x0
	.byte	0x44
	.byte	0x1
	.set L$set$1870,LASF343-Lsection__debug_str
	.long L$set$1870
	.byte	0x2c
	.word	0x385
	.set L$set$1871,LASF1052-Lsection__debug_str
	.long L$set$1871
	.long	0xe2a
	.byte	0x1
	.long	0x9f80
	.byte	0x1b
	.long	0xa4d9
	.byte	0x1
	.byte	0x0
	.byte	0x44
	.byte	0x1
	.set L$set$1872,LASF345-Lsection__debug_str
	.long L$set$1872
	.byte	0x2c
	.word	0x395
	.set L$set$1873,LASF1053-Lsection__debug_str
	.long L$set$1873
	.long	0x9821
	.byte	0x1
	.long	0x9fa2
	.byte	0x1b
	.long	0xa4c2
	.byte	0x1
	.byte	0x22
	.long	0xb63
	.byte	0x0
	.byte	0x44
	.byte	0x1
	.set L$set$1874,LASF345-Lsection__debug_str
	.long L$set$1874
	.byte	0x2c
	.word	0x3a4
	.set L$set$1875,LASF1054-Lsection__debug_str
	.long L$set$1875
	.long	0x92da
	.byte	0x1
	.long	0x9fc4
	.byte	0x1b
	.long	0xa4d9
	.byte	0x1
	.byte	0x22
	.long	0xb63
	.byte	0x0
	.byte	0x50
	.byte	0x1
	.set L$set$1876,LASF1055-Lsection__debug_str
	.long L$set$1876
	.byte	0x2c
	.word	0x3aa
	.set L$set$1877,LASF1056-Lsection__debug_str
	.long L$set$1877
	.byte	0x2
	.byte	0x1
	.long	0x9fe3
	.byte	0x1b
	.long	0xa4d9
	.byte	0x1
	.byte	0x22
	.long	0xb63
	.byte	0x0
	.byte	0x44
	.byte	0x1
	.set L$set$1878,LASF348-Lsection__debug_str
	.long L$set$1878
	.byte	0x2c
	.word	0x3bd
	.set L$set$1879,LASF1057-Lsection__debug_str
	.long L$set$1879
	.long	0x9821
	.byte	0x1
	.long	0xa005
	.byte	0x1b
	.long	0xa4c2
	.byte	0x1
	.byte	0x22
	.long	0xb63
	.byte	0x0
	.byte	0x44
	.byte	0x1
	.set L$set$1880,LASF348-Lsection__debug_str
	.long L$set$1880
	.byte	0x2c
	.word	0x3cf
	.set L$set$1881,LASF1058-Lsection__debug_str
	.long L$set$1881
	.long	0x92da
	.byte	0x1
	.long	0xa027
	.byte	0x1b
	.long	0xa4d9
	.byte	0x1
	.byte	0x22
	.long	0xb63
	.byte	0x0
	.byte	0x44
	.byte	0x1
	.set L$set$1882,LASF1059-Lsection__debug_str
	.long L$set$1882
	.byte	0x2c
	.word	0x3da
	.set L$set$1883,LASF1060-Lsection__debug_str
	.long L$set$1883
	.long	0x9821
	.byte	0x1
	.long	0xa044
	.byte	0x1b
	.long	0xa4c2
	.byte	0x1
	.byte	0x0
	.byte	0x44
	.byte	0x1
	.set L$set$1884,LASF1059-Lsection__debug_str
	.long L$set$1884
	.byte	0x2c
	.word	0x3e2
	.set L$set$1885,LASF1061-Lsection__debug_str
	.long L$set$1885
	.long	0x92da
	.byte	0x1
	.long	0xa061
	.byte	0x1b
	.long	0xa4d9
	.byte	0x1
	.byte	0x0
	.byte	0x44
	.byte	0x1
	.set L$set$1886,LASF1062-Lsection__debug_str
	.long L$set$1886
	.byte	0x2c
	.word	0x3ea
	.set L$set$1887,LASF1063-Lsection__debug_str
	.long L$set$1887
	.long	0x9821
	.byte	0x1
	.long	0xa07e
	.byte	0x1b
	.long	0xa4c2
	.byte	0x1
	.byte	0x0
	.byte	0x44
	.byte	0x1
	.set L$set$1888,LASF1062-Lsection__debug_str
	.long L$set$1888
	.byte	0x2c
	.word	0x3f6
	.set L$set$1889,LASF1064-Lsection__debug_str
	.long L$set$1889
	.long	0x92da
	.byte	0x1
	.long	0xa09b
	.byte	0x1b
	.long	0xa4d9
	.byte	0x1
	.byte	0x0
	.byte	0x37
	.byte	0x1
	.set L$set$1890,LASF1065-Lsection__debug_str
	.long L$set$1890
	.byte	0x2c
	.word	0x408
	.set L$set$1891,LASF1066-Lsection__debug_str
	.long L$set$1891
	.byte	0x1
	.long	0xa0b9
	.byte	0x1b
	.long	0xa4c2
	.byte	0x1
	.byte	0x22
	.long	0x92da
	.byte	0x0
	.byte	0x37
	.byte	0x1
	.set L$set$1892,LASF361-Lsection__debug_str
	.long L$set$1892
	.byte	0x2c
	.word	0x41d
	.set L$set$1893,LASF1067-Lsection__debug_str
	.long L$set$1893
	.byte	0x1
	.long	0xa0d7
	.byte	0x1b
	.long	0xa4c2
	.byte	0x1
	.byte	0x22
	.long	0x92da
	.byte	0x0
	.byte	0x37
	.byte	0x1
	.set L$set$1894,LASF1068-Lsection__debug_str
	.long L$set$1894
	.byte	0x2c
	.word	0x432
	.set L$set$1895,LASF1069-Lsection__debug_str
	.long L$set$1895
	.byte	0x1
	.long	0xa0f0
	.byte	0x1b
	.long	0xa4c2
	.byte	0x1
	.byte	0x0
	.byte	0x37
	.byte	0x1
	.set L$set$1896,LASF1070-Lsection__debug_str
	.long L$set$1896
	.byte	0x2c
	.word	0x447
	.set L$set$1897,LASF1071-Lsection__debug_str
	.long L$set$1897
	.byte	0x1
	.long	0xa109
	.byte	0x1b
	.long	0xa4c2
	.byte	0x1
	.byte	0x0
	.byte	0x1c
	.byte	0x1
	.set L$set$1898,LASF368-Lsection__debug_str
	.long L$set$1898
	.byte	0x4f
	.byte	0x5b
	.set L$set$1899,LASF1072-Lsection__debug_str
	.long L$set$1899
	.long	0x98a8
	.byte	0x1
	.long	0xa12f
	.byte	0x1b
	.long	0xa4c2
	.byte	0x1
	.byte	0x22
	.long	0x98a8
	.byte	0x22
	.long	0x92da
	.byte	0x0
	.byte	0x37
	.byte	0x1
	.set L$set$1900,LASF368-Lsection__debug_str
	.long L$set$1900
	.byte	0x2c
	.word	0x469
	.set L$set$1901,LASF1073-Lsection__debug_str
	.long L$set$1901
	.byte	0x1
	.long	0xa157
	.byte	0x1b
	.long	0xa4c2
	.byte	0x1
	.byte	0x22
	.long	0x98a8
	.byte	0x22
	.long	0xb63
	.byte	0x22
	.long	0x92da
	.byte	0x0
	.byte	0x1c
	.byte	0x1
	.set L$set$1902,LASF376-Lsection__debug_str
	.long L$set$1902
	.byte	0x4f
	.byte	0x70
	.set L$set$1903,LASF1074-Lsection__debug_str
	.long L$set$1903
	.long	0x98a8
	.byte	0x1
	.long	0xa178
	.byte	0x1b
	.long	0xa4c2
	.byte	0x1
	.byte	0x22
	.long	0x98a8
	.byte	0x0
	.byte	0x1c
	.byte	0x1
	.set L$set$1904,LASF376-Lsection__debug_str
	.long L$set$1904
	.byte	0x4f
	.byte	0x87
	.set L$set$1905,LASF1075-Lsection__debug_str
	.long L$set$1905
	.long	0x98a8
	.byte	0x1
	.long	0xa19e
	.byte	0x1b
	.long	0xa4c2
	.byte	0x1
	.byte	0x22
	.long	0x98a8
	.byte	0x22
	.long	0x98a8
	.byte	0x0
	.byte	0x37
	.byte	0x1
	.set L$set$1906,LASF400-Lsection__debug_str
	.long L$set$1906
	.byte	0x2c
	.word	0x4ad
	.set L$set$1907,LASF1076-Lsection__debug_str
	.long L$set$1907
	.byte	0x1
	.long	0xa1bc
	.byte	0x1b
	.long	0xa4c2
	.byte	0x1
	.byte	0x22
	.long	0xa4d3
	.byte	0x0
	.byte	0x37
	.byte	0x1
	.set L$set$1908,LASF341-Lsection__debug_str
	.long L$set$1908
	.byte	0x2c
	.word	0x4c1
	.set L$set$1909,LASF1077-Lsection__debug_str
	.long L$set$1909
	.byte	0x1
	.long	0xa1d5
	.byte	0x1b
	.long	0xa4c2
	.byte	0x1
	.byte	0x0
	.byte	0x75
	.byte	0x1
	.set L$set$1910,LASF1078-Lsection__debug_str
	.long L$set$1910
	.byte	0x4f
	.byte	0xdf
	.set L$set$1911,LASF1079-Lsection__debug_str
	.long L$set$1911
	.byte	0x2
	.byte	0x1
	.long	0xa1f3
	.byte	0x1b
	.long	0xa4c2
	.byte	0x1
	.byte	0x22
	.long	0x92da
	.byte	0x0
	.byte	0x50
	.byte	0x1
	.set L$set$1912,LASF1080-Lsection__debug_str
	.long L$set$1912
	.byte	0x2c
	.word	0x536
	.set L$set$1913,LASF1081-Lsection__debug_str
	.long L$set$1913
	.byte	0x2
	.byte	0x1
	.long	0xa217
	.byte	0x1b
	.long	0xa4c2
	.byte	0x1
	.byte	0x22
	.long	0xb63
	.byte	0x22
	.long	0x92da
	.byte	0x0
	.byte	0x50
	.byte	0x1
	.set L$set$1914,LASF1082-Lsection__debug_str
	.long L$set$1914
	.byte	0x4f
	.word	0x131
	.set L$set$1915,LASF1083-Lsection__debug_str
	.long L$set$1915
	.byte	0x2
	.byte	0x1
	.long	0xa236
	.byte	0x1b
	.long	0xa4c2
	.byte	0x1
	.byte	0x22
	.long	0x92da
	.byte	0x0
	.byte	0x50
	.byte	0x1
	.set L$set$1916,LASF1084-Lsection__debug_str
	.long L$set$1916
	.byte	0x4f
	.word	0x148
	.set L$set$1917,LASF1085-Lsection__debug_str
	.long L$set$1917
	.byte	0x2
	.byte	0x1
	.long	0xa255
	.byte	0x1b
	.long	0xa4c2
	.byte	0x1
	.byte	0x22
	.long	0x92da
	.byte	0x0
	.byte	0x50
	.byte	0x1
	.set L$set$1918,LASF1086-Lsection__debug_str
	.long L$set$1918
	.byte	0x4f
	.word	0x15f
	.set L$set$1919,LASF1087-Lsection__debug_str
	.long L$set$1919
	.byte	0x2
	.byte	0x1
	.long	0xa26f
	.byte	0x1b
	.long	0xa4c2
	.byte	0x1
	.byte	0x0
	.byte	0x50
	.byte	0x1
	.set L$set$1920,LASF1088-Lsection__debug_str
	.long L$set$1920
	.byte	0x4f
	.word	0x16e
	.set L$set$1921,LASF1089-Lsection__debug_str
	.long L$set$1921
	.byte	0x2
	.byte	0x1
	.long	0xa289
	.byte	0x1b
	.long	0xa4c2
	.byte	0x1
	.byte	0x0
	.byte	0x75
	.byte	0x1
	.set L$set$1922,LASF1090-Lsection__debug_str
	.long L$set$1922
	.byte	0x4f
	.byte	0xb5
	.set L$set$1923,LASF1091-Lsection__debug_str
	.long L$set$1923
	.byte	0x2
	.byte	0x1
	.long	0xa2b1
	.byte	0x1b
	.long	0xa4c2
	.byte	0x1
	.byte	0x22
	.long	0x98a8
	.byte	0x22
	.long	0xb63
	.byte	0x22
	.long	0x92da
	.byte	0x0
	.byte	0x4f
	.byte	0x1
	.set L$set$1924,LASF1092-Lsection__debug_str
	.long L$set$1924
	.byte	0x4f
	.word	0x1b0
	.set L$set$1925,LASF1093-Lsection__debug_str
	.long L$set$1925
	.long	0x98a8
	.byte	0x2
	.byte	0x1
	.long	0xa2d9
	.byte	0x1b
	.long	0xa4c2
	.byte	0x1
	.byte	0x22
	.long	0x98a8
	.byte	0x22
	.long	0x92da
	.byte	0x0
	.byte	0x50
	.byte	0x1
	.set L$set$1926,LASF1092-Lsection__debug_str
	.long L$set$1926
	.byte	0x4f
	.word	0x1d1
	.set L$set$1927,LASF1094-Lsection__debug_str
	.long L$set$1927
	.byte	0x2
	.byte	0x1
	.long	0xa302
	.byte	0x1b
	.long	0xa4c2
	.byte	0x1
	.byte	0x22
	.long	0x98a8
	.byte	0x22
	.long	0xb63
	.byte	0x22
	.long	0x92da
	.byte	0x0
	.byte	0x50
	.byte	0x1
	.set L$set$1928,LASF1095-Lsection__debug_str
	.long L$set$1928
	.byte	0x4f
	.word	0x27f
	.set L$set$1929,LASF1096-Lsection__debug_str
	.long L$set$1929
	.byte	0x2
	.byte	0x1
	.long	0xa326
	.byte	0x1b
	.long	0xa4c2
	.byte	0x1
	.byte	0x22
	.long	0x98a8
	.byte	0x22
	.long	0x98a8
	.byte	0x0
	.byte	0x50
	.byte	0x1
	.set L$set$1930,LASF1097-Lsection__debug_str
	.long L$set$1930
	.byte	0x2c
	.word	0x594
	.set L$set$1931,LASF1098-Lsection__debug_str
	.long L$set$1931
	.byte	0x2
	.byte	0x1
	.long	0xa34f
	.byte	0x1b
	.long	0xa4c2
	.byte	0x1
	.byte	0x22
	.long	0x98a8
	.byte	0x22
	.long	0x98a8
	.byte	0x22
	.long	0x2647
	.byte	0x0
	.byte	0x50
	.byte	0x1
	.set L$set$1932,LASF1097-Lsection__debug_str
	.long L$set$1932
	.byte	0x2c
	.word	0x597
	.set L$set$1933,LASF1099-Lsection__debug_str
	.long L$set$1933
	.byte	0x2
	.byte	0x1
	.long	0xa378
	.byte	0x1b
	.long	0xa4c2
	.byte	0x1
	.byte	0x22
	.long	0x98a8
	.byte	0x22
	.long	0x98a8
	.byte	0x22
	.long	0x264f
	.byte	0x0
	.byte	0x50
	.byte	0x1
	.set L$set$1934,LASF1100-Lsection__debug_str
	.long L$set$1934
	.byte	0x2c
	.word	0x5a3
	.set L$set$1935,LASF1101-Lsection__debug_str
	.long L$set$1935
	.byte	0x2
	.byte	0x1
	.long	0xa3a1
	.byte	0x1b
	.long	0xa4c2
	.byte	0x1
	.byte	0x22
	.long	0x98a8
	.byte	0x22
	.long	0x98a8
	.byte	0x22
	.long	0x989d
	.byte	0x0
	.byte	0x50
	.byte	0x1
	.set L$set$1936,LASF1102-Lsection__debug_str
	.long L$set$1936
	.byte	0x2c
	.word	0x5ac
	.set L$set$1937,LASF1103-Lsection__debug_str
	.long L$set$1937
	.byte	0x2
	.byte	0x1
	.long	0xa3c0
	.byte	0x1b
	.long	0xa4c2
	.byte	0x1
	.byte	0x22
	.long	0x98a8
	.byte	0x0
	.byte	0x50
	.byte	0x1
	.set L$set$1938,LASF1104-Lsection__debug_str
	.long L$set$1938
	.byte	0x2c
	.word	0x5b6
	.set L$set$1939,LASF1105-Lsection__debug_str
	.long L$set$1939
	.byte	0x2
	.byte	0x1
	.long	0xa3df
	.byte	0x1b
	.long	0xa4c2
	.byte	0x1
	.byte	0x22
	.long	0x98a8
	.byte	0x0
	.byte	0x4f
	.byte	0x1
	.set L$set$1940,LASF1106-Lsection__debug_str
	.long L$set$1940
	.byte	0x2c
	.word	0x5c6
	.set L$set$1941,LASF1107-Lsection__debug_str
	.long L$set$1941
	.long	0x98a8
	.byte	0x2
	.byte	0x1
	.long	0xa402
	.byte	0x1b
	.long	0xa4c2
	.byte	0x1
	.byte	0x22
	.long	0xb63
	.byte	0x0
	.byte	0x4f
	.byte	0x1
	.set L$set$1942,LASF1108-Lsection__debug_str
	.long L$set$1942
	.byte	0x2c
	.word	0x5d0
	.set L$set$1943,LASF1109-Lsection__debug_str
	.long L$set$1943
	.long	0x98a8
	.byte	0x2
	.byte	0x1
	.long	0xa425
	.byte	0x1b
	.long	0xa4c2
	.byte	0x1
	.byte	0x22
	.long	0xb63
	.byte	0x0
	.byte	0x50
	.byte	0x1
	.set L$set$1944,LASF1110-Lsection__debug_str
	.long L$set$1944
	.byte	0x4f
	.word	0x295
	.set L$set$1945,LASF1111-Lsection__debug_str
	.long L$set$1945
	.byte	0x2
	.byte	0x1
	.long	0xa444
	.byte	0x1b
	.long	0xa4c2
	.byte	0x1
	.byte	0x22
	.long	0xb63
	.byte	0x0
	.byte	0x50
	.byte	0x1
	.set L$set$1946,LASF1112-Lsection__debug_str
	.long L$set$1946
	.byte	0x4f
	.word	0x2ae
	.set L$set$1947,LASF1113-Lsection__debug_str
	.long L$set$1947
	.byte	0x2
	.byte	0x1
	.long	0xa463
	.byte	0x1b
	.long	0xa4c2
	.byte	0x1
	.byte	0x22
	.long	0xb63
	.byte	0x0
	.byte	0x50
	.byte	0x1
	.set L$set$1948,LASF1114-Lsection__debug_str
	.long L$set$1948
	.byte	0x2c
	.word	0x5ec
	.set L$set$1949,LASF1115-Lsection__debug_str
	.long L$set$1949
	.byte	0x2
	.byte	0x1
	.long	0xa482
	.byte	0x1b
	.long	0xa4c2
	.byte	0x1
	.byte	0x22
	.long	0xb63
	.byte	0x0
	.byte	0x50
	.byte	0x1
	.set L$set$1950,LASF1116-Lsection__debug_str
	.long L$set$1950
	.byte	0x2c
	.word	0x5f4
	.set L$set$1951,LASF1117-Lsection__debug_str
	.long L$set$1951
	.byte	0x2
	.byte	0x1
	.long	0xa4a1
	.byte	0x1b
	.long	0xa4c2
	.byte	0x1
	.byte	0x22
	.long	0xb63
	.byte	0x0
	.byte	0x5b
	.byte	0x1
	.set L$set$1952,LASF1118-Lsection__debug_str
	.long L$set$1952
	.byte	0x4f
	.word	0x2c7
	.set L$set$1953,LASF1119-Lsection__debug_str
	.long L$set$1953
	.byte	0x2
	.byte	0x1
	.byte	0x1b
	.long	0xa4c2
	.byte	0x1
	.byte	0x22
	.long	0xb63
	.byte	0x22
	.long	0xe2a
	.byte	0x0
	.byte	0x0
	.byte	0x1f
	.byte	0x4
	.long	0x9d21
	.byte	0x24
	.byte	0x4
	.long	0xa4ce
	.byte	0x20
	.long	0x9d21
	.byte	0x24
	.byte	0x4
	.long	0x9d21
	.byte	0x1f
	.byte	0x4
	.long	0xa4ce
	.byte	0x19
	.long	0x1dbb
	.byte	0x28
	.byte	0x50
	.byte	0x60
	.long	0xa5eb
	.byte	0x1a
	.ascii "c\0"
	.byte	0x50
	.byte	0x80
	.long	0x9d21
	.byte	0x2
	.byte	0x23
	.byte	0x0
	.byte	0x2
	.byte	0x6
	.byte	0x1
	.set L$set$1954,LASF1120-Lsection__debug_str
	.long L$set$1954
	.byte	0x50
	.byte	0x87
	.byte	0x1
	.long	0xa511
	.byte	0x1b
	.long	0xa5eb
	.byte	0x1
	.byte	0x22
	.long	0xa4c8
	.byte	0x0
	.byte	0x1c
	.byte	0x1
	.set L$set$1955,LASF343-Lsection__debug_str
	.long L$set$1955
	.byte	0x50
	.byte	0x8d
	.set L$set$1956,LASF1121-Lsection__debug_str
	.long L$set$1956
	.long	0xe2a
	.byte	0x1
	.long	0xa52d
	.byte	0x1b
	.long	0xa5f1
	.byte	0x1
	.byte	0x0
	.byte	0x1c
	.byte	0x1
	.set L$set$1957,LASF330-Lsection__debug_str
	.long L$set$1957
	.byte	0x50
	.byte	0x92
	.set L$set$1958,LASF1122-Lsection__debug_str
	.long L$set$1958
	.long	0xcf9
	.byte	0x1
	.long	0xa549
	.byte	0x1b
	.long	0xa5f1
	.byte	0x1
	.byte	0x0
	.byte	0x1c
	.byte	0x1
	.set L$set$1959,LASF1059-Lsection__debug_str
	.long L$set$1959
	.byte	0x50
	.byte	0x9a
	.set L$set$1960,LASF1123-Lsection__debug_str
	.long L$set$1960
	.long	0x9821
	.byte	0x1
	.long	0xa565
	.byte	0x1b
	.long	0xa5eb
	.byte	0x1
	.byte	0x0
	.byte	0x1c
	.byte	0x1
	.set L$set$1961,LASF1059-Lsection__debug_str
	.long L$set$1961
	.byte	0x50
	.byte	0xa5
	.set L$set$1962,LASF1124-Lsection__debug_str
	.long L$set$1962
	.long	0x92da
	.byte	0x1
	.long	0xa581
	.byte	0x1b
	.long	0xa5f1
	.byte	0x1
	.byte	0x0
	.byte	0x1c
	.byte	0x1
	.set L$set$1963,LASF1062-Lsection__debug_str
	.long L$set$1963
	.byte	0x50
	.byte	0xb0
	.set L$set$1964,LASF1125-Lsection__debug_str
	.long L$set$1964
	.long	0x9821
	.byte	0x1
	.long	0xa59d
	.byte	0x1b
	.long	0xa5eb
	.byte	0x1
	.byte	0x0
	.byte	0x1c
	.byte	0x1
	.set L$set$1965,LASF1062-Lsection__debug_str
	.long L$set$1965
	.byte	0x50
	.byte	0xbb
	.set L$set$1966,LASF1126-Lsection__debug_str
	.long L$set$1966
	.long	0x92da
	.byte	0x1
	.long	0xa5b9
	.byte	0x1b
	.long	0xa5f1
	.byte	0x1
	.byte	0x0
	.byte	0x4b
	.byte	0x1
	.set L$set$1967,LASF1127-Lsection__debug_str
	.long L$set$1967
	.byte	0x50
	.byte	0xcb
	.set L$set$1968,LASF1128-Lsection__debug_str
	.long L$set$1968
	.byte	0x1
	.long	0xa5d6
	.byte	0x1b
	.long	0xa5eb
	.byte	0x1
	.byte	0x22
	.long	0x92da
	.byte	0x0
	.byte	0x1d
	.byte	0x1
	.set L$set$1969,LASF1129-Lsection__debug_str
	.long L$set$1969
	.byte	0x50
	.byte	0xda
	.set L$set$1970,LASF1130-Lsection__debug_str
	.long L$set$1970
	.byte	0x1
	.byte	0x1b
	.long	0xa5eb
	.byte	0x1
	.byte	0x0
	.byte	0x0
	.byte	0x1f
	.byte	0x4
	.long	0xa4df
	.byte	0x1f
	.byte	0x4
	.long	0xa5f7
	.byte	0x20
	.long	0xa4df
	.byte	0x7d
	.long	0x859
	.word	0x29c
	.byte	0x51
	.byte	0x38
	.long	0x9264
	.long	0xaab1
	.byte	0x32
	.long	0x9264
	.byte	0x2
	.byte	0x23
	.byte	0x0
	.byte	0x1
	.byte	0x7e
	.long	0x9af
	.byte	0x2
	.byte	0x23
	.byte	0x0
	.byte	0x4e
	.ascii "myWindow\0"
	.byte	0x51
	.word	0x137
	.long	0x9239
	.byte	0x2
	.byte	0x23
	.byte	0x4
	.byte	0x3
	.byte	0x4e
	.ascii "myEvents\0"
	.byte	0x51
	.word	0x138
	.long	0xa4df
	.byte	0x2
	.byte	0x23
	.byte	0x8
	.byte	0x3
	.byte	0x4e
	.ascii "myInput\0"
	.byte	0x51
	.word	0x139
	.long	0x92e5
	.byte	0x2
	.byte	0x23
	.byte	0x30
	.byte	0x3
	.byte	0x4e
	.ascii "myClock\0"
	.byte	0x51
	.word	0x13a
	.long	0x923
	.byte	0x3
	.byte	0x23
	.byte	0xf4,0x4
	.byte	0x3
	.byte	0x4e
	.ascii "mySettings\0"
	.byte	0x51
	.word	0x13b
	.long	0x9668
	.byte	0x3
	.byte	0x23
	.byte	0xfc,0x4
	.byte	0x3
	.byte	0x4e
	.ascii "myLastFrameTime\0"
	.byte	0x51
	.word	0x13c
	.long	0x99b
	.byte	0x3
	.byte	0x23
	.byte	0x88,0x5
	.byte	0x3
	.byte	0x4e
	.ascii "myIsExternal\0"
	.byte	0x51
	.word	0x13d
	.long	0xe2a
	.byte	0x3
	.byte	0x23
	.byte	0x8c,0x5
	.byte	0x3
	.byte	0x4e
	.ascii "myFramerateLimit\0"
	.byte	0x51
	.word	0x13e
	.long	0xa7c
	.byte	0x3
	.byte	0x23
	.byte	0x90,0x5
	.byte	0x3
	.byte	0x4e
	.ascii "mySetCursorPosX\0"
	.byte	0x51
	.word	0x13f
	.long	0xa20
	.byte	0x3
	.byte	0x23
	.byte	0x94,0x5
	.byte	0x3
	.byte	0x4e
	.ascii "mySetCursorPosY\0"
	.byte	0x51
	.word	0x140
	.long	0xa20
	.byte	0x3
	.byte	0x23
	.byte	0x98,0x5
	.byte	0x3
	.byte	0x6
	.byte	0x1
	.set L$set$1971,LASF10-Lsection__debug_str
	.long L$set$1971
	.byte	0x51
	.byte	0x3f
	.byte	0x1
	.long	0xa72c
	.byte	0x1b
	.long	0xaab1
	.byte	0x1
	.byte	0x0
	.byte	0x6
	.byte	0x1
	.set L$set$1972,LASF10-Lsection__debug_str
	.long L$set$1972
	.byte	0x51
	.byte	0x4a
	.byte	0x1
	.long	0xa754
	.byte	0x1b
	.long	0xaab1
	.byte	0x1
	.byte	0x22
	.long	0x952b
	.byte	0x22
	.long	0x655e
	.byte	0x22
	.long	0xb63
	.byte	0x22
	.long	0xaab7
	.byte	0x0
	.byte	0x6
	.byte	0x1
	.set L$set$1973,LASF10-Lsection__debug_str
	.long L$set$1973
	.byte	0x51
	.byte	0x53
	.byte	0x1
	.long	0xa786
	.byte	0x1b
	.long	0xaab1
	.byte	0x1
	.byte	0x22
	.long	0xa76c
	.byte	0x7
	.ascii "WindowHandle\0"
	.byte	0x52
	.byte	0x35
	.long	0xc1d
	.byte	0x22
	.long	0xaab7
	.byte	0x0
	.byte	0x6b
	.byte	0x1
	.set L$set$1974,LASF1131-Lsection__debug_str
	.long L$set$1974
	.byte	0x51
	.byte	0x59
	.byte	0x1
	.long	0xa5fc
	.byte	0x1
	.long	0xa7a5
	.byte	0x1b
	.long	0xaab1
	.byte	0x1
	.byte	0x1b
	.long	0xa20
	.byte	0x1
	.byte	0x0
	.byte	0x4b
	.byte	0x1
	.set L$set$1975,LASF1132-Lsection__debug_str
	.long L$set$1975
	.byte	0x51
	.byte	0x64
	.set L$set$1976,LASF1133-Lsection__debug_str
	.long L$set$1976
	.byte	0x1
	.long	0xa7d1
	.byte	0x1b
	.long	0xaab1
	.byte	0x1
	.byte	0x22
	.long	0x952b
	.byte	0x22
	.long	0x655e
	.byte	0x22
	.long	0xb63
	.byte	0x22
	.long	0xaab7
	.byte	0x0
	.byte	0x4b
	.byte	0x1
	.set L$set$1977,LASF1132-Lsection__debug_str
	.long L$set$1977
	.byte	0x51
	.byte	0x6d
	.set L$set$1978,LASF1134-Lsection__debug_str
	.long L$set$1978
	.byte	0x1
	.long	0xa7f3
	.byte	0x1b
	.long	0xaab1
	.byte	0x1
	.byte	0x22
	.long	0xa76c
	.byte	0x22
	.long	0xaab7
	.byte	0x0
	.byte	0x4b
	.byte	0x1
	.set L$set$1979,LASF1135-Lsection__debug_str
	.long L$set$1979
	.byte	0x51
	.byte	0x75
	.set L$set$1980,LASF1136-Lsection__debug_str
	.long L$set$1980
	.byte	0x1
	.long	0xa80b
	.byte	0x1b
	.long	0xaab1
	.byte	0x1
	.byte	0x0
	.byte	0x1c
	.byte	0x1
	.set L$set$1981,LASF1137-Lsection__debug_str
	.long L$set$1981
	.byte	0x51
	.byte	0x7f
	.set L$set$1982,LASF1138-Lsection__debug_str
	.long L$set$1982
	.long	0xe2a
	.byte	0x1
	.long	0xa827
	.byte	0x1b
	.long	0xaac2
	.byte	0x1
	.byte	0x0
	.byte	0x1c
	.byte	0x1
	.set L$set$1983,LASF1139-Lsection__debug_str
	.long L$set$1983
	.byte	0x51
	.byte	0x87
	.set L$set$1984,LASF1140-Lsection__debug_str
	.long L$set$1984
	.long	0xa7c
	.byte	0x1
	.long	0xa843
	.byte	0x1b
	.long	0xaac2
	.byte	0x1
	.byte	0x0
	.byte	0x1c
	.byte	0x1
	.set L$set$1985,LASF1141-Lsection__debug_str
	.long L$set$1985
	.byte	0x51
	.byte	0x8f
	.set L$set$1986,LASF1142-Lsection__debug_str
	.long L$set$1986
	.long	0xa7c
	.byte	0x1
	.long	0xa85f
	.byte	0x1b
	.long	0xaac2
	.byte	0x1
	.byte	0x0
	.byte	0x1c
	.byte	0x1
	.set L$set$1987,LASF1143-Lsection__debug_str
	.long L$set$1987
	.byte	0x51
	.byte	0x97
	.set L$set$1988,LASF1144-Lsection__debug_str
	.long L$set$1988
	.long	0xaab7
	.byte	0x1
	.long	0xa87b
	.byte	0x1b
	.long	0xaac2
	.byte	0x1
	.byte	0x0
	.byte	0x1c
	.byte	0x1
	.set L$set$1989,LASF1145-Lsection__debug_str
	.long L$set$1989
	.byte	0x51
	.byte	0xa1
	.set L$set$1990,LASF1146-Lsection__debug_str
	.long L$set$1990
	.long	0xe2a
	.byte	0x1
	.long	0xa89c
	.byte	0x1b
	.long	0xaab1
	.byte	0x1
	.byte	0x22
	.long	0x9821
	.byte	0x0
	.byte	0x4b
	.byte	0x1
	.set L$set$1991,LASF1147-Lsection__debug_str
	.long L$set$1991
	.byte	0x51
	.byte	0xa9
	.set L$set$1992,LASF1148-Lsection__debug_str
	.long L$set$1992
	.byte	0x1
	.long	0xa8b9
	.byte	0x1b
	.long	0xaab1
	.byte	0x1
	.byte	0x22
	.long	0xe2a
	.byte	0x0
	.byte	0x4b
	.byte	0x1
	.set L$set$1993,LASF1149-Lsection__debug_str
	.long L$set$1993
	.byte	0x51
	.byte	0xb1
	.set L$set$1994,LASF1150-Lsection__debug_str
	.long L$set$1994
	.byte	0x1
	.long	0xa8d6
	.byte	0x1b
	.long	0xaab1
	.byte	0x1
	.byte	0x22
	.long	0xe2a
	.byte	0x0
	.byte	0x4b
	.byte	0x1
	.set L$set$1995,LASF1151-Lsection__debug_str
	.long L$set$1995
	.byte	0x51
	.byte	0xba
	.set L$set$1996,LASF1152-Lsection__debug_str
	.long L$set$1996
	.byte	0x1
	.long	0xa8f8
	.byte	0x1b
	.long	0xaab1
	.byte	0x1
	.byte	0x22
	.long	0xa7c
	.byte	0x22
	.long	0xa7c
	.byte	0x0
	.byte	0x4b
	.byte	0x1
	.set L$set$1997,LASF1153-Lsection__debug_str
	.long L$set$1997
	.byte	0x51
	.byte	0xc4
	.set L$set$1998,LASF1154-Lsection__debug_str
	.long L$set$1998
	.byte	0x1
	.long	0xa91a
	.byte	0x1b
	.long	0xaab1
	.byte	0x1
	.byte	0x22
	.long	0xa20
	.byte	0x22
	.long	0xa20
	.byte	0x0
	.byte	0x4b
	.byte	0x1
	.set L$set$1999,LASF1155-Lsection__debug_str
	.long L$set$1999
	.byte	0x51
	.byte	0xcd
	.set L$set$2000,LASF1156-Lsection__debug_str
	.long L$set$2000
	.byte	0x1
	.long	0xa93c
	.byte	0x1b
	.long	0xaab1
	.byte	0x1
	.byte	0x22
	.long	0xa7c
	.byte	0x22
	.long	0xa7c
	.byte	0x0
	.byte	0x4b
	.byte	0x1
	.set L$set$2001,LASF1157-Lsection__debug_str
	.long L$set$2001
	.byte	0x51
	.byte	0xd5
	.set L$set$2002,LASF1158-Lsection__debug_str
	.long L$set$2002
	.byte	0x1
	.long	0xa959
	.byte	0x1b
	.long	0xaab1
	.byte	0x1
	.byte	0x22
	.long	0xe2a
	.byte	0x0
	.byte	0x4b
	.byte	0x1
	.set L$set$2003,LASF1159-Lsection__debug_str
	.long L$set$2003
	.byte	0x51
	.byte	0xde
	.set L$set$2004,LASF1160-Lsection__debug_str
	.long L$set$2004
	.byte	0x1
	.long	0xa976
	.byte	0x1b
	.long	0xaab1
	.byte	0x1
	.byte	0x22
	.long	0xe2a
	.byte	0x0
	.byte	0x4b
	.byte	0x1
	.set L$set$2005,LASF1161-Lsection__debug_str
	.long L$set$2005
	.byte	0x51
	.byte	0xe8
	.set L$set$2006,LASF1162-Lsection__debug_str
	.long L$set$2006
	.byte	0x1
	.long	0xa99d
	.byte	0x1b
	.long	0xaab1
	.byte	0x1
	.byte	0x22
	.long	0xa7c
	.byte	0x22
	.long	0xa7c
	.byte	0x22
	.long	0x9196
	.byte	0x0
	.byte	0x1c
	.byte	0x1
	.set L$set$2007,LASF1163-Lsection__debug_str
	.long L$set$2007
	.byte	0x51
	.byte	0xf3
	.set L$set$2008,LASF1164-Lsection__debug_str
	.long L$set$2008
	.long	0xe2a
	.byte	0x1
	.long	0xa9be
	.byte	0x1b
	.long	0xaac2
	.byte	0x1
	.byte	0x22
	.long	0xe2a
	.byte	0x0
	.byte	0x4b
	.byte	0x1
	.set L$set$2009,LASF1165-Lsection__debug_str
	.long L$set$2009
	.byte	0x51
	.byte	0xf9
	.set L$set$2010,LASF1166-Lsection__debug_str
	.long L$set$2010
	.byte	0x1
	.long	0xa9d6
	.byte	0x1b
	.long	0xaab1
	.byte	0x1
	.byte	0x0
	.byte	0x44
	.byte	0x1
	.set L$set$2011,LASF1167-Lsection__debug_str
	.long L$set$2011
	.byte	0x51
	.word	0x101
	.set L$set$2012,LASF1168-Lsection__debug_str
	.long L$set$2012
	.long	0xaacd
	.byte	0x1
	.long	0xa9f3
	.byte	0x1b
	.long	0xaac2
	.byte	0x1
	.byte	0x0
	.byte	0x37
	.byte	0x1
	.set L$set$2013,LASF1169-Lsection__debug_str
	.long L$set$2013
	.byte	0x51
	.word	0x109
	.set L$set$2014,LASF1170-Lsection__debug_str
	.long L$set$2014
	.byte	0x1
	.long	0xaa11
	.byte	0x1b
	.long	0xaab1
	.byte	0x1
	.byte	0x22
	.long	0xa7c
	.byte	0x0
	.byte	0x44
	.byte	0x1
	.set L$set$2015,LASF1171-Lsection__debug_str
	.long L$set$2015
	.byte	0x51
	.word	0x111
	.set L$set$2016,LASF1172-Lsection__debug_str
	.long L$set$2016
	.long	0x99b
	.byte	0x1
	.long	0xaa2e
	.byte	0x1b
	.long	0xaac2
	.byte	0x1
	.byte	0x0
	.byte	0x37
	.byte	0x1
	.set L$set$2017,LASF1173-Lsection__debug_str
	.long L$set$2017
	.byte	0x51
	.word	0x11a
	.set L$set$2018,LASF1174-Lsection__debug_str
	.long L$set$2018
	.byte	0x1
	.long	0xaa4c
	.byte	0x1b
	.long	0xaab1
	.byte	0x1
	.byte	0x22
	.long	0x99b
	.byte	0x0
	.byte	0x6c
	.byte	0x1
	.set L$set$2019,LASF1175-Lsection__debug_str
	.long L$set$2019
	.byte	0x51
	.word	0x122
	.set L$set$2020,LASF1176-Lsection__debug_str
	.long L$set$2020
	.byte	0x1
	.byte	0x2
	.byte	0x10
	.byte	0x3
	.long	0xa5fc
	.byte	0x3
	.byte	0x1
	.long	0xaa6e
	.byte	0x1b
	.long	0xaab1
	.byte	0x1
	.byte	0x0
	.byte	0x6c
	.byte	0x1
	.set L$set$2021,LASF973-Lsection__debug_str
	.long L$set$2021
	.byte	0x51
	.word	0x12a
	.set L$set$2022,LASF1177-Lsection__debug_str
	.long L$set$2022
	.byte	0x1
	.byte	0x2
	.byte	0x10
	.byte	0x0
	.long	0xa5fc
	.byte	0x3
	.byte	0x1
	.long	0xaa95
	.byte	0x1b
	.long	0xaab1
	.byte	0x1
	.byte	0x22
	.long	0x92da
	.byte	0x0
	.byte	0x5b
	.byte	0x1
	.set L$set$2023,LASF1178-Lsection__debug_str
	.long L$set$2023
	.byte	0x51
	.word	0x132
	.set L$set$2024,LASF1179-Lsection__debug_str
	.long L$set$2024
	.byte	0x3
	.byte	0x1
	.byte	0x1b
	.long	0xaab1
	.byte	0x1
	.byte	0x22
	.long	0x9239
	.byte	0x0
	.byte	0x0
	.byte	0x1f
	.byte	0x4
	.long	0xa5fc
	.byte	0x24
	.byte	0x4
	.long	0xaabd
	.byte	0x20
	.long	0x9668
	.byte	0x1f
	.byte	0x4
	.long	0xaac8
	.byte	0x20
	.long	0xa5fc
	.byte	0x24
	.byte	0x4
	.long	0x9526
	.byte	0x19
	.long	0x85f
	.byte	0x4
	.byte	0x53
	.byte	0x29
	.long	0xac64
	.byte	0x3d
	.ascii "Black\0"
	.byte	0x53
	.byte	0x68
	.set L$set$2025,LASF1180-Lsection__debug_str
	.long L$set$2025
	.long	0xac64
	.byte	0x1
	.byte	0x1
	.byte	0x3d
	.ascii "White\0"
	.byte	0x53
	.byte	0x69
	.set L$set$2026,LASF1181-Lsection__debug_str
	.long L$set$2026
	.long	0xac64
	.byte	0x1
	.byte	0x1
	.byte	0x3d
	.ascii "Red\0"
	.byte	0x53
	.byte	0x6a
	.set L$set$2027,LASF1182-Lsection__debug_str
	.long L$set$2027
	.long	0xac64
	.byte	0x1
	.byte	0x1
	.byte	0x3d
	.ascii "Green\0"
	.byte	0x53
	.byte	0x6b
	.set L$set$2028,LASF1183-Lsection__debug_str
	.long L$set$2028
	.long	0xac64
	.byte	0x1
	.byte	0x1
	.byte	0x3d
	.ascii "Blue\0"
	.byte	0x53
	.byte	0x6c
	.set L$set$2029,LASF1184-Lsection__debug_str
	.long L$set$2029
	.long	0xac64
	.byte	0x1
	.byte	0x1
	.byte	0x3d
	.ascii "Yellow\0"
	.byte	0x53
	.byte	0x6d
	.set L$set$2030,LASF1185-Lsection__debug_str
	.long L$set$2030
	.long	0xac64
	.byte	0x1
	.byte	0x1
	.byte	0x3d
	.ascii "Magenta\0"
	.byte	0x53
	.byte	0x6e
	.set L$set$2031,LASF1186-Lsection__debug_str
	.long L$set$2031
	.long	0xac64
	.byte	0x1
	.byte	0x1
	.byte	0x3d
	.ascii "Cyan\0"
	.byte	0x53
	.byte	0x6f
	.set L$set$2032,LASF1187-Lsection__debug_str
	.long L$set$2032
	.long	0xac64
	.byte	0x1
	.byte	0x1
	.byte	0xf
	.ascii "r\0"
	.byte	0x53
	.byte	0x74
	.long	0xab
	.byte	0x2
	.byte	0x23
	.byte	0x0
	.byte	0xf
	.ascii "g\0"
	.byte	0x53
	.byte	0x75
	.long	0xab
	.byte	0x2
	.byte	0x23
	.byte	0x1
	.byte	0xf
	.ascii "b\0"
	.byte	0x53
	.byte	0x76
	.long	0xab
	.byte	0x2
	.byte	0x23
	.byte	0x2
	.byte	0xf
	.ascii "a\0"
	.byte	0x53
	.byte	0x77
	.long	0xab
	.byte	0x2
	.byte	0x23
	.byte	0x3
	.byte	0x6
	.byte	0x1
	.set L$set$2033,LASF11-Lsection__debug_str
	.long L$set$2033
	.byte	0x53
	.byte	0x30
	.byte	0x1
	.long	0xabba
	.byte	0x1b
	.long	0xac69
	.byte	0x1
	.byte	0x0
	.byte	0x6
	.byte	0x1
	.set L$set$2034,LASF11-Lsection__debug_str
	.long L$set$2034
	.byte	0x53
	.byte	0x3b
	.byte	0x1
	.long	0xabe2
	.byte	0x1b
	.long	0xac69
	.byte	0x1
	.byte	0x22
	.long	0xab
	.byte	0x22
	.long	0xab
	.byte	0x22
	.long	0xab
	.byte	0x22
	.long	0xab
	.byte	0x0
	.byte	0x1c
	.byte	0x1
	.set L$set$2035,LASF351-Lsection__debug_str
	.long L$set$2035
	.byte	0x53
	.byte	0x45
	.set L$set$2036,LASF1188-Lsection__debug_str
	.long L$set$2036
	.long	0xac6f
	.byte	0x1
	.long	0xac03
	.byte	0x1b
	.long	0xac69
	.byte	0x1
	.byte	0x22
	.long	0xac75
	.byte	0x0
	.byte	0x1c
	.byte	0x1
	.set L$set$2037,LASF1189-Lsection__debug_str
	.long L$set$2037
	.byte	0x53
	.byte	0x4f
	.set L$set$2038,LASF1190-Lsection__debug_str
	.long L$set$2038
	.long	0xac6f
	.byte	0x1
	.long	0xac24
	.byte	0x1b
	.long	0xac69
	.byte	0x1
	.byte	0x22
	.long	0xac75
	.byte	0x0
	.byte	0x1c
	.byte	0x1
	.set L$set$2039,LASF498-Lsection__debug_str
	.long L$set$2039
	.byte	0x53
	.byte	0x59
	.set L$set$2040,LASF1191-Lsection__debug_str
	.long L$set$2040
	.long	0xe2a
	.byte	0x1
	.long	0xac45
	.byte	0x1b
	.long	0xac7b
	.byte	0x1
	.byte	0x22
	.long	0xac75
	.byte	0x0
	.byte	0x83,0x1
	.byte	0x1
	.set L$set$2041,LASF500-Lsection__debug_str
	.long L$set$2041
	.byte	0x53
	.byte	0x63
	.set L$set$2042,LASF1192-Lsection__debug_str
	.long L$set$2042
	.long	0xe2a
	.byte	0x1
	.byte	0x1b
	.long	0xac7b
	.byte	0x1
	.byte	0x22
	.long	0xac75
	.byte	0x0
	.byte	0x0
	.byte	0x20
	.long	0xaad3
	.byte	0x1f
	.byte	0x4
	.long	0xaad3
	.byte	0x24
	.byte	0x4
	.long	0xaad3
	.byte	0x24
	.byte	0x4
	.long	0xac64
	.byte	0x1f
	.byte	0x4
	.long	0xac64
	.byte	0x19
	.long	0x1e2d
	.byte	0x10
	.byte	0x3
	.byte	0x60
	.long	0xad43
	.byte	0xf
	.ascii "_M_color\0"
	.byte	0x3
	.byte	0x64
	.long	0x1e01
	.byte	0x2
	.byte	0x23
	.byte	0x0
	.byte	0xf
	.ascii "_M_parent\0"
	.byte	0x3
	.byte	0x65
	.long	0xad43
	.byte	0x2
	.byte	0x23
	.byte	0x4
	.byte	0xf
	.ascii "_M_left\0"
	.byte	0x3
	.byte	0x66
	.long	0xad43
	.byte	0x2
	.byte	0x23
	.byte	0x8
	.byte	0xf
	.ascii "_M_right\0"
	.byte	0x3
	.byte	0x67
	.long	0xad43
	.byte	0x2
	.byte	0x23
	.byte	0xc
	.byte	0x1c
	.byte	0x1
	.set L$set$2043,LASF1193-Lsection__debug_str
	.long L$set$2043
	.byte	0x3
	.byte	0x6a
	.set L$set$2044,LASF1194-Lsection__debug_str
	.long L$set$2044
	.long	0xad43
	.byte	0x1
	.long	0xacf4
	.byte	0x22
	.long	0xad43
	.byte	0x0
	.byte	0x1c
	.byte	0x1
	.set L$set$2045,LASF1193-Lsection__debug_str
	.long L$set$2045
	.byte	0x3
	.byte	0x71
	.set L$set$2046,LASF1195-Lsection__debug_str
	.long L$set$2046
	.long	0xad49
	.byte	0x1
	.long	0xad0f
	.byte	0x22
	.long	0xad49
	.byte	0x0
	.byte	0x1c
	.byte	0x1
	.set L$set$2047,LASF1196-Lsection__debug_str
	.long L$set$2047
	.byte	0x3
	.byte	0x78
	.set L$set$2048,LASF1197-Lsection__debug_str
	.long L$set$2048
	.long	0xad43
	.byte	0x1
	.long	0xad2a
	.byte	0x22
	.long	0xad43
	.byte	0x0
	.byte	0x83,0x1
	.byte	0x1
	.set L$set$2049,LASF1196-Lsection__debug_str
	.long L$set$2049
	.byte	0x3
	.byte	0x7f
	.set L$set$2050,LASF1198-Lsection__debug_str
	.long L$set$2050
	.long	0xad49
	.byte	0x1
	.byte	0x22
	.long	0xad49
	.byte	0x0
	.byte	0x0
	.byte	0x1f
	.byte	0x4
	.long	0xac81
	.byte	0x1f
	.byte	0x4
	.long	0xad4f
	.byte	0x20
	.long	0xac81
	.byte	0x19
	.long	0x865
	.byte	0x10
	.byte	0x54
	.byte	0x2a
	.long	0xae7c
	.byte	0xf
	.ascii "Left\0"
	.byte	0x54
	.byte	0x70
	.long	0xa20
	.byte	0x2
	.byte	0x23
	.byte	0x0
	.byte	0xf
	.ascii "Top\0"
	.byte	0x54
	.byte	0x71
	.long	0xa20
	.byte	0x2
	.byte	0x23
	.byte	0x4
	.byte	0x10
	.set L$set$2051,LASF3-Lsection__debug_str
	.long L$set$2051
	.byte	0x54
	.byte	0x72
	.long	0xa20
	.byte	0x2
	.byte	0x23
	.byte	0x8
	.byte	0xf
	.ascii "Bottom\0"
	.byte	0x54
	.byte	0x73
	.long	0xa20
	.byte	0x2
	.byte	0x23
	.byte	0xc
	.byte	0x6
	.byte	0x1
	.set L$set$2052,LASF1199-Lsection__debug_str
	.long L$set$2052
	.byte	0x55
	.byte	0x1e
	.byte	0x1
	.long	0xadb0
	.byte	0x1b
	.long	0xae7c
	.byte	0x1
	.byte	0x0
	.byte	0x6
	.byte	0x1
	.set L$set$2053,LASF1199-Lsection__debug_str
	.long L$set$2053
	.byte	0x55
	.byte	0x2c
	.byte	0x1
	.long	0xadd8
	.byte	0x1b
	.long	0xae7c
	.byte	0x1
	.byte	0x22
	.long	0xa20
	.byte	0x22
	.long	0xa20
	.byte	0x22
	.long	0xa20
	.byte	0x22
	.long	0xa20
	.byte	0x0
	.byte	0x1c
	.byte	0x1
	.set L$set$2054,LASF1139-Lsection__debug_str
	.long L$set$2054
	.byte	0x55
	.byte	0x3a
	.set L$set$2055,LASF1200-Lsection__debug_str
	.long L$set$2055
	.long	0xa20
	.byte	0x1
	.long	0xadf4
	.byte	0x1b
	.long	0xae82
	.byte	0x1
	.byte	0x0
	.byte	0x1c
	.byte	0x1
	.set L$set$2056,LASF1141-Lsection__debug_str
	.long L$set$2056
	.byte	0x55
	.byte	0x44
	.set L$set$2057,LASF1201-Lsection__debug_str
	.long L$set$2057
	.long	0xa20
	.byte	0x1
	.long	0xae10
	.byte	0x1b
	.long	0xae82
	.byte	0x1
	.byte	0x0
	.byte	0x4b
	.byte	0x1
	.set L$set$2058,LASF1202-Lsection__debug_str
	.long L$set$2058
	.byte	0x55
	.byte	0x4e
	.set L$set$2059,LASF1203-Lsection__debug_str
	.long L$set$2059
	.byte	0x1
	.long	0xae32
	.byte	0x1b
	.long	0xae7c
	.byte	0x1
	.byte	0x22
	.long	0xa20
	.byte	0x22
	.long	0xa20
	.byte	0x0
	.byte	0x1c
	.byte	0x1
	.set L$set$2060,LASF1204-Lsection__debug_str
	.long L$set$2060
	.byte	0x55
	.byte	0x5b
	.set L$set$2061,LASF1205-Lsection__debug_str
	.long L$set$2061
	.long	0xe2a
	.byte	0x1
	.long	0xae58
	.byte	0x1b
	.long	0xae82
	.byte	0x1
	.byte	0x22
	.long	0xa20
	.byte	0x22
	.long	0xa20
	.byte	0x0
	.byte	0x83,0x1
	.byte	0x1
	.set L$set$2062,LASF1206-Lsection__debug_str
	.long L$set$2062
	.byte	0x55
	.byte	0x65
	.set L$set$2063,LASF1207-Lsection__debug_str
	.long L$set$2063
	.long	0xe2a
	.byte	0x1
	.byte	0x1b
	.long	0xae82
	.byte	0x1
	.byte	0x22
	.long	0xae8d
	.byte	0x22
	.long	0xae7c
	.byte	0x0
	.byte	0x0
	.byte	0x1f
	.byte	0x4
	.long	0xad54
	.byte	0x1f
	.byte	0x4
	.long	0xae88
	.byte	0x20
	.long	0xad54
	.byte	0x24
	.byte	0x4
	.long	0xae88
	.byte	0x19
	.long	0x871
	.byte	0x10
	.byte	0x54
	.byte	0x2a
	.long	0xafbb
	.byte	0xf
	.ascii "Left\0"
	.byte	0x54
	.byte	0x70
	.long	0x99b
	.byte	0x2
	.byte	0x23
	.byte	0x0
	.byte	0xf
	.ascii "Top\0"
	.byte	0x54
	.byte	0x71
	.long	0x99b
	.byte	0x2
	.byte	0x23
	.byte	0x4
	.byte	0x10
	.set L$set$2064,LASF3-Lsection__debug_str
	.long L$set$2064
	.byte	0x54
	.byte	0x72
	.long	0x99b
	.byte	0x2
	.byte	0x23
	.byte	0x8
	.byte	0xf
	.ascii "Bottom\0"
	.byte	0x54
	.byte	0x73
	.long	0x99b
	.byte	0x2
	.byte	0x23
	.byte	0xc
	.byte	0x6
	.byte	0x1
	.set L$set$2065,LASF1199-Lsection__debug_str
	.long L$set$2065
	.byte	0x55
	.byte	0x1e
	.byte	0x1
	.long	0xaeef
	.byte	0x1b
	.long	0xafbb
	.byte	0x1
	.byte	0x0
	.byte	0x6
	.byte	0x1
	.set L$set$2066,LASF1199-Lsection__debug_str
	.long L$set$2066
	.byte	0x55
	.byte	0x2c
	.byte	0x1
	.long	0xaf17
	.byte	0x1b
	.long	0xafbb
	.byte	0x1
	.byte	0x22
	.long	0x99b
	.byte	0x22
	.long	0x99b
	.byte	0x22
	.long	0x99b
	.byte	0x22
	.long	0x99b
	.byte	0x0
	.byte	0x1c
	.byte	0x1
	.set L$set$2067,LASF1139-Lsection__debug_str
	.long L$set$2067
	.byte	0x55
	.byte	0x3a
	.set L$set$2068,LASF1208-Lsection__debug_str
	.long L$set$2068
	.long	0x99b
	.byte	0x1
	.long	0xaf33
	.byte	0x1b
	.long	0xafc1
	.byte	0x1
	.byte	0x0
	.byte	0x1c
	.byte	0x1
	.set L$set$2069,LASF1141-Lsection__debug_str
	.long L$set$2069
	.byte	0x55
	.byte	0x44
	.set L$set$2070,LASF1209-Lsection__debug_str
	.long L$set$2070
	.long	0x99b
	.byte	0x1
	.long	0xaf4f
	.byte	0x1b
	.long	0xafc1
	.byte	0x1
	.byte	0x0
	.byte	0x4b
	.byte	0x1
	.set L$set$2071,LASF1202-Lsection__debug_str
	.long L$set$2071
	.byte	0x55
	.byte	0x4e
	.set L$set$2072,LASF1210-Lsection__debug_str
	.long L$set$2072
	.byte	0x1
	.long	0xaf71
	.byte	0x1b
	.long	0xafbb
	.byte	0x1
	.byte	0x22
	.long	0x99b
	.byte	0x22
	.long	0x99b
	.byte	0x0
	.byte	0x1c
	.byte	0x1
	.set L$set$2073,LASF1204-Lsection__debug_str
	.long L$set$2073
	.byte	0x55
	.byte	0x5b
	.set L$set$2074,LASF1211-Lsection__debug_str
	.long L$set$2074
	.long	0xe2a
	.byte	0x1
	.long	0xaf97
	.byte	0x1b
	.long	0xafc1
	.byte	0x1
	.byte	0x22
	.long	0x99b
	.byte	0x22
	.long	0x99b
	.byte	0x0
	.byte	0x83,0x1
	.byte	0x1
	.set L$set$2075,LASF1206-Lsection__debug_str
	.long L$set$2075
	.byte	0x55
	.byte	0x65
	.set L$set$2076,LASF1212-Lsection__debug_str
	.long L$set$2076
	.long	0xe2a
	.byte	0x1
	.byte	0x1b
	.long	0xafc1
	.byte	0x1
	.byte	0x22
	.long	0xafcc
	.byte	0x22
	.long	0xafbb
	.byte	0x0
	.byte	0x0
	.byte	0x1f
	.byte	0x4
	.long	0xae93
	.byte	0x1f
	.byte	0x4
	.long	0xafc7
	.byte	0x20
	.long	0xae93
	.byte	0x24
	.byte	0x4
	.long	0xafc7
	.byte	0x19
	.long	0x87f
	.byte	0x24
	.byte	0x56
	.byte	0x29
	.long	0xb043
	.byte	0xf
	.ascii "Advance\0"
	.byte	0x56
	.byte	0x35
	.long	0xa20
	.byte	0x2
	.byte	0x23
	.byte	0x0
	.byte	0x7
	.ascii "IntRect\0"
	.byte	0x54
	.byte	0x79
	.long	0xad54
	.byte	0x10
	.set L$set$2077,LASF1213-Lsection__debug_str
	.long L$set$2077
	.byte	0x56
	.byte	0x36
	.long	0xaff0
	.byte	0x2
	.byte	0x23
	.byte	0x4
	.byte	0x7
	.ascii "FloatRect\0"
	.byte	0x54
	.byte	0x7a
	.long	0xae93
	.byte	0xf
	.ascii "TexCoords\0"
	.byte	0x56
	.byte	0x37
	.long	0xb00d
	.byte	0x2
	.byte	0x23
	.byte	0x14
	.byte	0x8
	.byte	0x1
	.set L$set$2078,LASF12-Lsection__debug_str
	.long L$set$2078
	.byte	0x56
	.byte	0x30
	.byte	0x1
	.byte	0x1b
	.long	0xb043
	.byte	0x1
	.byte	0x0
	.byte	0x0
	.byte	0x1f
	.byte	0x4
	.long	0xafd2
	.byte	0x19
	.long	0x27ab
	.byte	0x1
	.byte	0x6
	.byte	0x36
	.long	0xb17e
	.byte	0x6
	.byte	0x1
	.set L$set$2079,LASF258-Lsection__debug_str
	.long L$set$2079
	.byte	0x6
	.byte	0x44
	.byte	0x1
	.long	0xb069
	.byte	0x1b
	.long	0xb1a1
	.byte	0x1
	.byte	0x0
	.byte	0x6
	.byte	0x1
	.set L$set$2080,LASF258-Lsection__debug_str
	.long L$set$2080
	.byte	0x6
	.byte	0x46
	.byte	0x1
	.long	0xb082
	.byte	0x1b
	.long	0xb1a1
	.byte	0x1
	.byte	0x22
	.long	0xb1a7
	.byte	0x0
	.byte	0x6
	.byte	0x1
	.set L$set$2081,LASF259-Lsection__debug_str
	.long L$set$2081
	.byte	0x6
	.byte	0x4b
	.byte	0x1
	.long	0xb09c
	.byte	0x1b
	.long	0xb1a1
	.byte	0x1
	.byte	0x1b
	.long	0xa20
	.byte	0x1
	.byte	0x0
	.byte	0x1c
	.byte	0x1
	.set L$set$2082,LASF260-Lsection__debug_str
	.long L$set$2082
	.byte	0x6
	.byte	0x4e
	.set L$set$2083,LASF1214-Lsection__debug_str
	.long L$set$2083
	.long	0xb17e
	.byte	0x1
	.long	0xb0bd
	.byte	0x1b
	.long	0xb1b2
	.byte	0x1
	.byte	0x22
	.long	0xb195
	.byte	0x0
	.byte	0x1c
	.byte	0x1
	.set L$set$2084,LASF260-Lsection__debug_str
	.long L$set$2084
	.byte	0x6
	.byte	0x51
	.set L$set$2085,LASF1215-Lsection__debug_str
	.long L$set$2085
	.long	0xb18a
	.byte	0x1
	.long	0xb0de
	.byte	0x1b
	.long	0xb1b2
	.byte	0x1
	.byte	0x22
	.long	0xb19b
	.byte	0x0
	.byte	0x1c
	.byte	0x1
	.set L$set$2086,LASF263-Lsection__debug_str
	.long L$set$2086
	.byte	0x6
	.byte	0x56
	.set L$set$2087,LASF1216-Lsection__debug_str
	.long L$set$2087
	.long	0xb17e
	.byte	0x1
	.long	0xb104
	.byte	0x1b
	.long	0xb1a1
	.byte	0x1
	.byte	0x22
	.long	0xb63
	.byte	0x22
	.long	0x2be7
	.byte	0x0
	.byte	0x4b
	.byte	0x1
	.set L$set$2088,LASF265-Lsection__debug_str
	.long L$set$2088
	.byte	0x6
	.byte	0x60
	.set L$set$2089,LASF1217-Lsection__debug_str
	.long L$set$2089
	.byte	0x1
	.long	0xb126
	.byte	0x1b
	.long	0xb1a1
	.byte	0x1
	.byte	0x22
	.long	0xb17e
	.byte	0x22
	.long	0xb63
	.byte	0x0
	.byte	0x1c
	.byte	0x1
	.set L$set$2090,LASF268-Lsection__debug_str
	.long L$set$2090
	.byte	0x6
	.byte	0x64
	.set L$set$2091,LASF1218-Lsection__debug_str
	.long L$set$2091
	.long	0xcf9
	.byte	0x1
	.long	0xb142
	.byte	0x1b
	.long	0xb1b2
	.byte	0x1
	.byte	0x0
	.byte	0x4b
	.byte	0x1
	.set L$set$2092,LASF270-Lsection__debug_str
	.long L$set$2092
	.byte	0x6
	.byte	0x6a
	.set L$set$2093,LASF1219-Lsection__debug_str
	.long L$set$2093
	.byte	0x1
	.long	0xb164
	.byte	0x1b
	.long	0xb1a1
	.byte	0x1
	.byte	0x22
	.long	0xb17e
	.byte	0x22
	.long	0xb19b
	.byte	0x0
	.byte	0x1d
	.byte	0x1
	.set L$set$2094,LASF272-Lsection__debug_str
	.long L$set$2094
	.byte	0x6
	.byte	0x6e
	.set L$set$2095,LASF1220-Lsection__debug_str
	.long L$set$2095
	.byte	0x1
	.byte	0x1b
	.long	0xb1a1
	.byte	0x1
	.byte	0x22
	.long	0xb17e
	.byte	0x0
	.byte	0x0
	.byte	0x1f
	.byte	0x4
	.long	0xb184
	.byte	0x1f
	.byte	0x4
	.long	0x885
	.byte	0x1f
	.byte	0x4
	.long	0xb190
	.byte	0x20
	.long	0xb184
	.byte	0x24
	.byte	0x4
	.long	0xb184
	.byte	0x24
	.byte	0x4
	.long	0xb190
	.byte	0x1f
	.byte	0x4
	.long	0xb049
	.byte	0x24
	.byte	0x4
	.long	0xb1ad
	.byte	0x20
	.long	0xb049
	.byte	0x1f
	.byte	0x4
	.long	0xb1ad
	.byte	0x19
	.long	0x1e42
	.byte	0x1
	.byte	0x7
	.byte	0x56
	.long	0xb22a
	.byte	0x32
	.long	0xb049
	.byte	0x2
	.byte	0x23
	.byte	0x0
	.byte	0x1
	.byte	0x6
	.byte	0x1
	.set L$set$2096,LASF275-Lsection__debug_str
	.long L$set$2096
	.byte	0x7
	.byte	0x64
	.byte	0x1
	.long	0xb1e1
	.byte	0x1b
	.long	0xb22a
	.byte	0x1
	.byte	0x0
	.byte	0x6
	.byte	0x1
	.set L$set$2097,LASF275-Lsection__debug_str
	.long L$set$2097
	.byte	0x7
	.byte	0x66
	.byte	0x1
	.long	0xb1fa
	.byte	0x1b
	.long	0xb22a
	.byte	0x1
	.byte	0x22
	.long	0xb230
	.byte	0x0
	.byte	0x6
	.byte	0x1
	.set L$set$2098,LASF276-Lsection__debug_str
	.long L$set$2098
	.byte	0x7
	.byte	0x6c
	.byte	0x1
	.long	0xb214
	.byte	0x1b
	.long	0xb22a
	.byte	0x1
	.byte	0x1b
	.long	0xa20
	.byte	0x1
	.byte	0x0
	.byte	0x8
	.byte	0x1
	.set L$set$2099,LASF44-Lsection__debug_str
	.long L$set$2099
	.byte	0x7
	.byte	0x6a
	.byte	0x1
	.byte	0x1b
	.long	0xb22a
	.byte	0x1
	.byte	0x22
	.long	0xb403
	.byte	0x0
	.byte	0x0
	.byte	0x1f
	.byte	0x4
	.long	0xb1b8
	.byte	0x24
	.byte	0x4
	.long	0xb236
	.byte	0x20
	.long	0xb1b8
	.byte	0x19
	.long	0x27d8
	.byte	0x1
	.byte	0x6
	.byte	0x36
	.long	0xb370
	.byte	0x6
	.byte	0x1
	.set L$set$2100,LASF258-Lsection__debug_str
	.long L$set$2100
	.byte	0x6
	.byte	0x44
	.byte	0x1
	.long	0xb25b
	.byte	0x1b
	.long	0xb38d
	.byte	0x1
	.byte	0x0
	.byte	0x6
	.byte	0x1
	.set L$set$2101,LASF258-Lsection__debug_str
	.long L$set$2101
	.byte	0x6
	.byte	0x46
	.byte	0x1
	.long	0xb274
	.byte	0x1b
	.long	0xb38d
	.byte	0x1
	.byte	0x22
	.long	0xb393
	.byte	0x0
	.byte	0x6
	.byte	0x1
	.set L$set$2102,LASF259-Lsection__debug_str
	.long L$set$2102
	.byte	0x6
	.byte	0x4b
	.byte	0x1
	.long	0xb28e
	.byte	0x1b
	.long	0xb38d
	.byte	0x1
	.byte	0x1b
	.long	0xa20
	.byte	0x1
	.byte	0x0
	.byte	0x1c
	.byte	0x1
	.set L$set$2103,LASF260-Lsection__debug_str
	.long L$set$2103
	.byte	0x6
	.byte	0x4e
	.set L$set$2104,LASF1221-Lsection__debug_str
	.long L$set$2104
	.long	0xb370
	.byte	0x1
	.long	0xb2af
	.byte	0x1b
	.long	0xb39e
	.byte	0x1
	.byte	0x22
	.long	0xb381
	.byte	0x0
	.byte	0x1c
	.byte	0x1
	.set L$set$2105,LASF260-Lsection__debug_str
	.long L$set$2105
	.byte	0x6
	.byte	0x51
	.set L$set$2106,LASF1222-Lsection__debug_str
	.long L$set$2106
	.long	0xb376
	.byte	0x1
	.long	0xb2d0
	.byte	0x1b
	.long	0xb39e
	.byte	0x1
	.byte	0x22
	.long	0xb387
	.byte	0x0
	.byte	0x1c
	.byte	0x1
	.set L$set$2107,LASF263-Lsection__debug_str
	.long L$set$2107
	.byte	0x6
	.byte	0x56
	.set L$set$2108,LASF1223-Lsection__debug_str
	.long L$set$2108
	.long	0xb370
	.byte	0x1
	.long	0xb2f6
	.byte	0x1b
	.long	0xb38d
	.byte	0x1
	.byte	0x22
	.long	0xb63
	.byte	0x22
	.long	0x2be7
	.byte	0x0
	.byte	0x4b
	.byte	0x1
	.set L$set$2109,LASF265-Lsection__debug_str
	.long L$set$2109
	.byte	0x6
	.byte	0x60
	.set L$set$2110,LASF1224-Lsection__debug_str
	.long L$set$2110
	.byte	0x1
	.long	0xb318
	.byte	0x1b
	.long	0xb38d
	.byte	0x1
	.byte	0x22
	.long	0xb370
	.byte	0x22
	.long	0xb63
	.byte	0x0
	.byte	0x1c
	.byte	0x1
	.set L$set$2111,LASF268-Lsection__debug_str
	.long L$set$2111
	.byte	0x6
	.byte	0x64
	.set L$set$2112,LASF1225-Lsection__debug_str
	.long L$set$2112
	.long	0xcf9
	.byte	0x1
	.long	0xb334
	.byte	0x1b
	.long	0xb39e
	.byte	0x1
	.byte	0x0
	.byte	0x4b
	.byte	0x1
	.set L$set$2113,LASF270-Lsection__debug_str
	.long L$set$2113
	.byte	0x6
	.byte	0x6a
	.set L$set$2114,LASF1226-Lsection__debug_str
	.long L$set$2114
	.byte	0x1
	.long	0xb356
	.byte	0x1b
	.long	0xb38d
	.byte	0x1
	.byte	0x22
	.long	0xb370
	.byte	0x22
	.long	0xb387
	.byte	0x0
	.byte	0x1d
	.byte	0x1
	.set L$set$2115,LASF272-Lsection__debug_str
	.long L$set$2115
	.byte	0x6
	.byte	0x6e
	.set L$set$2116,LASF1227-Lsection__debug_str
	.long L$set$2116
	.byte	0x1
	.byte	0x1b
	.long	0xb38d
	.byte	0x1
	.byte	0x22
	.long	0xb370
	.byte	0x0
	.byte	0x0
	.byte	0x1f
	.byte	0x4
	.long	0x1e71
	.byte	0x1f
	.byte	0x4
	.long	0xb37c
	.byte	0x20
	.long	0x1e71
	.byte	0x24
	.byte	0x4
	.long	0x1e71
	.byte	0x24
	.byte	0x4
	.long	0xb37c
	.byte	0x1f
	.byte	0x4
	.long	0xb23b
	.byte	0x24
	.byte	0x4
	.long	0xb399
	.byte	0x20
	.long	0xb23b
	.byte	0x1f
	.byte	0x4
	.long	0xb399
	.byte	0x19
	.long	0x1e6b
	.byte	0x1
	.byte	0x7
	.byte	0x56
	.long	0xb3fd
	.byte	0x32
	.long	0xb23b
	.byte	0x2
	.byte	0x23
	.byte	0x0
	.byte	0x1
	.byte	0x6
	.byte	0x1
	.set L$set$2117,LASF275-Lsection__debug_str
	.long L$set$2117
	.byte	0x7
	.byte	0x64
	.byte	0x1
	.long	0xb3cd
	.byte	0x1b
	.long	0xb3fd
	.byte	0x1
	.byte	0x0
	.byte	0x6
	.byte	0x1
	.set L$set$2118,LASF275-Lsection__debug_str
	.long L$set$2118
	.byte	0x7
	.byte	0x66
	.byte	0x1
	.long	0xb3e6
	.byte	0x1b
	.long	0xb3fd
	.byte	0x1
	.byte	0x22
	.long	0xb403
	.byte	0x0
	.byte	0x8
	.byte	0x1
	.set L$set$2119,LASF276-Lsection__debug_str
	.long L$set$2119
	.byte	0x7
	.byte	0x6c
	.byte	0x1
	.byte	0x1b
	.long	0xb3fd
	.byte	0x1
	.byte	0x1b
	.long	0xa20
	.byte	0x1
	.byte	0x0
	.byte	0x0
	.byte	0x1f
	.byte	0x4
	.long	0xb3a4
	.byte	0x24
	.byte	0x4
	.long	0xb409
	.byte	0x20
	.long	0xb3a4
	.byte	0x3f
	.long	0x1e9e
	.byte	0x1
	.byte	0x5
	.byte	0x73
	.byte	0x19
	.long	0x1eee
	.byte	0x1
	.byte	0x5
	.byte	0xe0
	.long	0xb44f
	.byte	0x32
	.long	0xb40e
	.byte	0x2
	.byte	0x23
	.byte	0x0
	.byte	0x1
	.byte	0x83,0x1
	.byte	0x1
	.set L$set$2120,LASF1228-Lsection__debug_str
	.long L$set$2120
	.byte	0x5
	.byte	0xe2
	.set L$set$2121,LASF1229-Lsection__debug_str
	.long L$set$2121
	.long	0xe2a
	.byte	0x1
	.byte	0x1b
	.long	0xb44f
	.byte	0x1
	.byte	0x22
	.long	0xb19b
	.byte	0x22
	.long	0xb19b
	.byte	0x0
	.byte	0x0
	.byte	0x1f
	.byte	0x4
	.long	0xb455
	.byte	0x20
	.long	0xb416
	.byte	0x1f
	.byte	0x4
	.long	0x1fda
	.byte	0x24
	.byte	0x4
	.long	0xb455
	.byte	0x60
	.long	0x1f12
	.byte	0x18
	.byte	0x3
	.word	0x14c
	.long	0xbe1f
	.byte	0x57
	.set L$set$2122,LASF489-Lsection__debug_str
	.long L$set$2122
	.byte	0x3
	.word	0x1c0
	.long	0x1fda
	.byte	0x2
	.byte	0x23
	.byte	0x0
	.byte	0x2
	.byte	0x44
	.byte	0x1
	.set L$set$2123,LASF1230-Lsection__debug_str
	.long L$set$2123
	.byte	0x3
	.word	0x163
	.set L$set$2124,LASF1231-Lsection__debug_str
	.long L$set$2124
	.long	0xbe1f
	.byte	0x1
	.long	0xb4a0
	.byte	0x1b
	.long	0xbe25
	.byte	0x1
	.byte	0x0
	.byte	0x44
	.byte	0x1
	.set L$set$2125,LASF1230-Lsection__debug_str
	.long L$set$2125
	.byte	0x3
	.word	0x167
	.set L$set$2126,LASF1232-Lsection__debug_str
	.long L$set$2126
	.long	0xb403
	.byte	0x1
	.long	0xb4bd
	.byte	0x1b
	.long	0xbe2b
	.byte	0x1
	.byte	0x0
	.byte	0x44
	.byte	0x1
	.set L$set$2127,LASF406-Lsection__debug_str
	.long L$set$2127
	.byte	0x3
	.word	0x16b
	.set L$set$2128,LASF1233-Lsection__debug_str
	.long L$set$2128
	.long	0xb1b8
	.byte	0x1
	.long	0xb4da
	.byte	0x1b
	.long	0xbe2b
	.byte	0x1
	.byte	0x0
	.byte	0x4f
	.byte	0x1
	.set L$set$2129,LASF1234-Lsection__debug_str
	.long L$set$2129
	.byte	0x3
	.word	0x170
	.set L$set$2130,LASF1235-Lsection__debug_str
	.long L$set$2130
	.long	0xb370
	.byte	0x2
	.byte	0x1
	.long	0xb4f8
	.byte	0x1b
	.long	0xbe25
	.byte	0x1
	.byte	0x0
	.byte	0x50
	.byte	0x1
	.set L$set$2131,LASF1236-Lsection__debug_str
	.long L$set$2131
	.byte	0x3
	.word	0x174
	.set L$set$2132,LASF1237-Lsection__debug_str
	.long L$set$2132
	.byte	0x2
	.byte	0x1
	.long	0xb517
	.byte	0x1b
	.long	0xbe25
	.byte	0x1
	.byte	0x22
	.long	0xb370
	.byte	0x0
	.byte	0x4f
	.byte	0x1
	.set L$set$2133,LASF1238-Lsection__debug_str
	.long L$set$2133
	.byte	0x3
	.word	0x178
	.set L$set$2134,LASF1239-Lsection__debug_str
	.long L$set$2134
	.long	0xb370
	.byte	0x2
	.byte	0x1
	.long	0xb53a
	.byte	0x1b
	.long	0xbe25
	.byte	0x1
	.byte	0x22
	.long	0xb19b
	.byte	0x0
	.byte	0x4f
	.byte	0x1
	.set L$set$2135,LASF1240-Lsection__debug_str
	.long L$set$2135
	.byte	0x3
	.word	0x186
	.set L$set$2136,LASF1241-Lsection__debug_str
	.long L$set$2136
	.long	0xb370
	.byte	0x2
	.byte	0x1
	.long	0xb55d
	.byte	0x1b
	.long	0xbe25
	.byte	0x1
	.byte	0x22
	.long	0xb376
	.byte	0x0
	.byte	0x50
	.byte	0x1
	.set L$set$2137,LASF1242-Lsection__debug_str
	.long L$set$2137
	.byte	0x3
	.word	0x190
	.set L$set$2138,LASF1243-Lsection__debug_str
	.long L$set$2138
	.byte	0x2
	.byte	0x1
	.long	0xb57c
	.byte	0x1b
	.long	0xbe25
	.byte	0x1
	.byte	0x22
	.long	0xb370
	.byte	0x0
	.byte	0x4f
	.byte	0x1
	.set L$set$2139,LASF1244-Lsection__debug_str
	.long L$set$2139
	.byte	0x3
	.word	0x1c4
	.set L$set$2140,LASF1245-Lsection__debug_str
	.long L$set$2140
	.long	0xbe36
	.byte	0x2
	.byte	0x1
	.long	0xb59a
	.byte	0x1b
	.long	0xbe25
	.byte	0x1
	.byte	0x0
	.byte	0x4f
	.byte	0x1
	.set L$set$2141,LASF1244-Lsection__debug_str
	.long L$set$2141
	.byte	0x3
	.word	0x1c8
	.set L$set$2142,LASF1246-Lsection__debug_str
	.long L$set$2142
	.long	0xad49
	.byte	0x2
	.byte	0x1
	.long	0xb5b8
	.byte	0x1b
	.long	0xbe2b
	.byte	0x1
	.byte	0x0
	.byte	0x4f
	.byte	0x1
	.set L$set$2143,LASF1247-Lsection__debug_str
	.long L$set$2143
	.byte	0x3
	.word	0x1cc
	.set L$set$2144,LASF1248-Lsection__debug_str
	.long L$set$2144
	.long	0xbe36
	.byte	0x2
	.byte	0x1
	.long	0xb5d6
	.byte	0x1b
	.long	0xbe25
	.byte	0x1
	.byte	0x0
	.byte	0x4f
	.byte	0x1
	.set L$set$2145,LASF1247-Lsection__debug_str
	.long L$set$2145
	.byte	0x3
	.word	0x1d0
	.set L$set$2146,LASF1249-Lsection__debug_str
	.long L$set$2146
	.long	0xad49
	.byte	0x2
	.byte	0x1
	.long	0xb5f4
	.byte	0x1b
	.long	0xbe2b
	.byte	0x1
	.byte	0x0
	.byte	0x4f
	.byte	0x1
	.set L$set$2147,LASF1250-Lsection__debug_str
	.long L$set$2147
	.byte	0x3
	.word	0x1d4
	.set L$set$2148,LASF1251-Lsection__debug_str
	.long L$set$2148
	.long	0xbe36
	.byte	0x2
	.byte	0x1
	.long	0xb612
	.byte	0x1b
	.long	0xbe25
	.byte	0x1
	.byte	0x0
	.byte	0x4f
	.byte	0x1
	.set L$set$2149,LASF1250-Lsection__debug_str
	.long L$set$2149
	.byte	0x3
	.word	0x1d8
	.set L$set$2150,LASF1252-Lsection__debug_str
	.long L$set$2150
	.long	0xad49
	.byte	0x2
	.byte	0x1
	.long	0xb630
	.byte	0x1b
	.long	0xbe2b
	.byte	0x1
	.byte	0x0
	.byte	0x4f
	.byte	0x1
	.set L$set$2151,LASF1253-Lsection__debug_str
	.long L$set$2151
	.byte	0x3
	.word	0x1dc
	.set L$set$2152,LASF1254-Lsection__debug_str
	.long L$set$2152
	.long	0xb370
	.byte	0x2
	.byte	0x1
	.long	0xb64e
	.byte	0x1b
	.long	0xbe25
	.byte	0x1
	.byte	0x0
	.byte	0x4f
	.byte	0x1
	.set L$set$2153,LASF1253-Lsection__debug_str
	.long L$set$2153
	.byte	0x3
	.word	0x1e0
	.set L$set$2154,LASF1255-Lsection__debug_str
	.long L$set$2154
	.long	0xb376
	.byte	0x2
	.byte	0x1
	.long	0xb66c
	.byte	0x1b
	.long	0xbe2b
	.byte	0x1
	.byte	0x0
	.byte	0x4f
	.byte	0x1
	.set L$set$2155,LASF1256-Lsection__debug_str
	.long L$set$2155
	.byte	0x3
	.word	0x1e7
	.set L$set$2156,LASF1257-Lsection__debug_str
	.long L$set$2156
	.long	0xb370
	.byte	0x2
	.byte	0x1
	.long	0xb68a
	.byte	0x1b
	.long	0xbe25
	.byte	0x1
	.byte	0x0
	.byte	0x4f
	.byte	0x1
	.set L$set$2157,LASF1256-Lsection__debug_str
	.long L$set$2157
	.byte	0x3
	.word	0x1eb
	.set L$set$2158,LASF1258-Lsection__debug_str
	.long L$set$2158
	.long	0xb376
	.byte	0x2
	.byte	0x1
	.long	0xb6a8
	.byte	0x1b
	.long	0xbe2b
	.byte	0x1
	.byte	0x0
	.byte	0x4f
	.byte	0x1
	.set L$set$2159,LASF1259-Lsection__debug_str
	.long L$set$2159
	.byte	0x3
	.word	0x1ef
	.set L$set$2160,LASF1260-Lsection__debug_str
	.long L$set$2160
	.long	0xb19b
	.byte	0x2
	.byte	0x1
	.long	0xb6c5
	.byte	0x22
	.long	0xb376
	.byte	0x0
	.byte	0x4f
	.byte	0x1
	.set L$set$2161,LASF1261-Lsection__debug_str
	.long L$set$2161
	.byte	0x3
	.word	0x1f3
	.set L$set$2162,LASF1262-Lsection__debug_str
	.long L$set$2162
	.long	0xb19b
	.byte	0x2
	.byte	0x1
	.long	0xb6e2
	.byte	0x22
	.long	0xb376
	.byte	0x0
	.byte	0x4f
	.byte	0x1
	.set L$set$2163,LASF27-Lsection__debug_str
	.long L$set$2163
	.byte	0x3
	.word	0x1f7
	.set L$set$2164,LASF1263-Lsection__debug_str
	.long L$set$2164
	.long	0xb370
	.byte	0x2
	.byte	0x1
	.long	0xb6ff
	.byte	0x22
	.long	0xad43
	.byte	0x0
	.byte	0x4f
	.byte	0x1
	.set L$set$2165,LASF27-Lsection__debug_str
	.long L$set$2165
	.byte	0x3
	.word	0x1fb
	.set L$set$2166,LASF1264-Lsection__debug_str
	.long L$set$2166
	.long	0xb376
	.byte	0x2
	.byte	0x1
	.long	0xb71c
	.byte	0x22
	.long	0xad49
	.byte	0x0
	.byte	0x4f
	.byte	0x1
	.set L$set$2167,LASF28-Lsection__debug_str
	.long L$set$2167
	.byte	0x3
	.word	0x1ff
	.set L$set$2168,LASF1265-Lsection__debug_str
	.long L$set$2168
	.long	0xb370
	.byte	0x2
	.byte	0x1
	.long	0xb739
	.byte	0x22
	.long	0xad43
	.byte	0x0
	.byte	0x4f
	.byte	0x1
	.set L$set$2169,LASF28-Lsection__debug_str
	.long L$set$2169
	.byte	0x3
	.word	0x203
	.set L$set$2170,LASF1266-Lsection__debug_str
	.long L$set$2170
	.long	0xb376
	.byte	0x2
	.byte	0x1
	.long	0xb756
	.byte	0x22
	.long	0xad49
	.byte	0x0
	.byte	0x4f
	.byte	0x1
	.set L$set$2171,LASF1259-Lsection__debug_str
	.long L$set$2171
	.byte	0x3
	.word	0x207
	.set L$set$2172,LASF1267-Lsection__debug_str
	.long L$set$2172
	.long	0xb19b
	.byte	0x2
	.byte	0x1
	.long	0xb773
	.byte	0x22
	.long	0xad49
	.byte	0x0
	.byte	0x4f
	.byte	0x1
	.set L$set$2173,LASF1261-Lsection__debug_str
	.long L$set$2173
	.byte	0x3
	.word	0x20b
	.set L$set$2174,LASF1268-Lsection__debug_str
	.long L$set$2174
	.long	0xb19b
	.byte	0x2
	.byte	0x1
	.long	0xb790
	.byte	0x22
	.long	0xad49
	.byte	0x0
	.byte	0x4f
	.byte	0x1
	.set L$set$2175,LASF1193-Lsection__debug_str
	.long L$set$2175
	.byte	0x3
	.word	0x20f
	.set L$set$2176,LASF1269-Lsection__debug_str
	.long L$set$2176
	.long	0xad43
	.byte	0x2
	.byte	0x1
	.long	0xb7ad
	.byte	0x22
	.long	0xad43
	.byte	0x0
	.byte	0x4f
	.byte	0x1
	.set L$set$2177,LASF1193-Lsection__debug_str
	.long L$set$2177
	.byte	0x3
	.word	0x213
	.set L$set$2178,LASF1270-Lsection__debug_str
	.long L$set$2178
	.long	0xad49
	.byte	0x2
	.byte	0x1
	.long	0xb7ca
	.byte	0x22
	.long	0xad49
	.byte	0x0
	.byte	0x4f
	.byte	0x1
	.set L$set$2179,LASF1196-Lsection__debug_str
	.long L$set$2179
	.byte	0x3
	.word	0x217
	.set L$set$2180,LASF1271-Lsection__debug_str
	.long L$set$2180
	.long	0xad43
	.byte	0x2
	.byte	0x1
	.long	0xb7e7
	.byte	0x22
	.long	0xad43
	.byte	0x0
	.byte	0x4f
	.byte	0x1
	.set L$set$2181,LASF1196-Lsection__debug_str
	.long L$set$2181
	.byte	0x3
	.word	0x21b
	.set L$set$2182,LASF1272-Lsection__debug_str
	.long L$set$2182
	.long	0xad49
	.byte	0x2
	.byte	0x1
	.long	0xb804
	.byte	0x22
	.long	0xad49
	.byte	0x0
	.byte	0x4f
	.byte	0x1
	.set L$set$2183,LASF1273-Lsection__debug_str
	.long L$set$2183
	.byte	0x3
	.word	0x342
	.set L$set$2184,LASF1274-Lsection__debug_str
	.long L$set$2184
	.long	0x2089
	.byte	0x3
	.byte	0x1
	.long	0xb831
	.byte	0x1b
	.long	0xbe25
	.byte	0x1
	.byte	0x22
	.long	0xad43
	.byte	0x22
	.long	0xad43
	.byte	0x22
	.long	0xb19b
	.byte	0x0
	.byte	0x4f
	.byte	0x1
	.set L$set$2185,LASF1275-Lsection__debug_str
	.long L$set$2185
	.byte	0x3
	.word	0x354
	.set L$set$2186,LASF1276-Lsection__debug_str
	.long L$set$2186
	.long	0x2089
	.byte	0x3
	.byte	0x1
	.long	0xb85e
	.byte	0x1b
	.long	0xbe25
	.byte	0x1
	.byte	0x22
	.long	0xad43
	.byte	0x22
	.long	0xad43
	.byte	0x22
	.long	0xb19b
	.byte	0x0
	.byte	0x4f
	.byte	0x1
	.set L$set$2187,LASF1273-Lsection__debug_str
	.long L$set$2187
	.byte	0x3
	.word	0x366
	.set L$set$2188,LASF1277-Lsection__debug_str
	.long L$set$2188
	.long	0x20ba
	.byte	0x3
	.byte	0x1
	.long	0xb88b
	.byte	0x1b
	.long	0xbe25
	.byte	0x1
	.byte	0x22
	.long	0xad49
	.byte	0x22
	.long	0xad49
	.byte	0x22
	.long	0xb19b
	.byte	0x0
	.byte	0x4f
	.byte	0x1
	.set L$set$2189,LASF296-Lsection__debug_str
	.long L$set$2189
	.byte	0x3
	.word	0x504
	.set L$set$2190,LASF1278-Lsection__debug_str
	.long L$set$2190
	.long	0xb370
	.byte	0x3
	.byte	0x1
	.long	0xb8b3
	.byte	0x1b
	.long	0xbe25
	.byte	0x1
	.byte	0x22
	.long	0xb376
	.byte	0x22
	.long	0xb370
	.byte	0x0
	.byte	0x50
	.byte	0x1
	.set L$set$2191,LASF1279-Lsection__debug_str
	.long L$set$2191
	.byte	0x3
	.word	0x528
	.set L$set$2192,LASF1280-Lsection__debug_str
	.long L$set$2192
	.byte	0x3
	.byte	0x1
	.long	0xb8d2
	.byte	0x1b
	.long	0xbe25
	.byte	0x1
	.byte	0x22
	.long	0xb370
	.byte	0x0
	.byte	0x36
	.byte	0x1
	.set L$set$2193,LASF1281-Lsection__debug_str
	.long L$set$2193
	.byte	0x3
	.word	0x23a
	.byte	0x1
	.long	0xb8e7
	.byte	0x1b
	.long	0xbe25
	.byte	0x1
	.byte	0x0
	.byte	0x36
	.byte	0x1
	.set L$set$2194,LASF1281-Lsection__debug_str
	.long L$set$2194
	.byte	0x3
	.word	0x23d
	.byte	0x1
	.long	0xb901
	.byte	0x1b
	.long	0xbe25
	.byte	0x1
	.byte	0x22
	.long	0xb460
	.byte	0x0
	.byte	0x36
	.byte	0x1
	.set L$set$2195,LASF1281-Lsection__debug_str
	.long L$set$2195
	.byte	0x3
	.word	0x241
	.byte	0x1
	.long	0xb920
	.byte	0x1b
	.long	0xbe25
	.byte	0x1
	.byte	0x22
	.long	0xb460
	.byte	0x22
	.long	0xb230
	.byte	0x0
	.byte	0x36
	.byte	0x1
	.set L$set$2196,LASF1281-Lsection__debug_str
	.long L$set$2196
	.byte	0x3
	.word	0x245
	.byte	0x1
	.long	0xb93a
	.byte	0x1b
	.long	0xbe25
	.byte	0x1
	.byte	0x22
	.long	0xbe3c
	.byte	0x0
	.byte	0x36
	.byte	0x1
	.set L$set$2197,LASF1282-Lsection__debug_str
	.long L$set$2197
	.byte	0x3
	.word	0x251
	.byte	0x1
	.long	0xb955
	.byte	0x1b
	.long	0xbe25
	.byte	0x1
	.byte	0x1b
	.long	0xa20
	.byte	0x1
	.byte	0x0
	.byte	0x44
	.byte	0x1
	.set L$set$2198,LASF22-Lsection__debug_str
	.long L$set$2198
	.byte	0x3
	.word	0x32c
	.set L$set$2199,LASF1283-Lsection__debug_str
	.long L$set$2199
	.long	0xbe42
	.byte	0x1
	.long	0xb977
	.byte	0x1b
	.long	0xbe25
	.byte	0x1
	.byte	0x22
	.long	0xbe3c
	.byte	0x0
	.byte	0x44
	.byte	0x1
	.set L$set$2200,LASF1284-Lsection__debug_str
	.long L$set$2200
	.byte	0x3
	.word	0x259
	.set L$set$2201,LASF1285-Lsection__debug_str
	.long L$set$2201
	.long	0xb416
	.byte	0x1
	.long	0xb994
	.byte	0x1b
	.long	0xbe2b
	.byte	0x1
	.byte	0x0
	.byte	0x44
	.byte	0x1
	.set L$set$2202,LASF318-Lsection__debug_str
	.long L$set$2202
	.byte	0x3
	.word	0x25d
	.set L$set$2203,LASF1286-Lsection__debug_str
	.long L$set$2203
	.long	0x2089
	.byte	0x1
	.long	0xb9b1
	.byte	0x1b
	.long	0xbe25
	.byte	0x1
	.byte	0x0
	.byte	0x44
	.byte	0x1
	.set L$set$2204,LASF318-Lsection__debug_str
	.long L$set$2204
	.byte	0x3
	.word	0x264
	.set L$set$2205,LASF1287-Lsection__debug_str
	.long L$set$2205
	.long	0x20ba
	.byte	0x1
	.long	0xb9ce
	.byte	0x1b
	.long	0xbe2b
	.byte	0x1
	.byte	0x0
	.byte	0x44
	.byte	0x1
	.set L$set$2206,LASF321-Lsection__debug_str
	.long L$set$2206
	.byte	0x3
	.word	0x26b
	.set L$set$2207,LASF1288-Lsection__debug_str
	.long L$set$2207
	.long	0x2089
	.byte	0x1
	.long	0xb9eb
	.byte	0x1b
	.long	0xbe25
	.byte	0x1
	.byte	0x0
	.byte	0x44
	.byte	0x1
	.set L$set$2208,LASF321-Lsection__debug_str
	.long L$set$2208
	.byte	0x3
	.word	0x26f
	.set L$set$2209,LASF1289-Lsection__debug_str
	.long L$set$2209
	.long	0x20ba
	.byte	0x1
	.long	0xba08
	.byte	0x1b
	.long	0xbe2b
	.byte	0x1
	.byte	0x0
	.byte	0x44
	.byte	0x1
	.set L$set$2210,LASF324-Lsection__debug_str
	.long L$set$2210
	.byte	0x3
	.word	0x276
	.set L$set$2211,LASF1290-Lsection__debug_str
	.long L$set$2211
	.long	0x20f1
	.byte	0x1
	.long	0xba25
	.byte	0x1b
	.long	0xbe25
	.byte	0x1
	.byte	0x0
	.byte	0x44
	.byte	0x1
	.set L$set$2212,LASF324-Lsection__debug_str
	.long L$set$2212
	.byte	0x3
	.word	0x27a
	.set L$set$2213,LASF1291-Lsection__debug_str
	.long L$set$2213
	.long	0x213a
	.byte	0x1
	.long	0xba42
	.byte	0x1b
	.long	0xbe2b
	.byte	0x1
	.byte	0x0
	.byte	0x44
	.byte	0x1
	.set L$set$2214,LASF327-Lsection__debug_str
	.long L$set$2214
	.byte	0x3
	.word	0x27e
	.set L$set$2215,LASF1292-Lsection__debug_str
	.long L$set$2215
	.long	0x20f1
	.byte	0x1
	.long	0xba5f
	.byte	0x1b
	.long	0xbe25
	.byte	0x1
	.byte	0x0
	.byte	0x44
	.byte	0x1
	.set L$set$2216,LASF327-Lsection__debug_str
	.long L$set$2216
	.byte	0x3
	.word	0x282
	.set L$set$2217,LASF1293-Lsection__debug_str
	.long L$set$2217
	.long	0x213a
	.byte	0x1
	.long	0xba7c
	.byte	0x1b
	.long	0xbe2b
	.byte	0x1
	.byte	0x0
	.byte	0x44
	.byte	0x1
	.set L$set$2218,LASF343-Lsection__debug_str
	.long L$set$2218
	.byte	0x3
	.word	0x286
	.set L$set$2219,LASF1294-Lsection__debug_str
	.long L$set$2219
	.long	0xe2a
	.byte	0x1
	.long	0xba99
	.byte	0x1b
	.long	0xbe2b
	.byte	0x1
	.byte	0x0
	.byte	0x44
	.byte	0x1
	.set L$set$2220,LASF330-Lsection__debug_str
	.long L$set$2220
	.byte	0x3
	.word	0x28a
	.set L$set$2221,LASF1295-Lsection__debug_str
	.long L$set$2221
	.long	0xcf9
	.byte	0x1
	.long	0xbab6
	.byte	0x1b
	.long	0xbe2b
	.byte	0x1
	.byte	0x0
	.byte	0x44
	.byte	0x1
	.set L$set$2222,LASF268-Lsection__debug_str
	.long L$set$2222
	.byte	0x3
	.word	0x28e
	.set L$set$2223,LASF1296-Lsection__debug_str
	.long L$set$2223
	.long	0xcf9
	.byte	0x1
	.long	0xbad3
	.byte	0x1b
	.long	0xbe2b
	.byte	0x1
	.byte	0x0
	.byte	0x37
	.byte	0x1
	.set L$set$2224,LASF400-Lsection__debug_str
	.long L$set$2224
	.byte	0x3
	.word	0x39b
	.set L$set$2225,LASF1297-Lsection__debug_str
	.long L$set$2225
	.byte	0x1
	.long	0xbaf1
	.byte	0x1b
	.long	0xbe25
	.byte	0x1
	.byte	0x22
	.long	0xbe42
	.byte	0x0
	.byte	0x44
	.byte	0x1
	.set L$set$2226,LASF1298-Lsection__debug_str
	.long L$set$2226
	.byte	0x3
	.word	0x3ce
	.set L$set$2227,LASF1299-Lsection__debug_str
	.long L$set$2227
	.long	0x2189
	.byte	0x1
	.long	0xbb13
	.byte	0x1b
	.long	0xbe25
	.byte	0x1
	.byte	0x22
	.long	0xb19b
	.byte	0x0
	.byte	0x44
	.byte	0x1
	.set L$set$2228,LASF1300-Lsection__debug_str
	.long L$set$2228
	.byte	0x3
	.word	0x379
	.set L$set$2229,LASF1301-Lsection__debug_str
	.long L$set$2229
	.long	0x2089
	.byte	0x1
	.long	0xbb35
	.byte	0x1b
	.long	0xbe25
	.byte	0x1
	.byte	0x22
	.long	0xb19b
	.byte	0x0
	.byte	0x44
	.byte	0x1
	.set L$set$2230,LASF1302-Lsection__debug_str
	.long L$set$2230
	.byte	0x3
	.word	0x38a
	.set L$set$2231,LASF1303-Lsection__debug_str
	.long L$set$2231
	.long	0x2089
	.byte	0x1
	.long	0xbb57
	.byte	0x1b
	.long	0xbe25
	.byte	0x1
	.byte	0x22
	.long	0xb19b
	.byte	0x0
	.byte	0x44
	.byte	0x1
	.set L$set$2232,LASF1298-Lsection__debug_str
	.long L$set$2232
	.byte	0x3
	.word	0x3e8
	.set L$set$2233,LASF1304-Lsection__debug_str
	.long L$set$2233
	.long	0x2089
	.byte	0x1
	.long	0xbb7e
	.byte	0x1b
	.long	0xbe25
	.byte	0x1
	.byte	0x22
	.long	0x2089
	.byte	0x22
	.long	0xb19b
	.byte	0x0
	.byte	0x44
	.byte	0x1
	.set L$set$2234,LASF1298-Lsection__debug_str
	.long L$set$2234
	.byte	0x3
	.word	0x421
	.set L$set$2235,LASF1305-Lsection__debug_str
	.long L$set$2235
	.long	0x20ba
	.byte	0x1
	.long	0xbba5
	.byte	0x1b
	.long	0xbe25
	.byte	0x1
	.byte	0x22
	.long	0x20ba
	.byte	0x22
	.long	0xb19b
	.byte	0x0
	.byte	0x44
	.byte	0x1
	.set L$set$2236,LASF1300-Lsection__debug_str
	.long L$set$2236
	.byte	0x3
	.word	0x45a
	.set L$set$2237,LASF1306-Lsection__debug_str
	.long L$set$2237
	.long	0x2089
	.byte	0x1
	.long	0xbbcc
	.byte	0x1b
	.long	0xbe25
	.byte	0x1
	.byte	0x22
	.long	0x2089
	.byte	0x22
	.long	0xb19b
	.byte	0x0
	.byte	0x44
	.byte	0x1
	.set L$set$2238,LASF1300-Lsection__debug_str
	.long L$set$2238
	.byte	0x3
	.word	0x490
	.set L$set$2239,LASF1307-Lsection__debug_str
	.long L$set$2239
	.long	0x20ba
	.byte	0x1
	.long	0xbbf3
	.byte	0x1b
	.long	0xbe25
	.byte	0x1
	.byte	0x22
	.long	0x20ba
	.byte	0x22
	.long	0xb19b
	.byte	0x0
	.byte	0x37
	.byte	0x1
	.set L$set$2240,LASF376-Lsection__debug_str
	.long L$set$2240
	.byte	0x3
	.word	0x4dc
	.set L$set$2241,LASF1308-Lsection__debug_str
	.long L$set$2241
	.byte	0x1
	.long	0xbc11
	.byte	0x1b
	.long	0xbe25
	.byte	0x1
	.byte	0x22
	.long	0x2089
	.byte	0x0
	.byte	0x37
	.byte	0x1
	.set L$set$2242,LASF376-Lsection__debug_str
	.long L$set$2242
	.byte	0x3
	.word	0x4ea
	.set L$set$2243,LASF1309-Lsection__debug_str
	.long L$set$2243
	.byte	0x1
	.long	0xbc2f
	.byte	0x1b
	.long	0xbe25
	.byte	0x1
	.byte	0x22
	.long	0x20ba
	.byte	0x0
	.byte	0x44
	.byte	0x1
	.set L$set$2244,LASF376-Lsection__debug_str
	.long L$set$2244
	.byte	0x3
	.word	0x4f8
	.set L$set$2245,LASF1310-Lsection__debug_str
	.long L$set$2245
	.long	0xcf9
	.byte	0x1
	.long	0xbc51
	.byte	0x1b
	.long	0xbe25
	.byte	0x1
	.byte	0x22
	.long	0xb19b
	.byte	0x0
	.byte	0x37
	.byte	0x1
	.set L$set$2246,LASF376-Lsection__debug_str
	.long L$set$2246
	.byte	0x3
	.word	0x538
	.set L$set$2247,LASF1311-Lsection__debug_str
	.long L$set$2247
	.byte	0x1
	.long	0xbc74
	.byte	0x1b
	.long	0xbe25
	.byte	0x1
	.byte	0x22
	.long	0x2089
	.byte	0x22
	.long	0x2089
	.byte	0x0
	.byte	0x37
	.byte	0x1
	.set L$set$2248,LASF376-Lsection__debug_str
	.long L$set$2248
	.byte	0x3
	.word	0x545
	.set L$set$2249,LASF1312-Lsection__debug_str
	.long L$set$2249
	.byte	0x1
	.long	0xbc97
	.byte	0x1b
	.long	0xbe25
	.byte	0x1
	.byte	0x22
	.long	0x20ba
	.byte	0x22
	.long	0x20ba
	.byte	0x0
	.byte	0x37
	.byte	0x1
	.set L$set$2250,LASF376-Lsection__debug_str
	.long L$set$2250
	.byte	0x3
	.word	0x552
	.set L$set$2251,LASF1313-Lsection__debug_str
	.long L$set$2251
	.byte	0x1
	.long	0xbcba
	.byte	0x1b
	.long	0xbe25
	.byte	0x1
	.byte	0x22
	.long	0xb18a
	.byte	0x22
	.long	0xb18a
	.byte	0x0
	.byte	0x37
	.byte	0x1
	.set L$set$2252,LASF341-Lsection__debug_str
	.long L$set$2252
	.byte	0x3
	.word	0x2c7
	.set L$set$2253,LASF1314-Lsection__debug_str
	.long L$set$2253
	.byte	0x1
	.long	0xbcd3
	.byte	0x1b
	.long	0xbe25
	.byte	0x1
	.byte	0x0
	.byte	0x44
	.byte	0x1
	.set L$set$2254,LASF241-Lsection__debug_str
	.long L$set$2254
	.byte	0x3
	.word	0x55c
	.set L$set$2255,LASF1315-Lsection__debug_str
	.long L$set$2255
	.long	0x2089
	.byte	0x1
	.long	0xbcf5
	.byte	0x1b
	.long	0xbe25
	.byte	0x1
	.byte	0x22
	.long	0xb19b
	.byte	0x0
	.byte	0x44
	.byte	0x1
	.set L$set$2256,LASF241-Lsection__debug_str
	.long L$set$2256
	.byte	0x3
	.word	0x571
	.set L$set$2257,LASF1316-Lsection__debug_str
	.long L$set$2257
	.long	0x20ba
	.byte	0x1
	.long	0xbd17
	.byte	0x1b
	.long	0xbe2b
	.byte	0x1
	.byte	0x22
	.long	0xb19b
	.byte	0x0
	.byte	0x44
	.byte	0x1
	.set L$set$2258,LASF1317-Lsection__debug_str
	.long L$set$2258
	.byte	0x3
	.word	0x587
	.set L$set$2259,LASF1318-Lsection__debug_str
	.long L$set$2259
	.long	0xcf9
	.byte	0x1
	.long	0xbd39
	.byte	0x1b
	.long	0xbe2b
	.byte	0x1
	.byte	0x22
	.long	0xb19b
	.byte	0x0
	.byte	0x44
	.byte	0x1
	.set L$set$2260,LASF1319-Lsection__debug_str
	.long L$set$2260
	.byte	0x3
	.word	0x592
	.set L$set$2261,LASF1320-Lsection__debug_str
	.long L$set$2261
	.long	0x2089
	.byte	0x1
	.long	0xbd5b
	.byte	0x1b
	.long	0xbe25
	.byte	0x1
	.byte	0x22
	.long	0xb19b
	.byte	0x0
	.byte	0x44
	.byte	0x1
	.set L$set$2262,LASF1319-Lsection__debug_str
	.long L$set$2262
	.byte	0x3
	.word	0x5a4
	.set L$set$2263,LASF1321-Lsection__debug_str
	.long L$set$2263
	.long	0x20ba
	.byte	0x1
	.long	0xbd7d
	.byte	0x1b
	.long	0xbe2b
	.byte	0x1
	.byte	0x22
	.long	0xb19b
	.byte	0x0
	.byte	0x44
	.byte	0x1
	.set L$set$2264,LASF1322-Lsection__debug_str
	.long L$set$2264
	.byte	0x3
	.word	0x5b6
	.set L$set$2265,LASF1323-Lsection__debug_str
	.long L$set$2265
	.long	0x2089
	.byte	0x1
	.long	0xbd9f
	.byte	0x1b
	.long	0xbe25
	.byte	0x1
	.byte	0x22
	.long	0xb19b
	.byte	0x0
	.byte	0x44
	.byte	0x1
	.set L$set$2266,LASF1322-Lsection__debug_str
	.long L$set$2266
	.byte	0x3
	.word	0x5c8
	.set L$set$2267,LASF1324-Lsection__debug_str
	.long L$set$2267
	.long	0x20ba
	.byte	0x1
	.long	0xbdc1
	.byte	0x1b
	.long	0xbe2b
	.byte	0x1
	.byte	0x22
	.long	0xb19b
	.byte	0x0
	.byte	0x44
	.byte	0x1
	.set L$set$2268,LASF1325-Lsection__debug_str
	.long L$set$2268
	.byte	0x3
	.word	0x5dd
	.set L$set$2269,LASF1326-Lsection__debug_str
	.long L$set$2269
	.long	0x21ca
	.byte	0x1
	.long	0xbde3
	.byte	0x1b
	.long	0xbe25
	.byte	0x1
	.byte	0x22
	.long	0xb19b
	.byte	0x0
	.byte	0x44
	.byte	0x1
	.set L$set$2270,LASF1325-Lsection__debug_str
	.long L$set$2270
	.byte	0x3
	.word	0x5e7
	.set L$set$2271,LASF1327-Lsection__debug_str
	.long L$set$2271
	.long	0x223b
	.byte	0x1
	.long	0xbe05
	.byte	0x1b
	.long	0xbe2b
	.byte	0x1
	.byte	0x22
	.long	0xb19b
	.byte	0x0
	.byte	0x38
	.byte	0x1
	.set L$set$2272,LASF1328-Lsection__debug_str
	.long L$set$2272
	.byte	0x3
	.word	0x5f2
	.set L$set$2273,LASF1329-Lsection__debug_str
	.long L$set$2273
	.long	0xe2a
	.byte	0x1
	.byte	0x1b
	.long	0xbe2b
	.byte	0x1
	.byte	0x0
	.byte	0x0
	.byte	0x24
	.byte	0x4
	.long	0xb3a4
	.byte	0x1f
	.byte	0x4
	.long	0xb466
	.byte	0x1f
	.byte	0x4
	.long	0xbe31
	.byte	0x20
	.long	0xb466
	.byte	0x24
	.byte	0x4
	.long	0xad43
	.byte	0x24
	.byte	0x4
	.long	0xbe31
	.byte	0x24
	.byte	0x4
	.long	0xb466
	.byte	0x19
	.long	0x22b8
	.byte	0x18
	.byte	0xa
	.byte	0x5e
	.long	0xc1fe
	.byte	0x1a
	.ascii "_M_t\0"
	.byte	0xa
	.byte	0x76
	.long	0xb466
	.byte	0x2
	.byte	0x23
	.byte	0x0
	.byte	0x3
	.byte	0x6
	.byte	0x1
	.set L$set$2274,LASF1330-Lsection__debug_str
	.long L$set$2274
	.byte	0xa
	.byte	0x8c
	.byte	0x1
	.long	0xbe78
	.byte	0x1b
	.long	0xc1fe
	.byte	0x1
	.byte	0x0
	.byte	0x6
	.byte	0x1
	.set L$set$2275,LASF1330-Lsection__debug_str
	.long L$set$2275
	.byte	0xa
	.byte	0x97
	.byte	0x1
	.long	0xbe96
	.byte	0x1b
	.long	0xc1fe
	.byte	0x1
	.byte	0x22
	.long	0xb460
	.byte	0x22
	.long	0xb230
	.byte	0x0
	.byte	0x6
	.byte	0x1
	.set L$set$2276,LASF1330-Lsection__debug_str
	.long L$set$2276
	.byte	0xa
	.byte	0xc1
	.byte	0x1
	.long	0xbeaf
	.byte	0x1b
	.long	0xc1fe
	.byte	0x1
	.byte	0x22
	.long	0xc204
	.byte	0x0
	.byte	0x1c
	.byte	0x1
	.set L$set$2277,LASF22-Lsection__debug_str
	.long L$set$2277
	.byte	0xa
	.byte	0xcc
	.set L$set$2278,LASF1331-Lsection__debug_str
	.long L$set$2278
	.long	0xc20f
	.byte	0x1
	.long	0xbed0
	.byte	0x1b
	.long	0xc1fe
	.byte	0x1
	.byte	0x22
	.long	0xc204
	.byte	0x0
	.byte	0x1c
	.byte	0x1
	.set L$set$2279,LASF1284-Lsection__debug_str
	.long L$set$2279
	.byte	0xa
	.byte	0xd6
	.set L$set$2280,LASF1332-Lsection__debug_str
	.long L$set$2280
	.long	0xb416
	.byte	0x1
	.long	0xbeec
	.byte	0x1b
	.long	0xc215
	.byte	0x1
	.byte	0x0
	.byte	0x1c
	.byte	0x1
	.set L$set$2281,LASF1333-Lsection__debug_str
	.long L$set$2281
	.byte	0xa
	.byte	0xda
	.set L$set$2282,LASF1334-Lsection__debug_str
	.long L$set$2282
	.long	0xb416
	.byte	0x1
	.long	0xbf08
	.byte	0x1b
	.long	0xc215
	.byte	0x1
	.byte	0x0
	.byte	0x1c
	.byte	0x1
	.set L$set$2283,LASF406-Lsection__debug_str
	.long L$set$2283
	.byte	0xa
	.byte	0xde
	.set L$set$2284,LASF1335-Lsection__debug_str
	.long L$set$2284
	.long	0xb1b8
	.byte	0x1
	.long	0xbf24
	.byte	0x1b
	.long	0xc215
	.byte	0x1
	.byte	0x0
	.byte	0x1c
	.byte	0x1
	.set L$set$2285,LASF318-Lsection__debug_str
	.long L$set$2285
	.byte	0xa
	.byte	0xe6
	.set L$set$2286,LASF1336-Lsection__debug_str
	.long L$set$2286
	.long	0x20ba
	.byte	0x1
	.long	0xbf40
	.byte	0x1b
	.long	0xc215
	.byte	0x1
	.byte	0x0
	.byte	0x1c
	.byte	0x1
	.set L$set$2287,LASF321-Lsection__debug_str
	.long L$set$2287
	.byte	0xa
	.byte	0xee
	.set L$set$2288,LASF1337-Lsection__debug_str
	.long L$set$2288
	.long	0x20ba
	.byte	0x1
	.long	0xbf5c
	.byte	0x1b
	.long	0xc215
	.byte	0x1
	.byte	0x0
	.byte	0x1c
	.byte	0x1
	.set L$set$2289,LASF324-Lsection__debug_str
	.long L$set$2289
	.byte	0xa
	.byte	0xf7
	.set L$set$2290,LASF1338-Lsection__debug_str
	.long L$set$2290
	.long	0x213a
	.byte	0x1
	.long	0xbf78
	.byte	0x1b
	.long	0xc215
	.byte	0x1
	.byte	0x0
	.byte	0x44
	.byte	0x1
	.set L$set$2291,LASF327-Lsection__debug_str
	.long L$set$2291
	.byte	0xa
	.word	0x100
	.set L$set$2292,LASF1339-Lsection__debug_str
	.long L$set$2292
	.long	0x213a
	.byte	0x1
	.long	0xbf95
	.byte	0x1b
	.long	0xc215
	.byte	0x1
	.byte	0x0
	.byte	0x44
	.byte	0x1
	.set L$set$2293,LASF343-Lsection__debug_str
	.long L$set$2293
	.byte	0xa
	.word	0x105
	.set L$set$2294,LASF1340-Lsection__debug_str
	.long L$set$2294
	.long	0xe2a
	.byte	0x1
	.long	0xbfb2
	.byte	0x1b
	.long	0xc215
	.byte	0x1
	.byte	0x0
	.byte	0x44
	.byte	0x1
	.set L$set$2295,LASF330-Lsection__debug_str
	.long L$set$2295
	.byte	0xa
	.word	0x10a
	.set L$set$2296,LASF1341-Lsection__debug_str
	.long L$set$2296
	.long	0xcf9
	.byte	0x1
	.long	0xbfcf
	.byte	0x1b
	.long	0xc215
	.byte	0x1
	.byte	0x0
	.byte	0x44
	.byte	0x1
	.set L$set$2297,LASF268-Lsection__debug_str
	.long L$set$2297
	.byte	0xa
	.word	0x10f
	.set L$set$2298,LASF1342-Lsection__debug_str
	.long L$set$2298
	.long	0xcf9
	.byte	0x1
	.long	0xbfec
	.byte	0x1b
	.long	0xc215
	.byte	0x1
	.byte	0x0
	.byte	0x37
	.byte	0x1
	.set L$set$2299,LASF400-Lsection__debug_str
	.long L$set$2299
	.byte	0xa
	.word	0x11e
	.set L$set$2300,LASF1343-Lsection__debug_str
	.long L$set$2300
	.byte	0x1
	.long	0xc00a
	.byte	0x1b
	.long	0xc1fe
	.byte	0x1
	.byte	0x22
	.long	0xc20f
	.byte	0x0
	.byte	0x44
	.byte	0x1
	.set L$set$2301,LASF368-Lsection__debug_str
	.long L$set$2301
	.byte	0xa
	.word	0x130
	.set L$set$2302,LASF1344-Lsection__debug_str
	.long L$set$2302
	.long	0x232f
	.byte	0x1
	.long	0xc02c
	.byte	0x1b
	.long	0xc1fe
	.byte	0x1
	.byte	0x22
	.long	0xb19b
	.byte	0x0
	.byte	0x44
	.byte	0x1
	.set L$set$2303,LASF368-Lsection__debug_str
	.long L$set$2303
	.byte	0xa
	.word	0x14b
	.set L$set$2304,LASF1345-Lsection__debug_str
	.long L$set$2304
	.long	0x20ba
	.byte	0x1
	.long	0xc053
	.byte	0x1b
	.long	0xc1fe
	.byte	0x1
	.byte	0x22
	.long	0x20ba
	.byte	0x22
	.long	0xb19b
	.byte	0x0
	.byte	0x37
	.byte	0x1
	.set L$set$2305,LASF376-Lsection__debug_str
	.long L$set$2305
	.byte	0xa
	.word	0x165
	.set L$set$2306,LASF1346-Lsection__debug_str
	.long L$set$2306
	.byte	0x1
	.long	0xc071
	.byte	0x1b
	.long	0xc1fe
	.byte	0x1
	.byte	0x22
	.long	0x20ba
	.byte	0x0
	.byte	0x44
	.byte	0x1
	.set L$set$2307,LASF376-Lsection__debug_str
	.long L$set$2307
	.byte	0xa
	.word	0x174
	.set L$set$2308,LASF1347-Lsection__debug_str
	.long L$set$2308
	.long	0xcf9
	.byte	0x1
	.long	0xc093
	.byte	0x1b
	.long	0xc1fe
	.byte	0x1
	.byte	0x22
	.long	0xb19b
	.byte	0x0
	.byte	0x37
	.byte	0x1
	.set L$set$2309,LASF376-Lsection__debug_str
	.long L$set$2309
	.byte	0xa
	.word	0x183
	.set L$set$2310,LASF1348-Lsection__debug_str
	.long L$set$2310
	.byte	0x1
	.long	0xc0b6
	.byte	0x1b
	.long	0xc1fe
	.byte	0x1
	.byte	0x22
	.long	0x20ba
	.byte	0x22
	.long	0x20ba
	.byte	0x0
	.byte	0x37
	.byte	0x1
	.set L$set$2311,LASF341-Lsection__debug_str
	.long L$set$2311
	.byte	0xa
	.word	0x18d
	.set L$set$2312,LASF1349-Lsection__debug_str
	.long L$set$2312
	.byte	0x1
	.long	0xc0cf
	.byte	0x1b
	.long	0xc1fe
	.byte	0x1
	.byte	0x0
	.byte	0x44
	.byte	0x1
	.set L$set$2313,LASF1317-Lsection__debug_str
	.long L$set$2313
	.byte	0xa
	.word	0x19b
	.set L$set$2314,LASF1350-Lsection__debug_str
	.long L$set$2314
	.long	0xcf9
	.byte	0x1
	.long	0xc0f1
	.byte	0x1b
	.long	0xc215
	.byte	0x1
	.byte	0x22
	.long	0xb19b
	.byte	0x0
	.byte	0x44
	.byte	0x1
	.set L$set$2315,LASF241-Lsection__debug_str
	.long L$set$2315
	.byte	0xa
	.word	0x1ad
	.set L$set$2316,LASF1351-Lsection__debug_str
	.long L$set$2316
	.long	0x20ba
	.byte	0x1
	.long	0xc113
	.byte	0x1b
	.long	0xc1fe
	.byte	0x1
	.byte	0x22
	.long	0xb19b
	.byte	0x0
	.byte	0x44
	.byte	0x1
	.set L$set$2317,LASF241-Lsection__debug_str
	.long L$set$2317
	.byte	0xa
	.word	0x1b1
	.set L$set$2318,LASF1352-Lsection__debug_str
	.long L$set$2318
	.long	0x20ba
	.byte	0x1
	.long	0xc135
	.byte	0x1b
	.long	0xc215
	.byte	0x1
	.byte	0x22
	.long	0xb19b
	.byte	0x0
	.byte	0x44
	.byte	0x1
	.set L$set$2319,LASF1319-Lsection__debug_str
	.long L$set$2319
	.byte	0xa
	.word	0x1c2
	.set L$set$2320,LASF1353-Lsection__debug_str
	.long L$set$2320
	.long	0x20ba
	.byte	0x1
	.long	0xc157
	.byte	0x1b
	.long	0xc1fe
	.byte	0x1
	.byte	0x22
	.long	0xb19b
	.byte	0x0
	.byte	0x44
	.byte	0x1
	.set L$set$2321,LASF1319-Lsection__debug_str
	.long L$set$2321
	.byte	0xa
	.word	0x1c6
	.set L$set$2322,LASF1354-Lsection__debug_str
	.long L$set$2322
	.long	0x20ba
	.byte	0x1
	.long	0xc179
	.byte	0x1b
	.long	0xc215
	.byte	0x1
	.byte	0x22
	.long	0xb19b
	.byte	0x0
	.byte	0x44
	.byte	0x1
	.set L$set$2323,LASF1322-Lsection__debug_str
	.long L$set$2323
	.byte	0xa
	.word	0x1d2
	.set L$set$2324,LASF1355-Lsection__debug_str
	.long L$set$2324
	.long	0x20ba
	.byte	0x1
	.long	0xc19b
	.byte	0x1b
	.long	0xc1fe
	.byte	0x1
	.byte	0x22
	.long	0xb19b
	.byte	0x0
	.byte	0x44
	.byte	0x1
	.set L$set$2325,LASF1322-Lsection__debug_str
	.long L$set$2325
	.byte	0xa
	.word	0x1d6
	.set L$set$2326,LASF1356-Lsection__debug_str
	.long L$set$2326
	.long	0x20ba
	.byte	0x1
	.long	0xc1bd
	.byte	0x1b
	.long	0xc215
	.byte	0x1
	.byte	0x22
	.long	0xb19b
	.byte	0x0
	.byte	0x44
	.byte	0x1
	.set L$set$2327,LASF1325-Lsection__debug_str
	.long L$set$2327
	.byte	0xa
	.word	0x1eb
	.set L$set$2328,LASF1357-Lsection__debug_str
	.long L$set$2328
	.long	0x223b
	.byte	0x1
	.long	0xc1df
	.byte	0x1b
	.long	0xc1fe
	.byte	0x1
	.byte	0x22
	.long	0xb19b
	.byte	0x0
	.byte	0x38
	.byte	0x1
	.set L$set$2329,LASF1325-Lsection__debug_str
	.long L$set$2329
	.byte	0xa
	.word	0x1ef
	.set L$set$2330,LASF1358-Lsection__debug_str
	.long L$set$2330
	.long	0x223b
	.byte	0x1
	.byte	0x1b
	.long	0xc215
	.byte	0x1
	.byte	0x22
	.long	0xb19b
	.byte	0x0
	.byte	0x0
	.byte	0x1f
	.byte	0x4
	.long	0xbe48
	.byte	0x24
	.byte	0x4
	.long	0xc20a
	.byte	0x20
	.long	0xbe48
	.byte	0x24
	.byte	0x4
	.long	0xbe48
	.byte	0x1f
	.byte	0x4
	.long	0xc20a
	.byte	0x19
	.long	0x89e
	.byte	0x18
	.byte	0x57
	.byte	0x33
	.long	0xc2e3
	.byte	0x1a
	.ascii "myObservers\0"
	.byte	0x57
	.byte	0x6b
	.long	0xbe48
	.byte	0x2
	.byte	0x23
	.byte	0x0
	.byte	0x3
	.byte	0x21
	.byte	0x1
	.set L$set$2331,LASF1359-Lsection__debug_str
	.long L$set$2331
	.byte	0xb
	.byte	0x1e
	.byte	0x2
	.byte	0x1
	.long	0xc253
	.byte	0x1b
	.long	0xc2e3
	.byte	0x1
	.byte	0x0
	.byte	0x21
	.byte	0x1
	.set L$set$2332,LASF1359-Lsection__debug_str
	.long L$set$2332
	.byte	0xb
	.byte	0x28
	.byte	0x2
	.byte	0x1
	.long	0xc26d
	.byte	0x1b
	.long	0xc2e3
	.byte	0x1
	.byte	0x22
	.long	0xc2e9
	.byte	0x0
	.byte	0x21
	.byte	0x1
	.set L$set$2333,LASF1360-Lsection__debug_str
	.long L$set$2333
	.byte	0xb
	.byte	0x32
	.byte	0x2
	.byte	0x1
	.long	0xc288
	.byte	0x1b
	.long	0xc2e3
	.byte	0x1
	.byte	0x1b
	.long	0xa20
	.byte	0x1
	.byte	0x0
	.byte	0x52
	.byte	0x1
	.set L$set$2334,LASF22-Lsection__debug_str
	.long L$set$2334
	.byte	0xb
	.byte	0x40
	.set L$set$2335,LASF1362-Lsection__debug_str
	.long L$set$2335
	.long	0xc2f4
	.byte	0x2
	.byte	0x1
	.long	0xc2aa
	.byte	0x1b
	.long	0xc2e3
	.byte	0x1
	.byte	0x22
	.long	0xc2e9
	.byte	0x0
	.byte	0x75
	.byte	0x1
	.set L$set$2336,LASF1363-Lsection__debug_str
	.long L$set$2336
	.byte	0xb
	.byte	0x4b
	.set L$set$2337,LASF1364-Lsection__debug_str
	.long L$set$2337
	.byte	0x3
	.byte	0x1
	.long	0xc2c8
	.byte	0x1b
	.long	0xc2fa
	.byte	0x1
	.byte	0x22
	.long	0xc300
	.byte	0x0
	.byte	0x76
	.byte	0x1
	.set L$set$2338,LASF1365-Lsection__debug_str
	.long L$set$2338
	.byte	0xb
	.byte	0x55
	.set L$set$2339,LASF1366-Lsection__debug_str
	.long L$set$2339
	.byte	0x3
	.byte	0x1
	.byte	0x1b
	.long	0xc2fa
	.byte	0x1
	.byte	0x22
	.long	0xc300
	.byte	0x0
	.byte	0x0
	.byte	0x1f
	.byte	0x4
	.long	0xc21b
	.byte	0x24
	.byte	0x4
	.long	0xc2ef
	.byte	0x20
	.long	0xc21b
	.byte	0x24
	.byte	0x4
	.long	0xc21b
	.byte	0x1f
	.byte	0x4
	.long	0xc2ef
	.byte	0x24
	.byte	0x4
	.long	0x885
	.byte	0x19
	.long	0x281a
	.byte	0x1
	.byte	0x6
	.byte	0x36
	.long	0xc43b
	.byte	0x6
	.byte	0x1
	.set L$set$2340,LASF258-Lsection__debug_str
	.long L$set$2340
	.byte	0x6
	.byte	0x44
	.byte	0x1
	.long	0xc326
	.byte	0x1b
	.long	0xc43b
	.byte	0x1
	.byte	0x0
	.byte	0x6
	.byte	0x1
	.set L$set$2341,LASF258-Lsection__debug_str
	.long L$set$2341
	.byte	0x6
	.byte	0x46
	.byte	0x1
	.long	0xc33f
	.byte	0x1b
	.long	0xc43b
	.byte	0x1
	.byte	0x22
	.long	0xc441
	.byte	0x0
	.byte	0x6
	.byte	0x1
	.set L$set$2342,LASF259-Lsection__debug_str
	.long L$set$2342
	.byte	0x6
	.byte	0x4b
	.byte	0x1
	.long	0xc359
	.byte	0x1b
	.long	0xc43b
	.byte	0x1
	.byte	0x1b
	.long	0xa20
	.byte	0x1
	.byte	0x0
	.byte	0x1c
	.byte	0x1
	.set L$set$2343,LASF260-Lsection__debug_str
	.long L$set$2343
	.byte	0x6
	.byte	0x4e
	.set L$set$2344,LASF1367-Lsection__debug_str
	.long L$set$2344
	.long	0xac69
	.byte	0x1
	.long	0xc37a
	.byte	0x1b
	.long	0xc44c
	.byte	0x1
	.byte	0x22
	.long	0xac6f
	.byte	0x0
	.byte	0x1c
	.byte	0x1
	.set L$set$2345,LASF260-Lsection__debug_str
	.long L$set$2345
	.byte	0x6
	.byte	0x51
	.set L$set$2346,LASF1368-Lsection__debug_str
	.long L$set$2346
	.long	0xac7b
	.byte	0x1
	.long	0xc39b
	.byte	0x1b
	.long	0xc44c
	.byte	0x1
	.byte	0x22
	.long	0xac75
	.byte	0x0
	.byte	0x1c
	.byte	0x1
	.set L$set$2347,LASF263-Lsection__debug_str
	.long L$set$2347
	.byte	0x6
	.byte	0x56
	.set L$set$2348,LASF1369-Lsection__debug_str
	.long L$set$2348
	.long	0xac69
	.byte	0x1
	.long	0xc3c1
	.byte	0x1b
	.long	0xc43b
	.byte	0x1
	.byte	0x22
	.long	0xb63
	.byte	0x22
	.long	0x2be7
	.byte	0x0
	.byte	0x4b
	.byte	0x1
	.set L$set$2349,LASF265-Lsection__debug_str
	.long L$set$2349
	.byte	0x6
	.byte	0x60
	.set L$set$2350,LASF1370-Lsection__debug_str
	.long L$set$2350
	.byte	0x1
	.long	0xc3e3
	.byte	0x1b
	.long	0xc43b
	.byte	0x1
	.byte	0x22
	.long	0xac69
	.byte	0x22
	.long	0xb63
	.byte	0x0
	.byte	0x1c
	.byte	0x1
	.set L$set$2351,LASF268-Lsection__debug_str
	.long L$set$2351
	.byte	0x6
	.byte	0x64
	.set L$set$2352,LASF1371-Lsection__debug_str
	.long L$set$2352
	.long	0xcf9
	.byte	0x1
	.long	0xc3ff
	.byte	0x1b
	.long	0xc44c
	.byte	0x1
	.byte	0x0
	.byte	0x4b
	.byte	0x1
	.set L$set$2353,LASF270-Lsection__debug_str
	.long L$set$2353
	.byte	0x6
	.byte	0x6a
	.set L$set$2354,LASF1372-Lsection__debug_str
	.long L$set$2354
	.byte	0x1
	.long	0xc421
	.byte	0x1b
	.long	0xc43b
	.byte	0x1
	.byte	0x22
	.long	0xac69
	.byte	0x22
	.long	0xac75
	.byte	0x0
	.byte	0x1d
	.byte	0x1
	.set L$set$2355,LASF272-Lsection__debug_str
	.long L$set$2355
	.byte	0x6
	.byte	0x6e
	.set L$set$2356,LASF1373-Lsection__debug_str
	.long L$set$2356
	.byte	0x1
	.byte	0x1b
	.long	0xc43b
	.byte	0x1
	.byte	0x22
	.long	0xac69
	.byte	0x0
	.byte	0x0
	.byte	0x1f
	.byte	0x4
	.long	0xc306
	.byte	0x24
	.byte	0x4
	.long	0xc447
	.byte	0x20
	.long	0xc306
	.byte	0x1f
	.byte	0x4
	.long	0xc447
	.byte	0x19
	.long	0x2376
	.byte	0x1
	.byte	0x7
	.byte	0x56
	.long	0xc4ab
	.byte	0x32
	.long	0xc306
	.byte	0x2
	.byte	0x23
	.byte	0x0
	.byte	0x1
	.byte	0x6
	.byte	0x1
	.set L$set$2357,LASF275-Lsection__debug_str
	.long L$set$2357
	.byte	0x7
	.byte	0x64
	.byte	0x1
	.long	0xc47b
	.byte	0x1b
	.long	0xc4ab
	.byte	0x1
	.byte	0x0
	.byte	0x6
	.byte	0x1
	.set L$set$2358,LASF275-Lsection__debug_str
	.long L$set$2358
	.byte	0x7
	.byte	0x66
	.byte	0x1
	.long	0xc494
	.byte	0x1b
	.long	0xc4ab
	.byte	0x1
	.byte	0x22
	.long	0xc4b1
	.byte	0x0
	.byte	0x8
	.byte	0x1
	.set L$set$2359,LASF276-Lsection__debug_str
	.long L$set$2359
	.byte	0x7
	.byte	0x6c
	.byte	0x1
	.byte	0x1b
	.long	0xc4ab
	.byte	0x1
	.byte	0x1b
	.long	0xa20
	.byte	0x1
	.byte	0x0
	.byte	0x0
	.byte	0x1f
	.byte	0x4
	.long	0xc452
	.byte	0x24
	.byte	0x4
	.long	0xc4b7
	.byte	0x20
	.long	0xc452
	.byte	0x1f
	.byte	0x4
	.long	0x23c6
	.byte	0x19
	.long	0x238d
	.byte	0xc
	.byte	0x2d
	.byte	0x4e
	.long	0xc5e8
	.byte	0x10
	.set L$set$2360,LASF489-Lsection__debug_str
	.long L$set$2360
	.byte	0x2d
	.byte	0x7f
	.long	0x23c6
	.byte	0x2
	.byte	0x23
	.byte	0x0
	.byte	0x1c
	.byte	0x1
	.set L$set$2361,LASF1016-Lsection__debug_str
	.long L$set$2361
	.byte	0x2d
	.byte	0x60
	.set L$set$2362,LASF1374-Lsection__debug_str
	.long L$set$2362
	.long	0xc5e8
	.byte	0x1
	.long	0xc4f8
	.byte	0x1b
	.long	0xc5ee
	.byte	0x1
	.byte	0x0
	.byte	0x1c
	.byte	0x1
	.set L$set$2363,LASF1016-Lsection__debug_str
	.long L$set$2363
	.byte	0x2d
	.byte	0x64
	.set L$set$2364,LASF1375-Lsection__debug_str
	.long L$set$2364
	.long	0xc4b1
	.byte	0x1
	.long	0xc514
	.byte	0x1b
	.long	0xc5f4
	.byte	0x1
	.byte	0x0
	.byte	0x1c
	.byte	0x1
	.set L$set$2365,LASF406-Lsection__debug_str
	.long L$set$2365
	.byte	0x2d
	.byte	0x68
	.set L$set$2366,LASF1376-Lsection__debug_str
	.long L$set$2366
	.long	0xc452
	.byte	0x1
	.long	0xc530
	.byte	0x1b
	.long	0xc5f4
	.byte	0x1
	.byte	0x0
	.byte	0x6
	.byte	0x1
	.set L$set$2367,LASF1377-Lsection__debug_str
	.long L$set$2367
	.byte	0x2d
	.byte	0x6b
	.byte	0x1
	.long	0xc549
	.byte	0x1b
	.long	0xc5ee
	.byte	0x1
	.byte	0x22
	.long	0xc4b1
	.byte	0x0
	.byte	0x6
	.byte	0x1
	.set L$set$2368,LASF1377-Lsection__debug_str
	.long L$set$2368
	.byte	0x2d
	.byte	0x6f
	.byte	0x1
	.long	0xc567
	.byte	0x1b
	.long	0xc5ee
	.byte	0x1
	.byte	0x22
	.long	0xb63
	.byte	0x22
	.long	0xc4b1
	.byte	0x0
	.byte	0x6
	.byte	0x1
	.set L$set$2369,LASF1378-Lsection__debug_str
	.long L$set$2369
	.byte	0x2d
	.byte	0x7a
	.byte	0x1
	.long	0xc581
	.byte	0x1b
	.long	0xc5ee
	.byte	0x1
	.byte	0x1b
	.long	0xa20
	.byte	0x1
	.byte	0x0
	.byte	0x1c
	.byte	0x1
	.set L$set$2370,LASF1379-Lsection__debug_str
	.long L$set$2370
	.byte	0x2d
	.byte	0x82
	.set L$set$2371,LASF1380-Lsection__debug_str
	.long L$set$2371
	.long	0xac69
	.byte	0x1
	.long	0xc5a2
	.byte	0x1b
	.long	0xc5ee
	.byte	0x1
	.byte	0x22
	.long	0xb63
	.byte	0x0
	.byte	0x4b
	.byte	0x1
	.set L$set$2372,LASF1381-Lsection__debug_str
	.long L$set$2372
	.byte	0x2d
	.byte	0x86
	.set L$set$2373,LASF1382-Lsection__debug_str
	.long L$set$2373
	.byte	0x1
	.long	0xc5c4
	.byte	0x1b
	.long	0xc5ee
	.byte	0x1
	.byte	0x22
	.long	0xac69
	.byte	0x22
	.long	0xb63
	.byte	0x0
	.byte	0x2e
	.byte	0x2d
	.byte	0xa3
	.long	0xc581
	.byte	0x2e
	.byte	0x2d
	.byte	0xa3
	.long	0xc5a2
	.byte	0x2e
	.byte	0x2d
	.byte	0xa3
	.long	0xc4ce
	.byte	0x2e
	.byte	0x2d
	.byte	0xa3
	.long	0xc4f8
	.byte	0x2e
	.byte	0x2d
	.byte	0xa3
	.long	0xc514
	.byte	0x0
	.byte	0x24
	.byte	0x4
	.long	0xc452
	.byte	0x1f
	.byte	0x4
	.long	0xc4c2
	.byte	0x1f
	.byte	0x4
	.long	0xc5fa
	.byte	0x20
	.long	0xc4c2
	.byte	0x19
	.long	0x2426
	.byte	0xc
	.byte	0x2d
	.byte	0xa3
	.long	0xcb47
	.byte	0x32
	.long	0xc4c2
	.byte	0x2
	.byte	0x23
	.byte	0x0
	.byte	0x2
	.byte	0x6
	.byte	0x1
	.set L$set$2374,LASF1383-Lsection__debug_str
	.long L$set$2374
	.byte	0x2d
	.byte	0xc9
	.byte	0x1
	.long	0xc62d
	.byte	0x1b
	.long	0xcb47
	.byte	0x1
	.byte	0x22
	.long	0xc4b1
	.byte	0x0
	.byte	0x6
	.byte	0x1
	.set L$set$2375,LASF1383-Lsection__debug_str
	.long L$set$2375
	.byte	0x2d
	.byte	0xd6
	.byte	0x1
	.long	0xc650
	.byte	0x1b
	.long	0xcb47
	.byte	0x1
	.byte	0x22
	.long	0xb63
	.byte	0x22
	.long	0xac75
	.byte	0x22
	.long	0xc4b1
	.byte	0x0
	.byte	0x6
	.byte	0x1
	.set L$set$2376,LASF1383-Lsection__debug_str
	.long L$set$2376
	.byte	0x2d
	.byte	0xe7
	.byte	0x1
	.long	0xc669
	.byte	0x1b
	.long	0xcb47
	.byte	0x1
	.byte	0x22
	.long	0xcb4d
	.byte	0x0
	.byte	0x36
	.byte	0x1
	.set L$set$2377,LASF1384-Lsection__debug_str
	.long L$set$2377
	.byte	0x2d
	.word	0x10e
	.byte	0x1
	.long	0xc684
	.byte	0x1b
	.long	0xcb47
	.byte	0x1
	.byte	0x1b
	.long	0xa20
	.byte	0x1
	.byte	0x0
	.byte	0x1c
	.byte	0x1
	.set L$set$2378,LASF22-Lsection__debug_str
	.long L$set$2378
	.byte	0x58
	.byte	0x84
	.set L$set$2379,LASF1385-Lsection__debug_str
	.long L$set$2379
	.long	0xcb58
	.byte	0x1
	.long	0xc6a5
	.byte	0x1b
	.long	0xcb47
	.byte	0x1
	.byte	0x22
	.long	0xcb4d
	.byte	0x0
	.byte	0x37
	.byte	0x1
	.set L$set$2380,LASF232-Lsection__debug_str
	.long L$set$2380
	.byte	0x2d
	.word	0x128
	.set L$set$2381,LASF1386-Lsection__debug_str
	.long L$set$2381
	.byte	0x1
	.long	0xc6c8
	.byte	0x1b
	.long	0xcb47
	.byte	0x1
	.byte	0x22
	.long	0xb63
	.byte	0x22
	.long	0xac75
	.byte	0x0
	.byte	0x44
	.byte	0x1
	.set L$set$2382,LASF318-Lsection__debug_str
	.long L$set$2382
	.byte	0x2d
	.word	0x14a
	.set L$set$2383,LASF1387-Lsection__debug_str
	.long L$set$2383
	.long	0x2835
	.byte	0x1
	.long	0xc6e5
	.byte	0x1b
	.long	0xcb47
	.byte	0x1
	.byte	0x0
	.byte	0x44
	.byte	0x1
	.set L$set$2384,LASF318-Lsection__debug_str
	.long L$set$2384
	.byte	0x2d
	.word	0x153
	.set L$set$2385,LASF1388-Lsection__debug_str
	.long L$set$2385
	.long	0x2889
	.byte	0x1
	.long	0xc702
	.byte	0x1b
	.long	0xcb5e
	.byte	0x1
	.byte	0x0
	.byte	0x44
	.byte	0x1
	.set L$set$2386,LASF321-Lsection__debug_str
	.long L$set$2386
	.byte	0x2d
	.word	0x15c
	.set L$set$2387,LASF1389-Lsection__debug_str
	.long L$set$2387
	.long	0x2835
	.byte	0x1
	.long	0xc71f
	.byte	0x1b
	.long	0xcb47
	.byte	0x1
	.byte	0x0
	.byte	0x44
	.byte	0x1
	.set L$set$2388,LASF321-Lsection__debug_str
	.long L$set$2388
	.byte	0x2d
	.word	0x165
	.set L$set$2389,LASF1390-Lsection__debug_str
	.long L$set$2389
	.long	0x2889
	.byte	0x1
	.long	0xc73c
	.byte	0x1b
	.long	0xcb5e
	.byte	0x1
	.byte	0x0
	.byte	0x44
	.byte	0x1
	.set L$set$2390,LASF324-Lsection__debug_str
	.long L$set$2390
	.byte	0x2d
	.word	0x16e
	.set L$set$2391,LASF1391-Lsection__debug_str
	.long L$set$2391
	.long	0x24ce
	.byte	0x1
	.long	0xc759
	.byte	0x1b
	.long	0xcb47
	.byte	0x1
	.byte	0x0
	.byte	0x44
	.byte	0x1
	.set L$set$2392,LASF324-Lsection__debug_str
	.long L$set$2392
	.byte	0x2d
	.word	0x177
	.set L$set$2393,LASF1392-Lsection__debug_str
	.long L$set$2393
	.long	0x2455
	.byte	0x1
	.long	0xc776
	.byte	0x1b
	.long	0xcb5e
	.byte	0x1
	.byte	0x0
	.byte	0x44
	.byte	0x1
	.set L$set$2394,LASF327-Lsection__debug_str
	.long L$set$2394
	.byte	0x2d
	.word	0x180
	.set L$set$2395,LASF1393-Lsection__debug_str
	.long L$set$2395
	.long	0x24ce
	.byte	0x1
	.long	0xc793
	.byte	0x1b
	.long	0xcb47
	.byte	0x1
	.byte	0x0
	.byte	0x44
	.byte	0x1
	.set L$set$2396,LASF327-Lsection__debug_str
	.long L$set$2396
	.byte	0x2d
	.word	0x189
	.set L$set$2397,LASF1394-Lsection__debug_str
	.long L$set$2397
	.long	0x2455
	.byte	0x1
	.long	0xc7b0
	.byte	0x1b
	.long	0xcb5e
	.byte	0x1
	.byte	0x0
	.byte	0x44
	.byte	0x1
	.set L$set$2398,LASF330-Lsection__debug_str
	.long L$set$2398
	.byte	0x2d
	.word	0x18f
	.set L$set$2399,LASF1395-Lsection__debug_str
	.long L$set$2399
	.long	0xcf9
	.byte	0x1
	.long	0xc7cd
	.byte	0x1b
	.long	0xcb5e
	.byte	0x1
	.byte	0x0
	.byte	0x44
	.byte	0x1
	.set L$set$2400,LASF268-Lsection__debug_str
	.long L$set$2400
	.byte	0x2d
	.word	0x194
	.set L$set$2401,LASF1396-Lsection__debug_str
	.long L$set$2401
	.long	0xcf9
	.byte	0x1
	.long	0xc7ea
	.byte	0x1b
	.long	0xcb5e
	.byte	0x1
	.byte	0x0
	.byte	0x37
	.byte	0x1
	.set L$set$2402,LASF334-Lsection__debug_str
	.long L$set$2402
	.byte	0x2d
	.word	0x1a3
	.set L$set$2403,LASF1397-Lsection__debug_str
	.long L$set$2403
	.byte	0x1
	.long	0xc80d
	.byte	0x1b
	.long	0xcb47
	.byte	0x1
	.byte	0x22
	.long	0xb63
	.byte	0x22
	.long	0xaad3
	.byte	0x0
	.byte	0x44
	.byte	0x1
	.set L$set$2404,LASF337-Lsection__debug_str
	.long L$set$2404
	.byte	0x2d
	.word	0x1b0
	.set L$set$2405,LASF1398-Lsection__debug_str
	.long L$set$2405
	.long	0xcf9
	.byte	0x1
	.long	0xc82a
	.byte	0x1b
	.long	0xcb5e
	.byte	0x1
	.byte	0x0
	.byte	0x44
	.byte	0x1
	.set L$set$2406,LASF343-Lsection__debug_str
	.long L$set$2406
	.byte	0x2d
	.word	0x1b9
	.set L$set$2407,LASF1399-Lsection__debug_str
	.long L$set$2407
	.long	0xe2a
	.byte	0x1
	.long	0xc847
	.byte	0x1b
	.long	0xcb5e
	.byte	0x1
	.byte	0x0
	.byte	0x4b
	.byte	0x1
	.set L$set$2408,LASF339-Lsection__debug_str
	.long L$set$2408
	.byte	0x58
	.byte	0x45
	.set L$set$2409,LASF1400-Lsection__debug_str
	.long L$set$2409
	.byte	0x1
	.long	0xc864
	.byte	0x1b
	.long	0xcb47
	.byte	0x1
	.byte	0x22
	.long	0xb63
	.byte	0x0
	.byte	0x44
	.byte	0x1
	.set L$set$2410,LASF345-Lsection__debug_str
	.long L$set$2410
	.byte	0x2d
	.word	0x1dd
	.set L$set$2411,LASF1401-Lsection__debug_str
	.long L$set$2411
	.long	0xac6f
	.byte	0x1
	.long	0xc886
	.byte	0x1b
	.long	0xcb47
	.byte	0x1
	.byte	0x22
	.long	0xb63
	.byte	0x0
	.byte	0x44
	.byte	0x1
	.set L$set$2412,LASF345-Lsection__debug_str
	.long L$set$2412
	.byte	0x2d
	.word	0x1ec
	.set L$set$2413,LASF1402-Lsection__debug_str
	.long L$set$2413
	.long	0xac75
	.byte	0x1
	.long	0xc8a8
	.byte	0x1b
	.long	0xcb5e
	.byte	0x1
	.byte	0x22
	.long	0xb63
	.byte	0x0
	.byte	0x50
	.byte	0x1
	.set L$set$2414,LASF1055-Lsection__debug_str
	.long L$set$2414
	.byte	0x2d
	.word	0x1f2
	.set L$set$2415,LASF1403-Lsection__debug_str
	.long L$set$2415
	.byte	0x2
	.byte	0x1
	.long	0xc8c7
	.byte	0x1b
	.long	0xcb5e
	.byte	0x1
	.byte	0x22
	.long	0xb63
	.byte	0x0
	.byte	0x44
	.byte	0x1
	.set L$set$2416,LASF348-Lsection__debug_str
	.long L$set$2416
	.byte	0x2d
	.word	0x205
	.set L$set$2417,LASF1404-Lsection__debug_str
	.long L$set$2417
	.long	0xac6f
	.byte	0x1
	.long	0xc8e9
	.byte	0x1b
	.long	0xcb47
	.byte	0x1
	.byte	0x22
	.long	0xb63
	.byte	0x0
	.byte	0x44
	.byte	0x1
	.set L$set$2418,LASF348-Lsection__debug_str
	.long L$set$2418
	.byte	0x2d
	.word	0x217
	.set L$set$2419,LASF1405-Lsection__debug_str
	.long L$set$2419
	.long	0xac75
	.byte	0x1
	.long	0xc90b
	.byte	0x1b
	.long	0xcb5e
	.byte	0x1
	.byte	0x22
	.long	0xb63
	.byte	0x0
	.byte	0x44
	.byte	0x1
	.set L$set$2420,LASF1059-Lsection__debug_str
	.long L$set$2420
	.byte	0x2d
	.word	0x222
	.set L$set$2421,LASF1406-Lsection__debug_str
	.long L$set$2421
	.long	0xac6f
	.byte	0x1
	.long	0xc928
	.byte	0x1b
	.long	0xcb47
	.byte	0x1
	.byte	0x0
	.byte	0x44
	.byte	0x1
	.set L$set$2422,LASF1059-Lsection__debug_str
	.long L$set$2422
	.byte	0x2d
	.word	0x22a
	.set L$set$2423,LASF1407-Lsection__debug_str
	.long L$set$2423
	.long	0xac75
	.byte	0x1
	.long	0xc945
	.byte	0x1b
	.long	0xcb5e
	.byte	0x1
	.byte	0x0
	.byte	0x44
	.byte	0x1
	.set L$set$2424,LASF1062-Lsection__debug_str
	.long L$set$2424
	.byte	0x2d
	.word	0x232
	.set L$set$2425,LASF1408-Lsection__debug_str
	.long L$set$2425
	.long	0xac6f
	.byte	0x1
	.long	0xc962
	.byte	0x1b
	.long	0xcb47
	.byte	0x1
	.byte	0x0
	.byte	0x44
	.byte	0x1
	.set L$set$2426,LASF1062-Lsection__debug_str
	.long L$set$2426
	.byte	0x2d
	.word	0x23a
	.set L$set$2427,LASF1409-Lsection__debug_str
	.long L$set$2427
	.long	0xac75
	.byte	0x1
	.long	0xc97f
	.byte	0x1b
	.long	0xcb5e
	.byte	0x1
	.byte	0x0
	.byte	0x44
	.byte	0x1
	.set L$set$2428,LASF404-Lsection__debug_str
	.long L$set$2428
	.byte	0x2d
	.word	0x245
	.set L$set$2429,LASF1410-Lsection__debug_str
	.long L$set$2429
	.long	0xac69
	.byte	0x1
	.long	0xc99c
	.byte	0x1b
	.long	0xcb47
	.byte	0x1
	.byte	0x0
	.byte	0x44
	.byte	0x1
	.set L$set$2430,LASF404-Lsection__debug_str
	.long L$set$2430
	.byte	0x2d
	.word	0x249
	.set L$set$2431,LASF1411-Lsection__debug_str
	.long L$set$2431
	.long	0xac7b
	.byte	0x1
	.long	0xc9b9
	.byte	0x1b
	.long	0xcb5e
	.byte	0x1
	.byte	0x0
	.byte	0x37
	.byte	0x1
	.set L$set$2432,LASF361-Lsection__debug_str
	.long L$set$2432
	.byte	0x2d
	.word	0x258
	.set L$set$2433,LASF1412-Lsection__debug_str
	.long L$set$2433
	.byte	0x1
	.long	0xc9d7
	.byte	0x1b
	.long	0xcb47
	.byte	0x1
	.byte	0x22
	.long	0xac75
	.byte	0x0
	.byte	0x37
	.byte	0x1
	.set L$set$2434,LASF1070-Lsection__debug_str
	.long L$set$2434
	.byte	0x2d
	.word	0x26d
	.set L$set$2435,LASF1413-Lsection__debug_str
	.long L$set$2435
	.byte	0x1
	.long	0xc9f0
	.byte	0x1b
	.long	0xcb47
	.byte	0x1
	.byte	0x0
	.byte	0x1c
	.byte	0x1
	.set L$set$2436,LASF368-Lsection__debug_str
	.long L$set$2436
	.byte	0x58
	.byte	0x5c
	.set L$set$2437,LASF1414-Lsection__debug_str
	.long L$set$2437
	.long	0x2835
	.byte	0x1
	.long	0xca16
	.byte	0x1b
	.long	0xcb47
	.byte	0x1
	.byte	0x22
	.long	0x2835
	.byte	0x22
	.long	0xac75
	.byte	0x0
	.byte	0x37
	.byte	0x1
	.set L$set$2438,LASF368-Lsection__debug_str
	.long L$set$2438
	.byte	0x2d
	.word	0x28f
	.set L$set$2439,LASF1415-Lsection__debug_str
	.long L$set$2439
	.byte	0x1
	.long	0xca3e
	.byte	0x1b
	.long	0xcb47
	.byte	0x1
	.byte	0x22
	.long	0x2835
	.byte	0x22
	.long	0xb63
	.byte	0x22
	.long	0xac75
	.byte	0x0
	.byte	0x1c
	.byte	0x1
	.set L$set$2440,LASF376-Lsection__debug_str
	.long L$set$2440
	.byte	0x58
	.byte	0x6d
	.set L$set$2441,LASF1416-Lsection__debug_str
	.long L$set$2441
	.long	0x2835
	.byte	0x1
	.long	0xca5f
	.byte	0x1b
	.long	0xcb47
	.byte	0x1
	.byte	0x22
	.long	0x2835
	.byte	0x0
	.byte	0x1c
	.byte	0x1
	.set L$set$2442,LASF376-Lsection__debug_str
	.long L$set$2442
	.byte	0x58
	.byte	0x79
	.set L$set$2443,LASF1417-Lsection__debug_str
	.long L$set$2443
	.long	0x2835
	.byte	0x1
	.long	0xca85
	.byte	0x1b
	.long	0xcb47
	.byte	0x1
	.byte	0x22
	.long	0x2835
	.byte	0x22
	.long	0x2835
	.byte	0x0
	.byte	0x37
	.byte	0x1
	.set L$set$2444,LASF400-Lsection__debug_str
	.long L$set$2444
	.byte	0x2d
	.word	0x2db
	.set L$set$2445,LASF1418-Lsection__debug_str
	.long L$set$2445
	.byte	0x1
	.long	0xcaa3
	.byte	0x1b
	.long	0xcb47
	.byte	0x1
	.byte	0x22
	.long	0xcb58
	.byte	0x0
	.byte	0x37
	.byte	0x1
	.set L$set$2446,LASF341-Lsection__debug_str
	.long L$set$2446
	.byte	0x2d
	.word	0x2ef
	.set L$set$2447,LASF1419-Lsection__debug_str
	.long L$set$2447
	.byte	0x1
	.long	0xcabc
	.byte	0x1b
	.long	0xcb47
	.byte	0x1
	.byte	0x0
	.byte	0x75
	.byte	0x1
	.set L$set$2448,LASF1080-Lsection__debug_str
